00000000 00000001 0001 80002830  x3=80003830                             # auipc   gp, 0x1
00000000 00000002 0001 80002834  x3:80003830 x3=800036c8                 # addi    gp, gp, -360
00000000 00000003 0001 80002838  x1=80002838                             # auipc   ra, 0x0
00000000 00000004 0001 8000283c  x1:80002838 x1=80002840                 # jalr    ra, ra, 964
00000000 00000001 0002 80002830  x3=80003830                             # auipc   gp, 0x1
00000000 00000005 0001 80002bfc  x11:01000000 x14=01000000               # mv      a4, a1
00000000 00000006 0001 80002c00  x14:01000000 RA:01000004 x11=00000009   # lw      a1, 4(a4)
00000000 00000001 0003 80002830  x3=80003830                             # auipc   gp, 0x1
00000000 00000002 0003 80002834  x3:80003830 x3=800036c8                 # addi    gp, gp, -360
00000000 00000003 0003 80002838  x1=80002838                             # auipc   ra, 0x0
00000000 00000004 0003 8000283c  x1:80002838 x1=80002840                 # jalr    ra, ra, 964
00000000 00000005 0003 80002bfc  x11:01000000 x14=01000000               # mv      a4, a1
00000000 00000001 0004 80002830  x3=80003830                             # auipc   gp, 0x1
00000000 00000006 0003 80002c00  x14:01000000 RA:01000004 x11=00000009   # lw      a1, 4(a4)
00000000 00000002 0002 80002834  x3:80003830 x3=800036c8                 # addi    gp, gp, -360
00000000 00000003 0002 80002838  x1=80002838                             # auipc   ra, 0x0
00000000 00000004 0002 8000283c  x1:80002838 x1=80002840                 # jalr    ra, ra, 964
00000000 00000001 0000 80002830  x3=80003830                             # auipc   gp, 0x1
00000000 00000002 0004 80002834  x3:80003830 x3=800036c8                 # addi    gp, gp, -360
00000000 00000003 0004 80002838  x1=80002838                             # auipc   ra, 0x0
00000000 00000004 0004 8000283c  x1:80002838 x1=80002840                 # jalr    ra, ra, 964
00000000 00000005 0004 80002bfc  x11:01000000 x14=01000000               # mv      a4, a1
00000000 00000005 0002 80002bfc  x11:01000000 x14=01000000               # mv      a4, a1
00000000 00000002 0000 80002834  x3:80003830 x3=800036c8                 # addi    gp, gp, -360
00000000 00000007 0003 80002c04  x14:01000000 RA:01000008 x5=00000000    # lw      t0, 8(a4)
00000000 00000001 0005 80002830  x3=80003830                             # auipc   gp, 0x1
00000000 00000007 0001 80002c04  x14:01000000 RA:01000008 x5=00000000    # lw      t0, 8(a4)
00000000 00000002 0005 80002834  x3:80003830 x3=800036c8                 # addi    gp, gp, -360
00000000 00000006 0004 80002c00  x14:01000000 RA:01000004 x11=00000009   # lw      a1, 4(a4)
00000000 00000008 0003 80002c08  x14:01000000 RA:0100000c x12=00100000   # lw      a2, 12(a4)
00000000 00000006 0002 80002c00  x14:01000000 RA:01000004 x11=00000009   # lw      a1, 4(a4)
00000000 00000001 0007 80002830  x3=80003830                             # auipc   gp, 0x1
00000000 00000008 0001 80002c08  x14:01000000 RA:0100000c x12=00100000   # lw      a2, 12(a4)
00000000 00000003 0005 80002838  x1=80002838                             # auipc   ra, 0x0
00000000 00000004 0005 8000283c  x1:80002838 x1=80002840                 # jalr    ra, ra, 964
00000000 00000001 0008 80002830  x3=80003830                             # auipc   gp, 0x1
00000000 00000009 0003 80002c0c  x14:01000000 RA:01000010 x6=00020000    # lw      t1, 16(a4)
00000000 00000003 0000 80002838  x1=80002838                             # auipc   ra, 0x0
00000000 00000007 0002 80002c04  x14:01000000 RA:01000008 x5=00000000    # lw      t0, 8(a4)
00000000 00000002 0007 80002834  x3:80003830 x3=800036c8                 # addi    gp, gp, -360
00000000 00000009 0001 80002c0c  x14:01000000 RA:01000010 x6=00020000    # lw      t1, 16(a4)
00000000 00000001 0006 80002830  x3=80003830                             # auipc   gp, 0x1
00000000 00000002 0006 80002834  x3:80003830 x3=800036c8                 # addi    gp, gp, -360
00000000 00000003 0006 80002838  x1=80002838                             # auipc   ra, 0x0
00000000 00000004 0006 8000283c  x1:80002838 x1=80002840                 # jalr    ra, ra, 964
00000000 00000010 0003 80002c10  x14:01000000 RA:01000014 x7=00000000    # lw      t2, 20(a4)
00000000 00000004 0000 8000283c  x1:80002838 x1=80002840                 # jalr    ra, ra, 964
00000000 00000008 0002 80002c08  x14:01000000 RA:0100000c x12=00100000   # lw      a2, 12(a4)
00000000 00000003 0007 80002838  x1=80002838                             # auipc   ra, 0x0
00000000 00000010 0001 80002c10  x14:01000000 RA:01000014 x7=00000000    # lw      t2, 20(a4)
00000000 00000011 0001 80002c14  x10:00000001 x5:00000000 x10=00000001   # sub     a0, a0, t0
00000000 00000005 0005 80002bfc  x11:01000000 x14=01000000               # mv      a4, a1
00000000 00000002 0008 80002834  x3:80003830 x3=800036c8                 # addi    gp, gp, -360
00000000 00000005 0006 80002bfc  x11:01000000 x14=01000000               # mv      a4, a1
00000000 00000011 0003 80002c14  x10:00000003 x5:00000000 x10=00000003   # sub     a0, a0, t0
00000000 00000006 0006 80002c00  x14:01000000 RA:01000004 x11=00000009   # lw      a1, 4(a4)
00000000 00000005 0000 80002bfc  x11:01000000 x14=01000000               # mv      a4, a1
00000000 00000009 0002 80002c0c  x14:01000000 RA:01000010 x6=00020000    # lw      t1, 16(a4)
00000000 00000006 0000 80002c00  x14:01000000 RA:01000004 x11=00000009   # lw      a1, 4(a4)
00000000 00000004 0007 8000283c  x1:80002838 x1=80002840                 # jalr    ra, ra, 964
00000000 00000007 0004 80002c04  x14:01000000 RA:01000008 x5=00000000    # lw      t0, 8(a4)
00000000 00000005 0007 80002bfc  x11:01000000 x14=01000000               # mv      a4, a1
00000000 00000003 0008 80002838  x1=80002838                             # auipc   ra, 0x0
00000000 00000012 0003 80002c18  x10:00000003 x11:00000009 x28=00000000  # div     t3, a0, a1
00000000 00000007 0006 80002c04  x14:01000000 RA:01000008 x5=00000000    # lw      t0, 8(a4)
00000000 00000010 0002 80002c10  x14:01000000 RA:01000014 x7=00000000    # lw      t2, 20(a4)
00000000 00000007 0000 80002c04  x14:01000000 RA:01000008 x5=00000000    # lw      t0, 8(a4)
00000000 00000012 0001 80002c18  x10:00000001 x11:00000009 x28=00000000  # div     t3, a0, a1
00000000 00000006 0005 80002c00  x14:01000000 RA:01000004 x11=00000009   # lw      a1, 4(a4)
00000000 00000008 0004 80002c08  x14:01000000 RA:0100000c x12=00100000   # lw      a2, 12(a4)
00000000 00000006 0007 80002c00  x14:01000000 RA:01000004 x11=00000009   # lw      a1, 4(a4)
00000000 00000004 0008 8000283c  x1:80002838 x1=80002840                 # jalr    ra, ra, 964
00000000 00000013 0003 80002c1c  x28:00000000 x7:00000000 x29=00000000   # mul     t4, t3, t2
00000000 00000008 0006 80002c08  x14:01000000 RA:0100000c x12=00100000   # lw      a2, 12(a4)
00000000 00000011 0002 80002c14  x10:00000002 x5:00000000 x10=00000002   # sub     a0, a0, t0
00000000 00000008 0000 80002c08  x14:01000000 RA:0100000c x12=00100000   # lw      a2, 12(a4)
00000000 00000013 0001 80002c1c  x28:00000000 x7:00000000 x29=00000000   # mul     t4, t3, t2
00000000 00000007 0005 80002c04  x14:01000000 RA:01000008 x5=00000000    # lw      t0, 8(a4)
00000000 00000009 0004 80002c0c  x14:01000000 RA:01000010 x6=00020000    # lw      t1, 16(a4)
00000000 00000010 0004 80002c10  x14:01000000 RA:01000014 x7=00000000    # lw      t2, 20(a4)
00000000 00000005 0008 80002bfc  x11:01000000 x14=01000000               # mv      a4, a1
00000000 00000014 0003 80002c20  x12:00100000 x29:00000000 x12=00100000  # add     a2, a2, t4
00000000 00000006 0008 80002c00  x14:01000000 RA:01000004 x11=00000009   # lw      a1, 4(a4)
00000000 00000007 0008 80002c04  x14:01000000 RA:01000008 x5=00000000    # lw      t0, 8(a4)
00000000 00000009 0000 80002c0c  x14:01000000 RA:01000010 x6=00020000    # lw      t1, 16(a4)
00000000 00000014 0001 80002c20  x12:00100000 x29:00000000 x12=00100000  # add     a2, a2, t4
00000000 00000008 0005 80002c08  x14:01000000 RA:0100000c x12=00100000   # lw      a2, 12(a4)
00000000 00000007 0007 80002c04  x14:01000000 RA:01000008 x5=00000000    # lw      t0, 8(a4)
00000000 00000011 0004 80002c14  x10:00000004 x5:00000000 x10=00000004   # sub     a0, a0, t0
00000000 00000009 0006 80002c0c  x14:01000000 RA:01000010 x6=00020000    # lw      t1, 16(a4)
00000000 00000015 0003 80002c24  x12:00100000 x6:00020000 x13=00120000   # add     a3, a2, t1
00000000 00000012 0002 80002c18  x10:00000002 x11:00000009 x28=00000000  # div     t3, a0, a1
00000000 00000008 0008 80002c08  x14:01000000 RA:0100000c x12=00100000   # lw      a2, 12(a4)
00000000 00000010 0000 80002c10  x14:01000000 RA:01000014 x7=00000000    # lw      t2, 20(a4)
00000000 00000015 0001 80002c24  x12:00100000 x6:00020000 x13=00120000   # add     a3, a2, t1
00000000 00000009 0005 80002c0c  x14:01000000 RA:01000010 x6=00020000    # lw      t1, 16(a4)
00000000 00000008 0007 80002c08  x14:01000000 RA:0100000c x12=00100000   # lw      a2, 12(a4)
00000000 00000012 0004 80002c18  x10:00000004 x11:00000009 x28=00000000  # div     t3, a0, a1
00000000 00000010 0006 80002c10  x14:01000000 RA:01000014 x7=00000000    # lw      t2, 20(a4)
00000000 00000016 0003 80002c28  x10:00000003 x11:00000009 x10=00000003  # remu    a0, a0, a1
00000000 00000013 0002 80002c1c  x28:00000000 x7:00000000 x29=00000000   # mul     t4, t3, t2
00000000 00000009 0008 80002c0c  x14:01000000 RA:01000010 x6=00020000    # lw      t1, 16(a4)
00000000 00000011 0000 80002c14  x10:00000000 x5:00000000 x10=00000000   # sub     a0, a0, t0
00000000 00000010 0008 80002c10  x14:01000000 RA:01000014 x7=00000000    # lw      t2, 20(a4)
00000000 00000010 0005 80002c10  x14:01000000 RA:01000014 x7=00000000    # lw      t2, 20(a4)
00000000 00000009 0007 80002c0c  x14:01000000 RA:01000010 x6=00020000    # lw      t1, 16(a4)
00000000 00000013 0004 80002c1c  x28:00000000 x7:00000000 x29=00000000   # mul     t4, t3, t2
00000000 00000011 0006 80002c14  x10:00000006 x5:00000000 x10=00000006   # sub     a0, a0, t0
00000000 00000012 0006 80002c18  x10:00000006 x11:00000009 x28=00000000  # div     t3, a0, a1
00000000 00000013 0006 80002c1c  x28:00000000 x7:00000000 x29=00000000   # mul     t4, t3, t2
00000000 00000014 0006 80002c20  x12:00100000 x29:00000000 x12=00100000  # add     a2, a2, t4
00000000 00000012 0000 80002c18  x10:00000000 x11:00000009 x28=00000000  # div     t3, a0, a1
00000000 00000013 0000 80002c1c  x28:00000000 x7:00000000 x29=00000000   # mul     t4, t3, t2
00000000 00000014 0000 80002c20  x12:00100000 x29:00000000 x12=00100000  # add     a2, a2, t4
00000000 00000015 0000 80002c24  x12:00100000 x6:00020000 x13=00120000   # add     a3, a2, t1
00000000 00000016 0000 80002c28  x10:00000000 x11:00000009 x10=00000000  # remu    a0, a0, a1
00000000 00000011 0008 80002c14  x10:00000008 x5:00000000 x10=00000008   # sub     a0, a0, t0
00000000 00000011 0005 80002c14  x10:00000005 x5:00000000 x10=00000005   # sub     a0, a0, t0
00000000 00000012 0008 80002c18  x10:00000008 x11:00000009 x28=00000000  # div     t3, a0, a1
00000000 00000014 0004 80002c20  x12:00100000 x29:00000000 x12=00100000  # add     a2, a2, t4
00000000 00000017 0003 80002c2c  x1:80002840                             # ret
00000000 00000014 0002 80002c20  x12:00100000 x29:00000000 x12=00100000  # add     a2, a2, t4
00000000 00000016 0001 80002c28  x10:00000001 x11:00000009 x10=00000001  # remu    a0, a0, a1
00000000 00000015 0006 80002c24  x12:00100000 x6:00020000 x13=00120000   # add     a3, a2, t1
00000000 00000017 0000 80002c2c  x1:80002840                             # ret
00000000 00000010 0007 80002c10  x14:01000000 RA:01000014 x7=00000000    # lw      t2, 20(a4)
00000000 00000012 0005 80002c18  x10:00000005 x11:00000009 x28=00000000  # div     t3, a0, a1
00000000 00000013 0008 80002c1c  x28:00000000 x7:00000000 x29=00000000   # mul     t4, t3, t2
00000000 00000015 0004 80002c24  x12:00100000 x6:00020000 x13=00120000   # add     a3, a2, t1
00000000 00000018 0003 80002840  x10:00000003 x8=00000003                # mv      s0, a0
00000000 00000015 0002 80002c24  x12:00100000 x6:00020000 x13=00120000   # add     a3, a2, t1
00000000 00000017 0001 80002c2c  x1:80002840                             # ret
00000000 00000016 0006 80002c28  x10:00000006 x11:00000009 x10=00000006  # remu    a0, a0, a1
00000000 00000018 0000 80002840  x10:00000000 x8=00000000                # mv      s0, a0
00000000 00000019 0000 80002844  x14:01000000 x10=01000000               # mv      a0, a4
00000000 00000013 0005 80002c1c  x28:00000000 x7:00000000 x29=00000000   # mul     t4, t3, t2
00000000 00000014 0008 80002c20  x12:00100000 x29:00000000 x12=00100000  # add     a2, a2, t4
00000000 00000016 0004 80002c28  x10:00000004 x11:00000009 x10=00000004  # remu    a0, a0, a1
00000000 00000017 0004 80002c2c  x1:80002840                             # ret
00000000 00000018 0004 80002840  x10:00000004 x8=00000004                # mv      s0, a0
00000000 00000019 0004 80002844  x14:01000000 x10=01000000               # mv      a0, a4
00000000 00000020 0004 80002848  x1=80002848                             # auipc   ra, 0x0
00000000 00000011 0007 80002c14  x10:00000007 x5:00000000 x10=00000007   # sub     a0, a0, t0
00000000 00000020 0000 80002848  x1=80002848                             # auipc   ra, 0x0
00000000 00000012 0007 80002c18  x10:00000007 x11:00000009 x28=00000000  # div     t3, a0, a1
00000000 00000021 0000 8000284c  x1:80002848 x1=80002850                 # jalr    ra, ra, 1036
00000000 00000013 0007 80002c1c  x28:00000000 x7:00000000 x29=00000000   # mul     t4, t3, t2
00000000 00000022 0000 80002c54  x10:01000000 RA:01000008 x10=00000000   # lw      a0, 8(a0)
00000000 00000016 0002 80002c28  x10:00000002 x11:00000009 x10=00000002  # remu    a0, a0, a1
00000000 00000018 0001 80002840  x10:00000001 x8=00000001                # mv      s0, a0
00000000 00000021 0004 8000284c  x1:80002848 x1=80002850                 # jalr    ra, ra, 1036
00000000 00000014 0005 80002c20  x12:00100000 x29:00000000 x12=00100000  # add     a2, a2, t4
00000000 00000015 0008 80002c24  x12:00100000 x6:00020000 x13=00120000   # add     a3, a2, t1
00000000 00000019 0003 80002844  x14:01000000 x10=01000000               # mv      a0, a4
00000000 00000014 0007 80002c20  x12:00100000 x29:00000000 x12=00100000  # add     a2, a2, t4
00000000 00000023 0000 80002c58  x1:80002850                             # ret
00000000 00000017 0002 80002c2c  x1:80002840                             # ret
00000000 00000017 0006 80002c2c  x1:80002840                             # ret
00000000 00000019 0001 80002844  x14:01000000 x10=01000000               # mv      a0, a4
00000000 00000020 0001 80002848  x1=80002848                             # auipc   ra, 0x0
00000000 00000015 0005 80002c24  x12:00100000 x6:00020000 x13=00120000   # add     a3, a2, t1
00000000 00000016 0008 80002c28  x10:00000008 x11:00000009 x10=00000008  # remu    a0, a0, a1
00000000 00000020 0003 80002848  x1=80002848                             # auipc   ra, 0x0
00000000 00000021 0003 8000284c  x1:80002848 x1=80002850                 # jalr    ra, ra, 1036
00000000 00000024 0000 80002850  x10:00000000 x5=00000000                # mv      t0, a0
00000000 00000018 0002 80002840  x10:00000002 x8=00000002                # mv      s0, a0
00000000 00000018 0006 80002840  x10:00000006 x8=00000006                # mv      s0, a0
00000000 00000022 0004 80002c54  x10:01000000 RA:01000008 x10=00000000   # lw      a0, 8(a0)
00000000 00000021 0001 8000284c  x1:80002848 x1=80002850                 # jalr    ra, ra, 1036
00000000 00000016 0005 80002c28  x10:00000005 x11:00000009 x10=00000005  # remu    a0, a0, a1
00000000 00000017 0005 80002c2c  x1:80002840                             # ret
00000000 00000018 0005 80002840  x10:00000005 x8=00000005                # mv      s0, a0
00000000 00000019 0005 80002844  x14:01000000 x10=01000000               # mv      a0, a4
00000000 00000025 0000 80002854  x8:00000000 x10=00000000                # mv      a0, s0
00000000 00000026 0000 80002858  x6=00000000                             # csrr    t1, mhartid
00000000 00000019 0006 80002844  x14:01000000 x10=01000000               # mv      a0, a4
00000000 00000023 0004 80002c58  x1:80002850                             # ret
00000000 00000022 0001 80002c54  x10:01000000 RA:01000008 x10=00000000   # lw      a0, 8(a0)
00000000 00000017 0008 80002c2c  x1:80002840                             # ret
00000000 00000015 0007 80002c24  x12:00100000 x6:00020000 x13=00120000   # add     a3, a2, t1
00000000 00000022 0003 80002c54  x10:01000000 RA:01000008 x10=00000000   # lw      a0, 8(a0)
00000000 00000020 0005 80002848  x1=80002848                             # auipc   ra, 0x0
00000000 00000019 0002 80002844  x14:01000000 x10=01000000               # mv      a0, a4
00000000 00000027 0000 8000285c  x6:00000000 x5:00000000 x5=00000000     # sub     t0, t1, t0
00000000 00000020 0006 80002848  x1=80002848                             # auipc   ra, 0x0
00000000 00000024 0004 80002850  x10:00000000 x5=00000000                # mv      t0, a0
00000000 00000023 0001 80002c58  x1:80002850                             # ret
00000000 00000018 0008 80002840  x10:00000008 x8=00000008                # mv      s0, a0
00000000 00000016 0007 80002c28  x10:00000007 x11:00000009 x10=00000007  # remu    a0, a0, a1
00000000 00000023 0003 80002c58  x1:80002850                             # ret
00000000 00000021 0005 8000284c  x1:80002848 x1=80002850                 # jalr    ra, ra, 1036
00000000 00000020 0002 80002848  x1=80002848                             # auipc   ra, 0x0
00000000 00000028 0000 80002860  x5:00000000                             # bnez    t0, pc + 36
00000000 00000021 0006 8000284c  x1:80002848 x1=80002850                 # jalr    ra, ra, 1036
00000000 00000025 0004 80002854  x8:00000004 x10=00000004                # mv      a0, s0
00000000 00000024 0001 80002850  x10:00000000 x5=00000000                # mv      t0, a0
00000000 00000019 0008 80002844  x14:01000000 x10=01000000               # mv      a0, a4
00000000 00000017 0007 80002c2c  x1:80002840                             # ret
00000000 00000024 0003 80002850  x10:00000000 x5=00000000                # mv      t0, a0
00000000 00000022 0005 80002c54  x10:01000000 RA:01000008 x10=00000000   # lw      a0, 8(a0)
00000000 00000023 0005 80002c58  x1:80002850                             # ret
00000000 00000029 0000 80002864  x5=80002864                             # auipc   t0, 0x0
00000000 00000022 0006 80002c54  x10:01000000 RA:01000008 x10=00000000   # lw      a0, 8(a0)
00000000 00000026 0004 80002858  x6=00000004                             # csrr    t1, mhartid
00000000 00000025 0001 80002854  x8:00000001 x10=00000001                # mv      a0, s0
00000000 00000020 0008 80002848  x1=80002848                             # auipc   ra, 0x0
00000000 00000018 0007 80002840  x10:00000007 x8=00000007                # mv      s0, a0
00000000 00000025 0003 80002854  x8:00000003 x10=00000003                # mv      a0, s0
00000000 00000026 0003 80002858  x6=00000003                             # csrr    t1, mhartid
00000000 00000027 0003 8000285c  x6:00000003 x5:00000000 x5=00000003     # sub     t0, t1, t0
00000000 00000030 0000 80002868  x5:80002864 x5=80002fa8                 # addi    t0, t0, 1860
00000000 00000023 0006 80002c58  x1:80002850                             # ret
00000000 00000027 0004 8000285c  x6:00000004 x5:00000000 x5=00000004     # sub     t0, t1, t0
00000000 00000028 0004 80002860  x5:00000004                             # bnez    t0, pc + 36
00000000 00000029 0004 80002884  x5=40801129                             # csrr    t0, misa
00000000 00000030 0004 80002888  x5:40801129 x5=00000028                 # andi    t0, t0, 40
00000000 00000031 0004 8000288c  x5:00000028                             # beqz    t0, pc + 132
00000000 00000024 0005 80002850  x10:00000000 x5=00000000                # mv      t0, a0
00000000 00000028 0003 80002860  x5:00000003                             # bnez    t0, pc + 36
00000000 00000031 0000 8000286c  x6=8000286c                             # auipc   t1, 0x0
00000000 00000024 0006 80002850  x10:00000000 x5=00000000                # mv      t0, a0
00000000 00000026 0001 80002858  x6=00000001                             # csrr    t1, mhartid
00000000 00000021 0008 8000284c  x1:80002848 x1=80002850                 # jalr    ra, ra, 1036
00000000 00000019 0007 80002844  x14:01000000 x10=01000000               # mv      a0, a4
00000000 00000021 0002 8000284c  x1:80002848 x1=80002850                 # jalr    ra, ra, 1036
00000000 00000032 0004 80002890  f00=        0.000000                    # fcvt.d.w ft0, zero
00000000 00000025 0005 80002854  x8:00000005 x10=00000005                # mv      a0, s0
00000000 00000026 0005 80002858  x6=00000005                             # csrr    t1, mhartid
00000000 00000032 0000 80002870  x6:8000286c x6=80002fac                 # addi    t1, t1, 1856
00000000 00000025 0006 80002854  x8:00000006 x10=00000006                # mv      a0, s0
00000000 00000026 0006 80002858  x6=00000006                             # csrr    t1, mhartid
00000000 00000027 0006 8000285c  x6:00000006 x5:00000000 x5=00000006     # sub     t0, t1, t0
00000000 00000028 0006 80002860  x5:00000006                             # bnez    t0, pc + 36
00000000 00000029 0006 80002884  x5=40801129                             # csrr    t0, misa
00000000 00000033 0004 80002894  f01=        0.000000                    # fcvt.d.w ft1, zero
00000000 00000029 0003 80002884  x5=40801129                             # csrr    t0, misa
00000000 00000034 0004 80002898  f02=        0.000000                    # fcvt.d.w ft2, zero
00000000 00000030 0003 80002888  x5:40801129 x5=00000028                 # andi    t0, t0, 40
00000000 00000033 0000 80002874  x5:80002fa8 x6:80002fac                 # bge     t0, t1, pc + 16
00000000 00000027 0001 8000285c  x6:00000001 x5:00000000 x5=00000001     # sub     t0, t1, t0
00000000 00000022 0008 80002c54  x10:01000000 RA:01000008 x10=00000000   # lw      a0, 8(a0)
00000000 00000023 0008 80002c58  x1:80002850                             # ret
00000000 00000024 0008 80002850  x10:00000000 x5=00000000                # mv      t0, a0
00000000 00000025 0008 80002854  x8:00000008 x10=00000008                # mv      a0, s0
00000000 00000026 0008 80002858  x6=00000008                             # csrr    t1, mhartid
00000000 00000035 0004 8000289c  f03=        0.000000                    # fcvt.d.w ft3, zero
00000000 00000031 0003 8000288c  x5:00000028                             # beqz    t0, pc + 132
00000000 00000032 0003 80002890  f00=        0.000000                    # fcvt.d.w ft0, zero
00000000 00000033 0003 80002894  f01=        0.000000                    # fcvt.d.w ft1, zero
00000000 00000020 0007 80002848  x1=80002848                             # auipc   ra, 0x0
00000000 00000022 0002 80002c54  x10:01000000 RA:01000008 x10=00000000   # lw      a0, 8(a0)
00000000 00000030 0006 80002888  x5:40801129 x5=00000028                 # andi    t0, t0, 40
00000000 00000027 0005 8000285c  x6:00000005 x5:00000000 x5=00000005     # sub     t0, t1, t0
00000000 00000028 0005 80002860  x5:00000005                             # bnez    t0, pc + 36
00000000 00000029 0005 80002884  x5=40801129                             # csrr    t0, misa
00000000 00000030 0005 80002888  x5:40801129 x5=00000028                 # andi    t0, t0, 40
00000000 00000028 0001 80002860  x5:00000001                             # bnez    t0, pc + 36
00000000 00000034 0003 80002898  f02=        0.000000                    # fcvt.d.w ft2, zero
00000000 00000021 0007 8000284c  x1:80002848 x1=80002850                 # jalr    ra, ra, 1036
00000000 00000023 0002 80002c58  x1:80002850                             # ret
00000000 00000031 0006 8000288c  x5:00000028                             # beqz    t0, pc + 132
00000000 00000027 0008 8000285c  x6:00000008 x5:00000000 x5=00000008     # sub     t0, t1, t0
00000000 00000036 0004 800028a0  f04=        0.000000                    # fcvt.d.w ft4, zero
00000000 00000034 0000 80002878  x5:80002fa8 WA:80002fa8                 # sw      zero, 0(t0)
00000000 00000031 0005 8000288c  x5:00000028                             # beqz    t0, pc + 132
00000000 00000029 0001 80002884  x5=40801129                             # csrr    t0, misa
00000000 00000030 0001 80002888  x5:40801129 x5=00000028                 # andi    t0, t0, 40
00000000 00000031 0001 8000288c  x5:00000028                             # beqz    t0, pc + 132
00000000 00000024 0002 80002850  x10:00000000 x5=00000000                # mv      t0, a0
00000000 00000032 0006 80002890  f00=        0.000000                    # fcvt.d.w ft0, zero
00000000 00000028 0008 80002860  x5:00000008                             # bnez    t0, pc + 36
00000000 00000029 0008 80002884  x5=40801129                             # csrr    t0, misa
00000000 00000030 0008 80002888  x5:40801129 x5=00000028                 # andi    t0, t0, 40
00000000 00000031 0008 8000288c  x5:00000028                             # beqz    t0, pc + 132
00000000 00000032 0008 80002890  f00=        0.000000                    # fcvt.d.w ft0, zero
00000000 00000033 0008 80002894  f01=        0.000000                    # fcvt.d.w ft1, zero
00000000 00000032 0001 80002890  f00=        0.000000                    # fcvt.d.w ft0, zero
00000000 00000025 0002 80002854  x8:00000002 x10=00000002                # mv      a0, s0
00000000 00000033 0006 80002894  f01=        0.000000                    # fcvt.d.w ft1, zero
00000000 00000037 0004 800028a4  f05=        0.000000                    # fcvt.d.w ft5, zero
00000000 00000034 0006 80002898  f02=        0.000000                    # fcvt.d.w ft2, zero
00000000 00000038 0004 800028a8  f06=        0.000000                    # fcvt.d.w ft6, zero
00000000 00000032 0005 80002890  f00=        0.000000                    # fcvt.d.w ft0, zero
00000000 00000035 0003 8000289c  f03=        0.000000                    # fcvt.d.w ft3, zero
00000000 00000034 0008 80002898  f02=        0.000000                    # fcvt.d.w ft2, zero
00000000 00000033 0001 80002894  f01=        0.000000                    # fcvt.d.w ft1, zero
00000000 00000026 0002 80002858  x6=00000002                             # csrr    t1, mhartid
00000000 00000034 0001 80002898  f02=        0.000000                    # fcvt.d.w ft2, zero
00000000 00000035 0006 8000289c  f03=        0.000000                    # fcvt.d.w ft3, zero
00000000 00000039 0004 800028ac  f07=        0.000000                    # fcvt.d.w ft7, zero
00000000 00000033 0005 80002894  f01=        0.000000                    # fcvt.d.w ft1, zero
00000000 00000022 0007 80002c54  x10:01000000 RA:01000008 x10=00000000   # lw      a0, 8(a0)
00000000 00000036 0003 800028a0  f04=        0.000000                    # fcvt.d.w ft4, zero
00000000 00000037 0003 800028a4  f05=        0.000000                    # fcvt.d.w ft5, zero
00000000 00000038 0003 800028a8  f06=        0.000000                    # fcvt.d.w ft6, zero
00000000 00000039 0003 800028ac  f07=        0.000000                    # fcvt.d.w ft7, zero
00000000 00000040 0003 800028b0  f08=        0.000000                    # fcvt.d.w fs0, zero
00000000 00000041 0003 800028b4  f09=        0.000000                    # fcvt.d.w fs1, zero
00000000 00000042 0003 800028b8  f10=        0.000000                    # fcvt.d.w fa0, zero
00000000 00000043 0003 800028bc  f11=        0.000000                    # fcvt.d.w fa1, zero
00000000 00000044 0003 800028c0  f12=        0.000000                    # fcvt.d.w fa2, zero
00000000 00000045 0003 800028c4  f13=        0.000000                    # fcvt.d.w fa3, zero
00000000 00000046 0003 800028c8  f14=        0.000000                    # fcvt.d.w fa4, zero
00000000 00000047 0003 800028cc  f15=        0.000000                    # fcvt.d.w fa5, zero
00000000 00000035 0001 8000289c  f03=        0.000000                    # fcvt.d.w ft3, zero
00000000 00000036 0006 800028a0  f04=        0.000000                    # fcvt.d.w ft4, zero
00000000 00000040 0004 800028b0  f08=        0.000000                    # fcvt.d.w fs0, zero
00000000 00000041 0004 800028b4  f09=        0.000000                    # fcvt.d.w fs1, zero
00000000 00000042 0004 800028b8  f10=        0.000000                    # fcvt.d.w fa0, zero
00000000 00000043 0004 800028bc  f11=        0.000000                    # fcvt.d.w fa1, zero
00000000 00000044 0004 800028c0  f12=        0.000000                    # fcvt.d.w fa2, zero
00000000 00000045 0004 800028c4  f13=        0.000000                    # fcvt.d.w fa3, zero
00000000 00000046 0004 800028c8  f14=        0.000000                    # fcvt.d.w fa4, zero
00000000 00000047 0004 800028cc  f15=        0.000000                    # fcvt.d.w fa5, zero
00000000 00000048 0004 800028d0  f16=        0.000000                    # fcvt.d.w fa6, zero
00000000 00000049 0004 800028d4  f17=        0.000000                    # fcvt.d.w fa7, zero
00000000 00000050 0004 800028d8  f18=        0.000000                    # fcvt.d.w fs2, zero
00000000 00000051 0004 800028dc  f19=        0.000000                    # fcvt.d.w fs3, zero
00000000 00000052 0004 800028e0  f20=        0.000000                    # fcvt.d.w fs4, zero
00000000 00000053 0004 800028e4  f21=        0.000000                    # fcvt.d.w fs5, zero
00000000 00000054 0004 800028e8  f22=        0.000000                    # fcvt.d.w fs6, zero
00000000 00000055 0004 800028ec  f23=        0.000000                    # fcvt.d.w fs7, zero
00000000 00000037 0006 800028a4  f05=        0.000000                    # fcvt.d.w ft5, zero
00000000 00000038 0006 800028a8  f06=        0.000000                    # fcvt.d.w ft6, zero
00000000 00000039 0006 800028ac  f07=        0.000000                    # fcvt.d.w ft7, zero
00000000 00000040 0006 800028b0  f08=        0.000000                    # fcvt.d.w fs0, zero
00000000 00000041 0006 800028b4  f09=        0.000000                    # fcvt.d.w fs1, zero
00000000 00000042 0006 800028b8  f10=        0.000000                    # fcvt.d.w fa0, zero
00000000 00000043 0006 800028bc  f11=        0.000000                    # fcvt.d.w fa1, zero
00000000 00000044 0006 800028c0  f12=        0.000000                    # fcvt.d.w fa2, zero
00000000 00000045 0006 800028c4  f13=        0.000000                    # fcvt.d.w fa3, zero
00000000 00000046 0006 800028c8  f14=        0.000000                    # fcvt.d.w fa4, zero
00000000 00000047 0006 800028cc  f15=        0.000000                    # fcvt.d.w fa5, zero
00000000 00000048 0006 800028d0  f16=        0.000000                    # fcvt.d.w fa6, zero
00000000 00000049 0006 800028d4  f17=        0.000000                    # fcvt.d.w fa7, zero
00000000 00000027 0002 8000285c  x6:00000002 x5:00000000 x5=00000002     # sub     t0, t1, t0
00000000 00000048 0003 800028d0  f16=        0.000000                    # fcvt.d.w fa6, zero
00000000 00000036 0001 800028a0  f04=        0.000000                    # fcvt.d.w ft4, zero
00000000 00000056 0004 800028f0  f24=        0.000000                    # fcvt.d.w fs8, zero
00000000 00000034 0005 80002898  f02=        0.000000                    # fcvt.d.w ft2, zero
00000000 00000035 0005 8000289c  f03=        0.000000                    # fcvt.d.w ft3, zero
00000000 00000036 0005 800028a0  f04=        0.000000                    # fcvt.d.w ft4, zero
00000000 00000037 0005 800028a4  f05=        0.000000                    # fcvt.d.w ft5, zero
00000000 00000038 0005 800028a8  f06=        0.000000                    # fcvt.d.w ft6, zero
00000000 00000039 0005 800028ac  f07=        0.000000                    # fcvt.d.w ft7, zero
00000000 00000040 0005 800028b0  f08=        0.000000                    # fcvt.d.w fs0, zero
00000000 00000041 0005 800028b4  f09=        0.000000                    # fcvt.d.w fs1, zero
00000000 00000042 0005 800028b8  f10=        0.000000                    # fcvt.d.w fa0, zero
00000000 00000043 0005 800028bc  f11=        0.000000                    # fcvt.d.w fa1, zero
00000000 00000044 0005 800028c0  f12=        0.000000                    # fcvt.d.w fa2, zero
00000000 00000045 0005 800028c4  f13=        0.000000                    # fcvt.d.w fa3, zero
00000000 00000046 0005 800028c8  f14=        0.000000                    # fcvt.d.w fa4, zero
00000000 00000028 0002 80002860  x5:00000002                             # bnez    t0, pc + 36
00000000 00000049 0003 800028d4  f17=        0.000000                    # fcvt.d.w fa7, zero
00000000 00000037 0001 800028a4  f05=        0.000000                    # fcvt.d.w ft5, zero
00000000 00000057 0004 800028f4  f25=        0.000000                    # fcvt.d.w fs9, zero
00000000 00000023 0007 80002c58  x1:80002850                             # ret
00000000 00000035 0008 8000289c  f03=        0.000000                    # fcvt.d.w ft3, zero
00000000 00000036 0008 800028a0  f04=        0.000000                    # fcvt.d.w ft4, zero
00000000 00000050 0006 800028d8  f18=        0.000000                    # fcvt.d.w fs2, zero
00000000 00000047 0005 800028cc  f15=        0.000000                    # fcvt.d.w fa5, zero
00000000 00000029 0002 80002884  x5=40801129                             # csrr    t0, misa
00000000 00000050 0003 800028d8  f18=        0.000000                    # fcvt.d.w fs2, zero
00000000 00000038 0001 800028a8  f06=        0.000000                    # fcvt.d.w ft6, zero
00000000 00000058 0004 800028f8  f26=        0.000000                    # fcvt.d.w fs10, zero
00000000 00000024 0007 80002850  x10:00000000 x5=00000000                # mv      t0, a0
00000000 00000025 0007 80002854  x8:00000007 x10=00000007                # mv      a0, s0
00000000 00000026 0007 80002858  x6=00000007                             # csrr    t1, mhartid
00000000 00000051 0006 800028dc  f19=        0.000000                    # fcvt.d.w fs3, zero
00000000 00000048 0005 800028d0  f16=        0.000000                    # fcvt.d.w fa6, zero
00000000 00000030 0002 80002888  x5:40801129 x5=00000028                 # andi    t0, t0, 40
00000000 00000031 0002 8000288c  x5:00000028                             # beqz    t0, pc + 132
00000000 00000032 0002 80002890  f00=        0.000000                    # fcvt.d.w ft0, zero
00000000 00000033 0002 80002894  f01=        0.000000                    # fcvt.d.w ft1, zero
00000000 00000035 0000 8000287c  x5:80002fa8 x5=80002fac                 # addi    t0, t0, 4
00000000 00000037 0008 800028a4  f05=        0.000000                    # fcvt.d.w ft5, zero
00000000 00000027 0007 8000285c  x6:00000007 x5:00000000 x5=00000007     # sub     t0, t1, t0
00000000 00000028 0007 80002860  x5:00000007                             # bnez    t0, pc + 36
00000000 00000029 0007 80002884  x5=40801129                             # csrr    t0, misa
00000000 00000030 0007 80002888  x5:40801129 x5=00000028                 # andi    t0, t0, 40
00000000 00000031 0007 8000288c  x5:00000028                             # beqz    t0, pc + 132
00000000 00000032 0007 80002890  f00=        0.000000                    # fcvt.d.w ft0, zero
00000000 00000033 0007 80002894  f01=        0.000000                    # fcvt.d.w ft1, zero
00000000 00000036 0000 80002880  x5:80002fac x6:80002fac                 # blt     t0, t1, pc - 8
00000000 00000038 0008 800028a8  f06=        0.000000                    # fcvt.d.w ft6, zero
00000000 00000052 0006 800028e0  f20=        0.000000                    # fcvt.d.w fs4, zero
00000000 00000049 0005 800028d4  f17=        0.000000                    # fcvt.d.w fa7, zero
00000000 00000050 0005 800028d8  f18=        0.000000                    # fcvt.d.w fs2, zero
00000000 00000051 0005 800028dc  f19=        0.000000                    # fcvt.d.w fs3, zero
00000000 00000052 0005 800028e0  f20=        0.000000                    # fcvt.d.w fs4, zero
00000000 00000053 0005 800028e4  f21=        0.000000                    # fcvt.d.w fs5, zero
00000000 00000054 0005 800028e8  f22=        0.000000                    # fcvt.d.w fs6, zero
00000000 00000055 0005 800028ec  f23=        0.000000                    # fcvt.d.w fs7, zero
00000000 00000056 0005 800028f0  f24=        0.000000                    # fcvt.d.w fs8, zero
00000000 00000057 0005 800028f4  f25=        0.000000                    # fcvt.d.w fs9, zero
00000000 00000058 0005 800028f8  f26=        0.000000                    # fcvt.d.w fs10, zero
00000000 00000059 0005 800028fc  f27=        0.000000                    # fcvt.d.w fs11, zero
00000000 00000060 0005 80002900  f28=        0.000000                    # fcvt.d.w ft8, zero
00000000 00000061 0005 80002904  f29=        0.000000                    # fcvt.d.w ft9, zero
00000000 00000062 0005 80002908  f30=        0.000000                    # fcvt.d.w ft10, zero
00000000 00000063 0005 8000290c  f31=        0.000000                    # fcvt.d.w ft11, zero
00000000 00000039 0008 800028ac  f07=        0.000000                    # fcvt.d.w ft7, zero
00000000 00000053 0006 800028e4  f21=        0.000000                    # fcvt.d.w fs5, zero
00000000 00000040 0008 800028b0  f08=        0.000000                    # fcvt.d.w fs0, zero
00000000 00000051 0003 800028dc  f19=        0.000000                    # fcvt.d.w fs3, zero
00000000 00000059 0004 800028fc  f27=        0.000000                    # fcvt.d.w fs11, zero
00000000 00000060 0004 80002900  f28=        0.000000                    # fcvt.d.w ft8, zero
00000000 00000034 0002 80002898  f02=        0.000000                    # fcvt.d.w ft2, zero
00000000 00000037 0000 80002884  x5=40801129                             # csrr    t0, misa
00000000 00000064 0005 80002910  x13:00120000 x13=0011fff8               # addi    a3, a3, -8
00000000 00000054 0006 800028e8  f22=        0.000000                    # fcvt.d.w fs6, zero
00000000 00000039 0001 800028ac  f07=        0.000000                    # fcvt.d.w ft7, zero
00000000 00000040 0001 800028b0  f08=        0.000000                    # fcvt.d.w fs0, zero
00000000 00000041 0001 800028b4  f09=        0.000000                    # fcvt.d.w fs1, zero
00000000 00000052 0003 800028e0  f20=        0.000000                    # fcvt.d.w fs4, zero
00000000 00000035 0002 8000289c  f03=        0.000000                    # fcvt.d.w ft3, zero
00000000 00000036 0002 800028a0  f04=        0.000000                    # fcvt.d.w ft4, zero
00000000 00000037 0002 800028a4  f05=        0.000000                    # fcvt.d.w ft5, zero
00000000 00000065 0005 80002914  x13:0011fff8 WA:0011fff8                # sw      zero, 0(a3)
00000000 00000055 0006 800028ec  f23=        0.000000                    # fcvt.d.w fs7, zero
00000000 00000056 0006 800028f0  f24=        0.000000                    # fcvt.d.w fs8, zero
00000000 00000057 0006 800028f4  f25=        0.000000                    # fcvt.d.w fs9, zero
00000000 00000058 0006 800028f8  f26=        0.000000                    # fcvt.d.w fs10, zero
00000000 00000059 0006 800028fc  f27=        0.000000                    # fcvt.d.w fs11, zero
00000000 00000060 0006 80002900  f28=        0.000000                    # fcvt.d.w ft8, zero
00000000 00000061 0006 80002904  f29=        0.000000                    # fcvt.d.w ft9, zero
00000000 00000062 0006 80002908  f30=        0.000000                    # fcvt.d.w ft10, zero
00000000 00000063 0006 8000290c  f31=        0.000000                    # fcvt.d.w ft11, zero
00000000 00000064 0006 80002910  x13:00120000 x13=0011fff8               # addi    a3, a3, -8
00000000 00000034 0007 80002898  f02=        0.000000                    # fcvt.d.w ft2, zero
00000000 00000038 0000 80002888  x5:40801129 x5=00000028                 # andi    t0, t0, 40
00000000 00000039 0000 8000288c  x5:00000028                             # beqz    t0, pc + 132
00000000 00000066 0005 80002918  x5=80002918                             # auipc   t0, 0x0
00000000 00000041 0008 800028b4  f09=        0.000000                    # fcvt.d.w fs1, zero
00000000 00000042 0001 800028b8  f10=        0.000000                    # fcvt.d.w fa0, zero
00000000 00000061 0004 80002904  f29=        0.000000                    # fcvt.d.w ft9, zero
00000000 00000062 0004 80002908  f30=        0.000000                    # fcvt.d.w ft10, zero
00000000 00000065 0006 80002914  x13:0011fff8 WA:0011fff8                # sw      zero, 0(a3)
00000000 00000066 0006 80002918  x5=80002918                             # auipc   t0, 0x0
00000000 00000035 0007 8000289c  f03=        0.000000                    # fcvt.d.w ft3, zero
00000000 00000038 0002 800028a8  f06=        0.000000                    # fcvt.d.w ft6, zero
00000000 00000040 0000 80002890  f00=        0.000000                    # fcvt.d.w ft0, zero
00000000 00000067 0005 8000291c  x5:80002918 RA:80002c98 x5=00000088     # lw      t0, 896(t0)
00000000 00000042 0008 800028b8  f10=        0.000000                    # fcvt.d.w fa0, zero
00000000 00000043 0001 800028bc  f11=        0.000000                    # fcvt.d.w fa1, zero
00000000 00000053 0003 800028e4  f21=        0.000000                    # fcvt.d.w fs5, zero
00000000 00000063 0004 8000290c  f31=        0.000000                    # fcvt.d.w ft11, zero
00000000 00000067 0006 8000291c  x5:80002918 RA:80002c98 x5=00000088     # lw      t0, 896(t0)
00000000 00000036 0007 800028a0  f04=        0.000000                    # fcvt.d.w ft4, zero
00000000 00000039 0002 800028ac  f07=        0.000000                    # fcvt.d.w ft7, zero
00000000 00000041 0000 80002894  f01=        0.000000                    # fcvt.d.w ft1, zero
00000000 00000068 0005 80002920  x13:0011fff8 x5:00000088 x13=0011ff70   # sub     a3, a3, t0
00000000 00000042 0000 80002898  f02=        0.000000                    # fcvt.d.w ft2, zero
00000000 00000043 0008 800028bc  f11=        0.000000                    # fcvt.d.w fa1, zero
00000000 00000044 0001 800028c0  f12=        0.000000                    # fcvt.d.w fa2, zero
00000000 00000054 0003 800028e8  f22=        0.000000                    # fcvt.d.w fs6, zero
00000000 00000064 0004 80002910  x13:00120000 x13=0011fff8               # addi    a3, a3, -8
00000000 00000068 0006 80002920  x13:0011fff8 x5:00000088 x13=0011ff70   # sub     a3, a3, t0
00000000 00000069 0006 80002924  x13:0011ff70 x15=0011ff70               # mv      a5, a3
00000000 00000070 0006 80002928  x7=80002928                             # auipc   t2, 0x0
00000000 00000040 0002 800028b0  f08=        0.000000                    # fcvt.d.w fs0, zero
00000000 00000069 0005 80002924  x13:0011ff70 x15=0011ff70               # mv      a5, a3
00000000 00000043 0000 8000289c  f03=        0.000000                    # fcvt.d.w ft3, zero
00000000 00000044 0008 800028c0  f12=        0.000000                    # fcvt.d.w fa2, zero
00000000 00000045 0001 800028c4  f13=        0.000000                    # fcvt.d.w fa3, zero
00000000 00000055 0003 800028ec  f23=        0.000000                    # fcvt.d.w fs7, zero
00000000 00000065 0004 80002914  x13:0011fff8 WA:0011fff8                # sw      zero, 0(a3)
00000000 00000037 0007 800028a4  f05=        0.000000                    # fcvt.d.w ft5, zero
00000000 00000071 0006 8000292c  x7:80002928 RA:80002c9c x7=0000000a     # lw      t2, 884(t2)
00000000 00000041 0002 800028b4  f09=        0.000000                    # fcvt.d.w fs1, zero
00000000 00000070 0005 80002928  x7=80002928                             # auipc   t2, 0x0
00000000 00000044 0000 800028a0  f04=        0.000000                    # fcvt.d.w ft4, zero
00000000 00000045 0008 800028c4  f13=        0.000000                    # fcvt.d.w fa3, zero
00000000 00000046 0001 800028c8  f14=        0.000000                    # fcvt.d.w fa4, zero
00000000 00000056 0003 800028f0  f24=        0.000000                    # fcvt.d.w fs8, zero
00000000 00000057 0003 800028f4  f25=        0.000000                    # fcvt.d.w fs9, zero
00000000 00000058 0003 800028f8  f26=        0.000000                    # fcvt.d.w fs10, zero
00000000 00000059 0003 800028fc  f27=        0.000000                    # fcvt.d.w fs11, zero
00000000 00000060 0003 80002900  f28=        0.000000                    # fcvt.d.w ft8, zero
00000000 00000061 0003 80002904  f29=        0.000000                    # fcvt.d.w ft9, zero
00000000 00000062 0003 80002908  f30=        0.000000                    # fcvt.d.w ft10, zero
00000000 00000063 0003 8000290c  f31=        0.000000                    # fcvt.d.w ft11, zero
00000000 00000047 0001 800028cc  f15=        0.000000                    # fcvt.d.w fa5, zero
00000000 00000066 0004 80002918  x5=80002918                             # auipc   t0, 0x0
00000000 00000038 0007 800028a8  f06=        0.000000                    # fcvt.d.w ft6, zero
00000000 00000072 0006 80002930  x10:00000006 x7:0000000a x5=00001800    # sll     t0, a0, t2
00000000 00000042 0002 800028b8  f10=        0.000000                    # fcvt.d.w fa0, zero
00000000 00000071 0005 8000292c  x7:80002928 RA:80002c9c x7=0000000a     # lw      t2, 884(t2)
00000000 00000045 0000 800028a4  f05=        0.000000                    # fcvt.d.w ft5, zero
00000000 00000046 0008 800028c8  f14=        0.000000                    # fcvt.d.w fa4, zero
00000000 00000064 0003 80002910  x13:00120000 x13=0011fff8               # addi    a3, a3, -8
00000000 00000048 0001 800028d0  f16=        0.000000                    # fcvt.d.w fa6, zero
00000000 00000067 0004 8000291c  x5:80002918 RA:80002c98 x5=00000088     # lw      t0, 896(t0)
00000000 00000039 0007 800028ac  f07=        0.000000                    # fcvt.d.w ft7, zero
00000000 00000073 0006 80002934  x11:00000009 x7:0000000a x6=00002400    # sll     t1, a1, t2
00000000 00000043 0002 800028bc  f11=        0.000000                    # fcvt.d.w fa1, zero
00000000 00000072 0005 80002930  x10:00000005 x7:0000000a x5=00001400    # sll     t0, a0, t2
00000000 00000046 0000 800028a8  f06=        0.000000                    # fcvt.d.w ft6, zero
00000000 00000047 0008 800028cc  f15=        0.000000                    # fcvt.d.w fa5, zero
00000000 00000065 0003 80002914  x13:0011fff8 WA:0011fff8                # sw      zero, 0(a3)
00000000 00000049 0001 800028d4  f17=        0.000000                    # fcvt.d.w fa7, zero
00000000 00000068 0004 80002920  x13:0011fff8 x5:00000088 x13=0011ff70   # sub     a3, a3, t0
00000000 00000069 0004 80002924  x13:0011ff70 x15=0011ff70               # mv      a5, a3
00000000 00000070 0004 80002928  x7=80002928                             # auipc   t2, 0x0
00000000 00000044 0002 800028c0  f12=        0.000000                    # fcvt.d.w fa2, zero
00000000 00000073 0005 80002934  x11:00000009 x7:0000000a x6=00002400    # sll     t1, a1, t2
00000000 00000047 0000 800028ac  f07=        0.000000                    # fcvt.d.w ft7, zero
00000000 00000048 0008 800028d0  f16=        0.000000                    # fcvt.d.w fa6, zero
00000000 00000066 0003 80002918  x5=80002918                             # auipc   t0, 0x0
00000000 00000050 0001 800028d8  f18=        0.000000                    # fcvt.d.w fs2, zero
00000000 00000051 0001 800028dc  f19=        0.000000                    # fcvt.d.w fs3, zero
00000000 00000052 0001 800028e0  f20=        0.000000                    # fcvt.d.w fs4, zero
00000000 00000053 0001 800028e4  f21=        0.000000                    # fcvt.d.w fs5, zero
00000000 00000045 0002 800028c4  f13=        0.000000                    # fcvt.d.w fa3, zero
00000000 00000074 0005 80002938  x13:0011ff70 x5:00001400 x2=0011eb70    # sub     sp, a3, t0
00000000 00000048 0000 800028b0  f08=        0.000000                    # fcvt.d.w fs0, zero
00000000 00000049 0008 800028d4  f17=        0.000000                    # fcvt.d.w fa7, zero
00000000 00000067 0003 8000291c  x5:80002918 RA:80002c98 x5=00000088     # lw      t0, 896(t0)
00000000 00000040 0007 800028b0  f08=        0.000000                    # fcvt.d.w fs0, zero
00000000 00000041 0007 800028b4  f09=        0.000000                    # fcvt.d.w fs1, zero
00000000 00000074 0006 80002938  x13:0011ff70 x5:00001800 x2=0011e770    # sub     sp, a3, t0
00000000 00000054 0001 800028e8  f22=        0.000000                    # fcvt.d.w fs6, zero
00000000 00000046 0002 800028c8  f14=        0.000000                    # fcvt.d.w fa4, zero
00000000 00000075 0005 8000293c  x13:0011ff70 x6:00002400 x13=0011db70   # sub     a3, a3, t1
00000000 00000049 0000 800028b4  f09=        0.000000                    # fcvt.d.w fs1, zero
00000000 00000050 0008 800028d8  f18=        0.000000                    # fcvt.d.w fs2, zero
00000000 00000051 0008 800028dc  f19=        0.000000                    # fcvt.d.w fs3, zero
00000000 00000052 0008 800028e0  f20=        0.000000                    # fcvt.d.w fs4, zero
00000000 00000053 0008 800028e4  f21=        0.000000                    # fcvt.d.w fs5, zero
00000000 00000075 0006 8000293c  x13:0011ff70 x6:00002400 x13=0011db70   # sub     a3, a3, t1
00000000 00000055 0001 800028ec  f23=        0.000000                    # fcvt.d.w fs7, zero
00000000 00000047 0002 800028cc  f15=        0.000000                    # fcvt.d.w fa5, zero
00000000 00000076 0005 80002940  x10:00000005 x5=00000028                # slli    t0, a0, 3
00000000 00000050 0000 800028b8  f10=        0.000000                    # fcvt.d.w fa0, zero
00000000 00000077 0005 80002944  x11:00000009 x6=00000048                # slli    t1, a1, 3
00000000 00000068 0003 80002920  x13:0011fff8 x5:00000088 x13=0011ff70   # sub     a3, a3, t0
00000000 00000042 0007 800028b8  f10=        0.000000                    # fcvt.d.w fa0, zero
00000000 00000054 0008 800028e8  f22=        0.000000                    # fcvt.d.w fs6, zero
00000000 00000076 0006 80002940  x10:00000006 x5=00000030                # slli    t0, a0, 3
00000000 00000056 0001 800028f0  f24=        0.000000                    # fcvt.d.w fs8, zero
00000000 00000077 0006 80002944  x11:00000009 x6=00000048                # slli    t1, a1, 3
00000000 00000051 0000 800028bc  f11=        0.000000                    # fcvt.d.w fa1, zero
00000000 00000078 0005 80002948  x2:0011eb70 x5:00000028 x2=0011eb48     # sub     sp, sp, t0
00000000 00000069 0003 80002924  x13:0011ff70 x15=0011ff70               # mv      a5, a3
00000000 00000071 0004 8000292c  x7:80002928 RA:80002c9c x7=0000000a     # lw      t2, 884(t2)
00000000 00000043 0007 800028bc  f11=        0.000000                    # fcvt.d.w fa1, zero
00000000 00000055 0008 800028ec  f23=        0.000000                    # fcvt.d.w fs7, zero
00000000 00000048 0002 800028d0  f16=        0.000000                    # fcvt.d.w fa6, zero
00000000 00000056 0008 800028f0  f24=        0.000000                    # fcvt.d.w fs8, zero
00000000 00000078 0006 80002948  x2:0011e770 x5:00000030 x2=0011e740     # sub     sp, sp, t0
00000000 00000052 0000 800028c0  f12=        0.000000                    # fcvt.d.w fa2, zero
00000000 00000079 0005 8000294c  x13:0011db70 x6:00000048 x13=0011db28   # sub     a3, a3, t1
00000000 00000080 0005 80002950  x5=80002950                             # auipc   t0, 0x0
00000000 00000072 0004 80002930  x10:00000004 x7:0000000a x5=00001000    # sll     t0, a0, t2
00000000 00000044 0007 800028c0  f12=        0.000000                    # fcvt.d.w fa2, zero
00000000 00000057 0001 800028f4  f25=        0.000000                    # fcvt.d.w fs9, zero
00000000 00000049 0002 800028d4  f17=        0.000000                    # fcvt.d.w fa7, zero
00000000 00000057 0008 800028f4  f25=        0.000000                    # fcvt.d.w fs9, zero
00000000 00000079 0006 8000294c  x13:0011db70 x6:00000048 x13=0011db28   # sub     a3, a3, t1
00000000 00000053 0000 800028c4  f13=        0.000000                    # fcvt.d.w fa3, zero
00000000 00000070 0003 80002928  x7=80002928                             # auipc   t2, 0x0
00000000 00000081 0005 80002954  x5:80002950 x5=80002ec8                 # addi    t0, t0, 1400
00000000 00000073 0004 80002934  x11:00000009 x7:0000000a x6=00002400    # sll     t1, a1, t2
00000000 00000074 0004 80002938  x13:0011ff70 x5:00001000 x2=0011ef70    # sub     sp, a3, t0
00000000 00000058 0001 800028f8  f26=        0.000000                    # fcvt.d.w fs10, zero
00000000 00000050 0002 800028d8  f18=        0.000000                    # fcvt.d.w fs2, zero
00000000 00000058 0008 800028f8  f26=        0.000000                    # fcvt.d.w fs10, zero
00000000 00000080 0006 80002950  x5=80002950                             # auipc   t0, 0x0
00000000 00000081 0006 80002954  x5:80002950 x5=80002ec8                 # addi    t0, t0, 1400
00000000 00000071 0003 8000292c  x7:80002928 RA:80002c9c x7=0000000a     # lw      t2, 884(t2)
00000000 00000082 0005 80002958  x6=80002958                             # auipc   t1, 0x0
00000000 00000045 0007 800028c4  f13=        0.000000                    # fcvt.d.w fa3, zero
00000000 00000075 0004 8000293c  x13:0011ff70 x6:00002400 x13=0011db70   # sub     a3, a3, t1
00000000 00000059 0001 800028fc  f27=        0.000000                    # fcvt.d.w fs11, zero
00000000 00000051 0002 800028dc  f19=        0.000000                    # fcvt.d.w fs3, zero
00000000 00000059 0008 800028fc  f27=        0.000000                    # fcvt.d.w fs11, zero
00000000 00000060 0008 80002900  f28=        0.000000                    # fcvt.d.w ft8, zero
00000000 00000082 0006 80002958  x6=80002958                             # auipc   t1, 0x0
00000000 00000072 0003 80002930  x10:00000003 x7:0000000a x5=00000c00    # sll     t0, a0, t2
00000000 00000083 0005 8000295c  x6:80002958 x6=80002ec8                 # addi    t1, t1, 1392
00000000 00000046 0007 800028c8  f14=        0.000000                    # fcvt.d.w fa4, zero
00000000 00000076 0004 80002940  x10:00000004 x5=00000020                # slli    t0, a0, 3
00000000 00000060 0001 80002900  f28=        0.000000                    # fcvt.d.w ft8, zero
00000000 00000077 0004 80002944  x11:00000009 x6=00000048                # slli    t1, a1, 3
00000000 00000061 0001 80002904  f29=        0.000000                    # fcvt.d.w ft9, zero
00000000 00000054 0000 800028c8  f14=        0.000000                    # fcvt.d.w fa4, zero
00000000 00000061 0008 80002904  f29=        0.000000                    # fcvt.d.w ft9, zero
00000000 00000083 0006 8000295c  x6:80002958 x6=80002ec8                 # addi    t1, t1, 1392
00000000 00000073 0003 80002934  x11:00000009 x7:0000000a x6=00002400    # sll     t1, a1, t2
00000000 00000084 0005 80002960  x7=80002960                             # auipc   t2, 0x0
00000000 00000047 0007 800028cc  f15=        0.000000                    # fcvt.d.w fa5, zero
00000000 00000052 0002 800028e0  f20=        0.000000                    # fcvt.d.w fs4, zero
00000000 00000078 0004 80002948  x2:0011ef70 x5:00000020 x2=0011ef50     # sub     sp, sp, t0
00000000 00000062 0001 80002908  f30=        0.000000                    # fcvt.d.w ft10, zero
00000000 00000055 0000 800028cc  f15=        0.000000                    # fcvt.d.w fa5, zero
00000000 00000062 0008 80002908  f30=        0.000000                    # fcvt.d.w ft10, zero
00000000 00000084 0006 80002960  x7=80002960                             # auipc   t2, 0x0
00000000 00000074 0003 80002938  x13:0011ff70 x5:00000c00 x2=0011f370    # sub     sp, a3, t0
00000000 00000085 0005 80002964  x7:80002960 x7=80002ec8                 # addi    t2, t2, 1384
00000000 00000048 0007 800028d0  f16=        0.000000                    # fcvt.d.w fa6, zero
00000000 00000053 0002 800028e4  f21=        0.000000                    # fcvt.d.w fs5, zero
00000000 00000079 0004 8000294c  x13:0011db70 x6:00000048 x13=0011db28   # sub     a3, a3, t1
00000000 00000063 0001 8000290c  f31=        0.000000                    # fcvt.d.w ft11, zero
00000000 00000056 0000 800028d0  f16=        0.000000                    # fcvt.d.w fa6, zero
00000000 00000063 0008 8000290c  f31=        0.000000                    # fcvt.d.w ft11, zero
00000000 00000085 0006 80002964  x7:80002960 x7=80002ec8                 # addi    t2, t2, 1384
00000000 00000086 0006 80002968  x28=80002968                            # auipc   t3, 0x0
00000000 00000075 0003 8000293c  x13:0011ff70 x6:00002400 x13=0011db70   # sub     a3, a3, t1
00000000 00000086 0005 80002968  x28=80002968                            # auipc   t3, 0x0
00000000 00000049 0007 800028d4  f17=        0.000000                    # fcvt.d.w fa7, zero
00000000 00000054 0002 800028e8  f22=        0.000000                    # fcvt.d.w fs6, zero
00000000 00000080 0004 80002950  x5=80002950                             # auipc   t0, 0x0
00000000 00000064 0001 80002910  x13:00120000 x13=0011fff8               # addi    a3, a3, -8
00000000 00000065 0001 80002914  x13:0011fff8 WA:0011fff8                # sw      zero, 0(a3)
00000000 00000066 0001 80002918  x5=80002918                             # auipc   t0, 0x0
00000000 00000087 0006 8000296c  x28:80002968 x28=80002ed8               # addi    t3, t3, 1392
00000000 00000076 0003 80002940  x10:00000003 x5=00000018                # slli    t0, a0, 3
00000000 00000087 0005 8000296c  x28:80002968 x28=80002ed8               # addi    t3, t3, 1392
00000000 00000077 0003 80002944  x11:00000009 x6=00000048                # slli    t1, a1, 3
00000000 00000050 0007 800028d8  f18=        0.000000                    # fcvt.d.w fs2, zero
00000000 00000078 0003 80002948  x2:0011f370 x5:00000018 x2=0011f358     # sub     sp, sp, t0
00000000 00000081 0004 80002954  x5:80002950 x5=80002ec8                 # addi    t0, t0, 1400
00000000 00000057 0000 800028d4  f17=        0.000000                    # fcvt.d.w fa7, zero
00000000 00000064 0008 80002910  x13:00120000 x13=0011fff8               # addi    a3, a3, -8
00000000 00000067 0001 8000291c  x5:80002918 RA:80002c98 x5=00000088     # lw      t0, 896(t0)
00000000 00000088 0006 80002970  x2:0011e740 x5:80002ec8 x2=80121608     # add     sp, sp, t0
00000000 00000088 0005 80002970  x2:0011eb48 x5:80002ec8 x2=80121a10     # add     sp, sp, t0
00000000 00000055 0002 800028ec  f23=        0.000000                    # fcvt.d.w fs7, zero
00000000 00000051 0007 800028dc  f19=        0.000000                    # fcvt.d.w fs3, zero
00000000 00000079 0003 8000294c  x13:0011db70 x6:00000048 x13=0011db28   # sub     a3, a3, t1
00000000 00000080 0003 80002950  x5=80002950                             # auipc   t0, 0x0
00000000 00000081 0003 80002954  x5:80002950 x5=80002ec8                 # addi    t0, t0, 1400
00000000 00000082 0003 80002958  x6=80002958                             # auipc   t1, 0x0
00000000 00000083 0003 8000295c  x6:80002958 x6=80002ec8                 # addi    t1, t1, 1392
00000000 00000084 0003 80002960  x7=80002960                             # auipc   t2, 0x0
00000000 00000089 0005 80002974  x2:80121a10 x6:80002ec8 x2=0011eb48     # sub     sp, sp, t1
00000000 00000056 0002 800028f0  f24=        0.000000                    # fcvt.d.w fs8, zero
00000000 00000052 0007 800028e0  f20=        0.000000                    # fcvt.d.w fs4, zero
00000000 00000082 0004 80002958  x6=80002958                             # auipc   t1, 0x0
00000000 00000058 0000 800028d8  f18=        0.000000                    # fcvt.d.w fs2, zero
00000000 00000059 0000 800028dc  f19=        0.000000                    # fcvt.d.w fs3, zero
00000000 00000060 0000 800028e0  f20=        0.000000                    # fcvt.d.w fs4, zero
00000000 00000061 0000 800028e4  f21=        0.000000                    # fcvt.d.w fs5, zero
00000000 00000062 0000 800028e8  f22=        0.000000                    # fcvt.d.w fs6, zero
00000000 00000063 0000 800028ec  f23=        0.000000                    # fcvt.d.w fs7, zero
00000000 00000057 0002 800028f4  f25=        0.000000                    # fcvt.d.w fs9, zero
00000000 00000053 0007 800028e4  f21=        0.000000                    # fcvt.d.w fs5, zero
00000000 00000054 0007 800028e8  f22=        0.000000                    # fcvt.d.w fs6, zero
00000000 00000055 0007 800028ec  f23=        0.000000                    # fcvt.d.w fs7, zero
00000000 00000056 0007 800028f0  f24=        0.000000                    # fcvt.d.w fs8, zero
00000000 00000057 0007 800028f4  f25=        0.000000                    # fcvt.d.w fs9, zero
00000000 00000058 0007 800028f8  f26=        0.000000                    # fcvt.d.w fs10, zero
00000000 00000085 0003 80002964  x7:80002960 x7=80002ec8                 # addi    t2, t2, 1384
00000000 00000090 0005 80002978  x2:0011eb48 x7:80002ec8 x2=80121a10     # add     sp, sp, t2
00000000 00000064 0000 800028f0  f24=        0.000000                    # fcvt.d.w fs8, zero
00000000 00000058 0002 800028f8  f26=        0.000000                    # fcvt.d.w fs10, zero
00000000 00000059 0002 800028fc  f27=        0.000000                    # fcvt.d.w fs11, zero
00000000 00000060 0002 80002900  f28=        0.000000                    # fcvt.d.w ft8, zero
00000000 00000061 0002 80002904  f29=        0.000000                    # fcvt.d.w ft9, zero
00000000 00000062 0002 80002908  f30=        0.000000                    # fcvt.d.w ft10, zero
00000000 00000063 0002 8000290c  f31=        0.000000                    # fcvt.d.w ft11, zero
00000000 00000059 0007 800028fc  f27=        0.000000                    # fcvt.d.w fs11, zero
00000000 00000060 0007 80002900  f28=        0.000000                    # fcvt.d.w ft8, zero
00000000 00000061 0007 80002904  f29=        0.000000                    # fcvt.d.w ft9, zero
00000000 00000062 0007 80002908  f30=        0.000000                    # fcvt.d.w ft10, zero
00000000 00000063 0007 8000290c  f31=        0.000000                    # fcvt.d.w ft11, zero
00000000 00000064 0007 80002910  x13:00120000 x13=0011fff8               # addi    a3, a3, -8
00000000 00000065 0007 80002914  x13:0011fff8 WA:0011fff8                # sw      zero, 0(a3)
00000000 00000066 0007 80002918  x5=80002918                             # auipc   t0, 0x0
00000000 00000086 0003 80002968  x28=80002968                            # auipc   t3, 0x0
00000000 00000091 0005 8000297c  x2:80121a10 x28:80002ed8 x2=0011eb38    # sub     sp, sp, t3
00000000 00000065 0000 800028f4  f25=        0.000000                    # fcvt.d.w fs9, zero
00000000 00000083 0004 8000295c  x6:80002958 x6=80002ec8                 # addi    t1, t1, 1392
00000000 00000065 0008 80002914  x13:0011fff8 WA:0011fff8                # sw      zero, 0(a3)
00000000 00000068 0001 80002920  x13:0011fff8 x5:00000088 x13=0011ff70   # sub     a3, a3, t0
00000000 00000089 0006 80002974  x2:80121608 x6:80002ec8 x2=0011e740     # sub     sp, sp, t1
00000000 00000064 0002 80002910  x13:00120000 x13=0011fff8               # addi    a3, a3, -8
00000000 00000067 0007 8000291c  x5:80002918 RA:80002c98 x5=00000088     # lw      t0, 896(t0)
00000000 00000087 0003 8000296c  x28:80002968 x28=80002ed8               # addi    t3, t3, 1392
00000000 00000092 0005 80002980  x2:0011eb38 x2=0011eb38                 # andi    sp, sp, -8
00000000 00000066 0000 800028f8  f26=        0.000000                    # fcvt.d.w fs10, zero
00000000 00000084 0004 80002960  x7=80002960                             # auipc   t2, 0x0
00000000 00000066 0008 80002918  x5=80002918                             # auipc   t0, 0x0
00000000 00000069 0001 80002924  x13:0011ff70 x15=0011ff70               # mv      a5, a3
00000000 00000090 0006 80002978  x2:0011e740 x7:80002ec8 x2=80121608     # add     sp, sp, t2
00000000 00000091 0006 8000297c  x2:80121608 x28:80002ed8 x2=0011e730    # sub     sp, sp, t3
00000000 00000068 0007 80002920  x13:0011fff8 x5:00000088 x13=0011ff70   # sub     a3, a3, t0
00000000 00000088 0003 80002970  x2:0011f358 x5:80002ec8 x2=80122220     # add     sp, sp, t0
00000000 00000093 0005 80002984  x2:0011eb38 x4=0011eb38                 # mv      tp, sp
00000000 00000067 0000 800028fc  f27=        0.000000                    # fcvt.d.w fs11, zero
00000000 00000085 0004 80002964  x7:80002960 x7=80002ec8                 # addi    t2, t2, 1384
00000000 00000067 0008 8000291c  x5:80002918 RA:80002c98 x5=00000088     # lw      t0, 896(t0)
00000000 00000070 0001 80002928  x7=80002928                             # auipc   t2, 0x0
00000000 00000065 0002 80002914  x13:0011fff8 WA:0011fff8                # sw      zero, 0(a3)
00000000 00000092 0006 80002980  x2:0011e730 x2=0011e730                 # andi    sp, sp, -8
00000000 00000069 0007 80002924  x13:0011ff70 x15=0011ff70               # mv      a5, a3
00000000 00000089 0003 80002974  x2:80122220 x6:80002ec8 x2=0011f358     # sub     sp, sp, t1
00000000 00000094 0005 80002988  x2:0011eb38 x2=0011eb38                 # andi    sp, sp, -8
00000000 00000068 0000 80002900  f28=        0.000000                    # fcvt.d.w ft8, zero
00000000 00000086 0004 80002968  x28=80002968                            # auipc   t3, 0x0
00000000 00000068 0008 80002920  x13:0011fff8 x5:00000088 x13=0011ff70   # sub     a3, a3, t0
00000000 00000071 0001 8000292c  x7:80002928 RA:80002c9c x7=0000000a     # lw      t2, 884(t2)
00000000 00000066 0002 80002918  x5=80002918                             # auipc   t0, 0x0
00000000 00000093 0006 80002984  x2:0011e730 x4=0011e730                 # mv      tp, sp
00000000 00000070 0007 80002928  x7=80002928                             # auipc   t2, 0x0
00000000 00000090 0003 80002978  x2:0011f358 x7:80002ec8 x2=80122220     # add     sp, sp, t2
00000000 00000095 0005 8000298c  x4:0011eb38 x29=0011eb38                # mv      t4, tp
00000000 00000069 0000 80002904  f29=        0.000000                    # fcvt.d.w ft9, zero
00000000 00000087 0004 8000296c  x28:80002968 x28=80002ed8               # addi    t3, t3, 1392
00000000 00000069 0008 80002924  x13:0011ff70 x15=0011ff70               # mv      a5, a3
00000000 00000072 0001 80002930  x10:00000001 x7:0000000a x5=00000400    # sll     t0, a0, t2
00000000 00000067 0002 8000291c  x5:80002918 RA:80002c98 x5=00000088     # lw      t0, 896(t0)
00000000 00000094 0006 80002988  x2:0011e730 x2=0011e730                 # andi    sp, sp, -8
00000000 00000071 0007 8000292c  x7:80002928 RA:80002c9c x7=0000000a     # lw      t2, 884(t2)
00000000 00000091 0003 8000297c  x2:80122220 x28:80002ed8 x2=0011f348    # sub     sp, sp, t3
00000000 00000096 0005 80002990  x5:80002ec8 x6:80002ec8                 # bge     t0, t1, pc + 24
00000000 00000070 0000 80002908  f30=        0.000000                    # fcvt.d.w ft10, zero
00000000 00000088 0004 80002970  x2:0011ef50 x5:80002ec8 x2=80121e18     # add     sp, sp, t0
00000000 00000070 0008 80002928  x7=80002928                             # auipc   t2, 0x0
00000000 00000073 0001 80002934  x11:00000009 x7:0000000a x6=00002400    # sll     t1, a1, t2
00000000 00000068 0002 80002920  x13:0011fff8 x5:00000088 x13=0011ff70   # sub     a3, a3, t0
00000000 00000095 0006 8000298c  x4:0011e730 x29=0011e730                # mv      t4, tp
00000000 00000072 0007 80002930  x10:00000007 x7:0000000a x5=00001c00    # sll     t0, a0, t2
00000000 00000092 0003 80002980  x2:0011f348 x2=0011f348                 # andi    sp, sp, -8
00000000 00000097 0005 800029a8  x5=800029a8                             # auipc   t0, 0x0
00000000 00000071 0000 8000290c  f31=        0.000000                    # fcvt.d.w ft11, zero
00000000 00000089 0004 80002974  x2:80121e18 x6:80002ec8 x2=0011ef50     # sub     sp, sp, t1
00000000 00000090 0004 80002978  x2:0011ef50 x7:80002ec8 x2=80121e18     # add     sp, sp, t2
00000000 00000071 0008 8000292c  x7:80002928 RA:80002c9c x7=0000000a     # lw      t2, 884(t2)
00000000 00000074 0001 80002938  x13:0011ff70 x5:00000400 x2=0011fb70    # sub     sp, a3, t0
00000000 00000069 0002 80002924  x13:0011ff70 x15=0011ff70               # mv      a5, a3
00000000 00000096 0006 80002990  x5:80002ec8 x6:80002ec8                 # bge     t0, t1, pc + 24
00000000 00000073 0007 80002934  x11:00000009 x7:0000000a x6=00002400    # sll     t1, a1, t2
00000000 00000093 0003 80002984  x2:0011f348 x4=0011f348                 # mv      tp, sp
00000000 00000098 0005 800029ac  x5:800029a8 x5=80002ec8                 # addi    t0, t0, 1312
00000000 00000072 0000 80002910  x13:00120000 x13=0011fff8               # addi    a3, a3, -8
00000000 00000091 0004 8000297c  x2:80121e18 x28:80002ed8 x2=0011ef40    # sub     sp, sp, t3
00000000 00000072 0008 80002930  x10:00000008 x7:0000000a x5=00002000    # sll     t0, a0, t2
00000000 00000075 0001 8000293c  x13:0011ff70 x6:00002400 x13=0011db70   # sub     a3, a3, t1
00000000 00000070 0002 80002928  x7=80002928                             # auipc   t2, 0x0
00000000 00000097 0006 800029a8  x5=800029a8                             # auipc   t0, 0x0
00000000 00000074 0007 80002938  x13:0011ff70 x5:00001c00 x2=0011e370    # sub     sp, a3, t0
00000000 00000094 0003 80002988  x2:0011f348 x2=0011f348                 # andi    sp, sp, -8
00000000 00000099 0005 800029b0  x6=800029b0                             # auipc   t1, 0x0
00000000 00000073 0000 80002914  x13:0011fff8 WA:0011fff8                # sw      zero, 0(a3)
00000000 00000092 0004 80002980  x2:0011ef40 x2=0011ef40                 # andi    sp, sp, -8
00000000 00000073 0008 80002934  x11:00000009 x7:0000000a x6=00002400    # sll     t1, a1, t2
00000000 00000076 0001 80002940  x10:00000001 x5=00000008                # slli    t0, a0, 3
00000000 00000071 0002 8000292c  x7:80002928 RA:80002c9c x7=0000000a     # lw      t2, 884(t2)
00000000 00000098 0006 800029ac  x5:800029a8 x5=80002ec8                 # addi    t0, t0, 1312
00000000 00000075 0007 8000293c  x13:0011ff70 x6:00002400 x13=0011db70   # sub     a3, a3, t1
00000000 00000095 0003 8000298c  x4:0011f348 x29=0011f348                # mv      t4, tp
00000000 00000100 0005 800029b4  x6:800029b0 x6=80002ed8                 # addi    t1, t1, 1320
00000000 00000074 0000 80002918  x5=80002918                             # auipc   t0, 0x0
00000000 00000093 0004 80002984  x2:0011ef40 x4=0011ef40                 # mv      tp, sp
00000000 00000074 0008 80002938  x13:0011ff70 x5:00002000 x2=0011df70    # sub     sp, a3, t0
00000000 00000077 0001 80002944  x11:00000009 x6=00000048                # slli    t1, a1, 3
00000000 00000072 0002 80002930  x10:00000002 x7:0000000a x5=00000800    # sll     t0, a0, t2
00000000 00000099 0006 800029b0  x6=800029b0                             # auipc   t1, 0x0
00000000 00000076 0007 80002940  x10:00000007 x5=00000038                # slli    t0, a0, 3
00000000 00000096 0003 80002990  x5:80002ec8 x6:80002ec8                 # bge     t0, t1, pc + 24
00000000 00000077 0007 80002944  x11:00000009 x6=00000048                # slli    t1, a1, 3
00000000 00000097 0003 800029a8  x5=800029a8                             # auipc   t0, 0x0
00000000 00000078 0007 80002948  x2:0011e370 x5:00000038 x2=0011e338     # sub     sp, sp, t0
00000000 00000098 0003 800029ac  x5:800029a8 x5=80002ec8                 # addi    t0, t0, 1312
00000000 00000075 0008 8000293c  x13:0011ff70 x6:00002400 x13=0011db70   # sub     a3, a3, t1
00000000 00000078 0001 80002948  x2:0011fb70 x5:00000008 x2=0011fb68     # sub     sp, sp, t0
00000000 00000073 0002 80002934  x11:00000009 x7:0000000a x6=00002400    # sll     t1, a1, t2
00000000 00000100 0006 800029b4  x6:800029b0 x6=80002ed8                 # addi    t1, t1, 1320
00000000 00000101 0005 800029b8  x5:80002ec8 x6:80002ed8                 # bge     t0, t1, pc + 20
00000000 00000075 0000 8000291c  x5:80002918 RA:80002c98 x5=00000088     # lw      t0, 896(t0)
00000000 00000094 0004 80002988  x2:0011ef40 x2=0011ef40                 # andi    sp, sp, -8
00000000 00000079 0007 8000294c  x13:0011db70 x6:00000048 x13=0011db28   # sub     a3, a3, t1
00000000 00000099 0003 800029b0  x6=800029b0                             # auipc   t1, 0x0
00000000 00000076 0008 80002940  x10:00000008 x5=00000040                # slli    t0, a0, 3
00000000 00000079 0001 8000294c  x13:0011db70 x6:00000048 x13=0011db28   # sub     a3, a3, t1
00000000 00000077 0008 80002944  x11:00000009 x6=00000048                # slli    t1, a1, 3
00000000 00000074 0002 80002938  x13:0011ff70 x5:00000800 x2=0011f770    # sub     sp, a3, t0
00000000 00000101 0006 800029b8  x5:80002ec8 x6:80002ed8                 # bge     t0, t1, pc + 20
00000000 00000102 0005 800029bc  x29:0011eb38 WA:0011eb38                # sw      zero, 0(t4)
00000000 00000102 0006 800029bc  x29:0011e730 WA:0011e730                # sw      zero, 0(t4)
00000000 00000080 0007 80002950  x5=80002950                             # auipc   t0, 0x0
00000000 00000100 0003 800029b4  x6:800029b0 x6=80002ed8                 # addi    t1, t1, 1320
00000000 00000080 0001 80002950  x5=80002950                             # auipc   t0, 0x0
00000000 00000078 0008 80002948  x2:0011df70 x5:00000040 x2=0011df30     # sub     sp, sp, t0
00000000 00000075 0002 8000293c  x13:0011ff70 x6:00002400 x13=0011db70   # sub     a3, a3, t1
00000000 00000076 0000 80002920  x13:0011fff8 x5:00000088 x13=0011ff70   # sub     a3, a3, t0
00000000 00000095 0004 8000298c  x4:0011ef40 x29=0011ef40                # mv      t4, tp
00000000 00000103 0005 800029c0  x5:80002ec8 x5=80002ecc                 # addi    t0, t0, 4
00000000 00000103 0006 800029c0  x5:80002ec8 x5=80002ecc                 # addi    t0, t0, 4
00000000 00000081 0007 80002954  x5:80002950 x5=80002ec8                 # addi    t0, t0, 1400
00000000 00000101 0003 800029b8  x5:80002ec8 x6:80002ed8                 # bge     t0, t1, pc + 20
00000000 00000081 0001 80002954  x5:80002950 x5=80002ec8                 # addi    t0, t0, 1400
00000000 00000079 0008 8000294c  x13:0011db70 x6:00000048 x13=0011db28   # sub     a3, a3, t1
00000000 00000080 0008 80002950  x5=80002950                             # auipc   t0, 0x0
00000000 00000081 0008 80002954  x5:80002950 x5=80002ec8                 # addi    t0, t0, 1400
00000000 00000082 0008 80002958  x6=80002958                             # auipc   t1, 0x0
00000000 00000104 0005 800029c4  x29:0011eb38 x29=0011eb3c               # addi    t4, t4, 4
00000000 00000104 0006 800029c4  x29:0011e730 x29=0011e734               # addi    t4, t4, 4
00000000 00000082 0007 80002958  x6=80002958                             # auipc   t1, 0x0
00000000 00000102 0003 800029bc  x29:0011f348 WA:0011f348                # sw      zero, 0(t4)
00000000 00000082 0001 80002958  x6=80002958                             # auipc   t1, 0x0
00000000 00000083 0001 8000295c  x6:80002958 x6=80002ec8                 # addi    t1, t1, 1392
00000000 00000084 0001 80002960  x7=80002960                             # auipc   t2, 0x0
00000000 00000085 0001 80002964  x7:80002960 x7=80002ec8                 # addi    t2, t2, 1384
00000000 00000083 0008 8000295c  x6:80002958 x6=80002ec8                 # addi    t1, t1, 1392
00000000 00000105 0005 800029c8  x5:80002ecc x7:80002ec8                 # blt     t0, t2, pc - 12
00000000 00000105 0006 800029c8  x5:80002ecc x7:80002ec8                 # blt     t0, t2, pc - 12
00000000 00000083 0007 8000295c  x6:80002958 x6=80002ec8                 # addi    t1, t1, 1392
00000000 00000103 0003 800029c0  x5:80002ec8 x5=80002ecc                 # addi    t0, t0, 4
00000000 00000076 0002 80002940  x10:00000002 x5=00000010                # slli    t0, a0, 3
00000000 00000077 0000 80002924  x13:0011ff70 x15=0011ff70               # mv      a5, a3
00000000 00000077 0002 80002944  x11:00000009 x6=00000048                # slli    t1, a1, 3
00000000 00000078 0000 80002928  x7=80002928                             # auipc   t2, 0x0
00000000 00000086 0001 80002968  x28=80002968                            # auipc   t3, 0x0
00000000 00000106 0005 800029cc  x2:0011eb38 x2=0011eb24                 # addi    sp, sp, -20
00000000 00000106 0006 800029cc  x2:0011e730 x2=0011e71c                 # addi    sp, sp, -20
00000000 00000084 0007 80002960  x7=80002960                             # auipc   t2, 0x0
00000000 00000104 0003 800029c4  x29:0011f348 x29=0011f34c               # addi    t4, t4, 4
00000000 00000096 0004 80002990  x5:80002ec8 x6:80002ec8                 # bge     t0, t1, pc + 24
00000000 00000078 0002 80002948  x2:0011f770 x5:00000010 x2=0011f760     # sub     sp, sp, t0
00000000 00000079 0000 8000292c  x7:80002928 RA:80002c9c x7=0000000a     # lw      t2, 884(t2)
00000000 00000084 0008 80002960  x7=80002960                             # auipc   t2, 0x0
00000000 00000087 0001 8000296c  x28:80002968 x28=80002ed8               # addi    t3, t3, 1392
00000000 00000107 0005 800029d0  x2:0011eb24 x10:00000005 WA:0011eb24    # sw      a0, 0(sp)
00000000 00000107 0006 800029d0  x2:0011e71c x10:00000006 WA:0011e71c    # sw      a0, 0(sp)
00000000 00000085 0007 80002964  x7:80002960 x7=80002ec8                 # addi    t2, t2, 1384
00000000 00000105 0003 800029c8  x5:80002ecc x7:80002ec8                 # blt     t0, t2, pc - 12
00000000 00000097 0004 800029a8  x5=800029a8                             # auipc   t0, 0x0
00000000 00000079 0002 8000294c  x13:0011db70 x6:00000048 x13=0011db28   # sub     a3, a3, t1
00000000 00000080 0000 80002930  x10:00000000 x7:0000000a x5=00000000    # sll     t0, a0, t2
00000000 00000085 0008 80002964  x7:80002960 x7=80002ec8                 # addi    t2, t2, 1384
00000000 00000088 0001 80002970  x2:0011fb68 x5:80002ec8 x2=80122a30     # add     sp, sp, t0
00000000 00000089 0001 80002974  x2:80122a30 x6:80002ec8 x2=0011fb68     # sub     sp, sp, t1
00000000 00000090 0001 80002978  x2:0011fb68 x7:80002ec8 x2=80122a30     # add     sp, sp, t2
00000000 00000091 0001 8000297c  x2:80122a30 x28:80002ed8 x2=0011fb58    # sub     sp, sp, t3
00000000 00000092 0001 80002980  x2:0011fb58 x2=0011fb58                 # andi    sp, sp, -8
00000000 00000098 0004 800029ac  x5:800029a8 x5=80002ec8                 # addi    t0, t0, 1312
00000000 00000080 0002 80002950  x5=80002950                             # auipc   t0, 0x0
00000000 00000081 0000 80002934  x11:00000009 x7:0000000a x6=00002400    # sll     t1, a1, t2
00000000 00000086 0008 80002968  x28=80002968                            # auipc   t3, 0x0
00000000 00000087 0008 8000296c  x28:80002968 x28=80002ed8               # addi    t3, t3, 1392
00000000 00000088 0008 80002970  x2:0011df30 x5:80002ec8 x2=80120df8     # add     sp, sp, t0
00000000 00000089 0008 80002974  x2:80120df8 x6:80002ec8 x2=0011df30     # sub     sp, sp, t1
00000000 00000090 0008 80002978  x2:0011df30 x7:80002ec8 x2=80120df8     # add     sp, sp, t2
00000000 00000093 0001 80002984  x2:0011fb58 x4=0011fb58                 # mv      tp, sp
00000000 00000099 0004 800029b0  x6=800029b0                             # auipc   t1, 0x0
00000000 00000100 0004 800029b4  x6:800029b0 x6=80002ed8                 # addi    t1, t1, 1320
00000000 00000101 0004 800029b8  x5:80002ec8 x6:80002ed8                 # bge     t0, t1, pc + 20
00000000 00000102 0004 800029bc  x29:0011ef40 WA:0011ef40                # sw      zero, 0(t4)
00000000 00000103 0004 800029c0  x5:80002ec8 x5=80002ecc                 # addi    t0, t0, 4
00000000 00000104 0004 800029c4  x29:0011ef40 x29=0011ef44               # addi    t4, t4, 4
00000000 00000105 0004 800029c8  x5:80002ecc x7:80002ec8                 # blt     t0, t2, pc - 12
00000000 00000106 0004 800029cc  x2:0011ef40 x2=0011ef2c                 # addi    sp, sp, -20
00000000 00000094 0001 80002988  x2:0011fb58 x2=0011fb58                 # andi    sp, sp, -8
00000000 00000081 0002 80002954  x5:80002950 x5=80002ec8                 # addi    t0, t0, 1400
00000000 00000082 0000 80002938  x13:0011ff70 x5:00000000 x2=0011ff70    # sub     sp, a3, t0
00000000 00000108 0005 800029d4  x2:0011eb24 x11:00000009 WA:0011eb28    # sw      a1, 4(sp)
00000000 00000108 0006 800029d4  x2:0011e71c x11:00000009 WA:0011e720    # sw      a1, 4(sp)
00000000 00000086 0007 80002968  x28=80002968                            # auipc   t3, 0x0
00000000 00000106 0003 800029cc  x2:0011f348 x2=0011f334                 # addi    sp, sp, -20
00000000 00000091 0008 8000297c  x2:80120df8 x28:80002ed8 x2=0011df20    # sub     sp, sp, t3
00000000 00000107 0004 800029d0  x2:0011ef2c x10:00000004 WA:0011ef2c    # sw      a0, 0(sp)
00000000 00000095 0001 8000298c  x4:0011fb58 x29=0011fb58                # mv      t4, tp
00000000 00000082 0002 80002958  x6=80002958                             # auipc   t1, 0x0
00000000 00000083 0000 8000293c  x13:0011ff70 x6:00002400 x13=0011db70   # sub     a3, a3, t1
00000000 00000109 0005 800029d8  x2:0011eb24 x12:00100000 WA:0011eb2c    # sw      a2, 8(sp)
00000000 00000109 0006 800029d8  x2:0011e71c x12:00100000 WA:0011e724    # sw      a2, 8(sp)
00000000 00000087 0007 8000296c  x28:80002968 x28=80002ed8               # addi    t3, t3, 1392
00000000 00000107 0003 800029d0  x2:0011f334 x10:00000003 WA:0011f334    # sw      a0, 0(sp)
00000000 00000092 0008 80002980  x2:0011df20 x2=0011df20                 # andi    sp, sp, -8
00000000 00000108 0004 800029d4  x2:0011ef2c x11:00000009 WA:0011ef30    # sw      a1, 4(sp)
00000000 00000096 0001 80002990  x5:80002ec8 x6:80002ec8                 # bge     t0, t1, pc + 24
00000000 00000083 0002 8000295c  x6:80002958 x6=80002ec8                 # addi    t1, t1, 1392
00000000 00000084 0000 80002940  x10:00000000 x5=00000000                # slli    t0, a0, 3
00000000 00000110 0005 800029dc  x2:0011eb24 x13:0011db28 WA:0011eb30    # sw      a3, 12(sp)
00000000 00000085 0000 80002944  x11:00000009 x6=00000048                # slli    t1, a1, 3
00000000 00000110 0006 800029dc  x2:0011e71c x13:0011db28 WA:0011e728    # sw      a3, 12(sp)
00000000 00000111 0005 800029e0  x2:0011eb24 x14:01000000 WA:0011eb34    # sw      a4, 16(sp)
00000000 00000088 0007 80002970  x2:0011e338 x5:80002ec8 x2=80121200     # add     sp, sp, t0
00000000 00000093 0008 80002984  x2:0011df20 x4=0011df20                 # mv      tp, sp
00000000 00000109 0004 800029d8  x2:0011ef2c x12:00100000 WA:0011ef34    # sw      a2, 8(sp)
00000000 00000097 0001 800029a8  x5=800029a8                             # auipc   t0, 0x0
00000000 00000084 0002 80002960  x7=80002960                             # auipc   t2, 0x0
00000000 00000086 0000 80002948  x2:0011ff70 x5:00000000 x2=0011ff70     # sub     sp, sp, t0
00000000 00000112 0005 800029e4  x1=800029e4                             # auipc   ra, 0x0
00000000 00000108 0003 800029d4  x2:0011f334 x11:00000009 WA:0011f338    # sw      a1, 4(sp)
00000000 00000109 0003 800029d8  x2:0011f334 x12:00100000 WA:0011f33c    # sw      a2, 8(sp)
00000000 00000111 0006 800029e0  x2:0011e71c x14:01000000 WA:0011e72c    # sw      a4, 16(sp)
00000000 00000089 0007 80002974  x2:80121200 x6:80002ec8 x2=0011e338     # sub     sp, sp, t1
00000000 00000094 0008 80002988  x2:0011df20 x2=0011df20                 # andi    sp, sp, -8
00000000 00000110 0004 800029dc  x2:0011ef2c x13:0011db28 WA:0011ef38    # sw      a3, 12(sp)
00000000 00000098 0001 800029ac  x5:800029a8 x5=80002ec8                 # addi    t0, t0, 1312
00000000 00000111 0004 800029e0  x2:0011ef2c x14:01000000 WA:0011ef3c    # sw      a4, 16(sp)
00000000 00000099 0001 800029b0  x6=800029b0                             # auipc   t1, 0x0
00000000 00000087 0000 8000294c  x13:0011db70 x6:00000048 x13=0011db28   # sub     a3, a3, t1
00000000 00000113 0005 800029e8  x1:800029e4 x1=800029ec                 # jalr    ra, ra, -808
00000000 00000110 0003 800029dc  x2:0011f334 x13:0011db28 WA:0011f340    # sw      a3, 12(sp)
00000000 00000114 0005 800026bc  x15:0011ff70 x15:0011ff70 WA:0011ff70   # sw      a5, 0(a5)
00000000 00000112 0006 800029e4  x1=800029e4                             # auipc   ra, 0x0
00000000 00000090 0007 80002978  x2:0011e338 x7:80002ec8 x2=80121200     # add     sp, sp, t2
00000000 00000095 0008 8000298c  x4:0011df20 x29=0011df20                # mv      t4, tp
00000000 00000085 0002 80002964  x7:80002960 x7=80002ec8                 # addi    t2, t2, 1384
00000000 00000112 0004 800029e4  x1=800029e4                             # auipc   ra, 0x0
00000000 00000100 0001 800029b4  x6:800029b0 x6=80002ed8                 # addi    t1, t1, 1320
00000000 00000088 0000 80002950  x5=80002950                             # auipc   t0, 0x0
00000000 00000089 0000 80002954  x5:80002950 x5=80002ec8                 # addi    t0, t0, 1400
00000000 00000090 0000 80002958  x6=80002958                             # auipc   t1, 0x0
00000000 00000113 0006 800029e8  x1:800029e4 x1=800029ec                 # jalr    ra, ra, -808
00000000 00000091 0007 8000297c  x2:80121200 x28:80002ed8 x2=0011e328    # sub     sp, sp, t3
00000000 00000096 0008 80002990  x5:80002ec8 x6:80002ec8                 # bge     t0, t1, pc + 24
00000000 00000086 0002 80002968  x28=80002968                            # auipc   t3, 0x0
00000000 00000113 0004 800029e8  x1:800029e4 x1=800029ec                 # jalr    ra, ra, -808
00000000 00000101 0001 800029b8  x5:80002ec8 x6:80002ed8                 # bge     t0, t1, pc + 20
00000000 00000114 0004 800026bc  x15:0011ff70 x15:0011ff70 WA:0011ff70   # sw      a5, 0(a5)
00000000 00000115 0005 800026c0  x15:0011ff70 x14:01000000 WA:0011ff74   # sw      a4, 4(a5)
00000000 00000111 0003 800029e0  x2:0011f334 x14:01000000 WA:0011f344    # sw      a4, 16(sp)
00000000 00000091 0000 8000295c  x6:80002958 x6=80002ec8                 # addi    t1, t1, 1392
00000000 00000114 0006 800026bc  x15:0011ff70 x15:0011ff70 WA:0011ff70   # sw      a5, 0(a5)
00000000 00000092 0007 80002980  x2:0011e328 x2=0011e328                 # andi    sp, sp, -8
00000000 00000097 0008 800029a8  x5=800029a8                             # auipc   t0, 0x0
00000000 00000087 0002 8000296c  x28:80002968 x28=80002ed8               # addi    t3, t3, 1392
00000000 00000102 0001 800029bc  x29:0011fb58 WA:0011fb58                # sw      zero, 0(t4)
00000000 00000115 0004 800026c0  x15:0011ff70 x14:01000000 WA:0011ff74   # sw      a4, 4(a5)
00000000 00000116 0005 800026c4  x14:01000000 RA:01000008 x6=00000000    # lw      t1, 8(a4)
00000000 00000112 0003 800029e4  x1=800029e4                             # auipc   ra, 0x0
00000000 00000092 0000 80002960  x7=80002960                             # auipc   t2, 0x0
00000000 00000115 0006 800026c0  x15:0011ff70 x14:01000000 WA:0011ff74   # sw      a4, 4(a5)
00000000 00000093 0007 80002984  x2:0011e328 x4=0011e328                 # mv      tp, sp
00000000 00000098 0008 800029ac  x5:800029a8 x5=80002ec8                 # addi    t0, t0, 1312
00000000 00000088 0002 80002970  x2:0011f760 x5:80002ec8 x2=80122628     # add     sp, sp, t0
00000000 00000103 0001 800029c0  x5:80002ec8 x5=80002ecc                 # addi    t0, t0, 4
00000000 00000116 0004 800026c4  x14:01000000 RA:01000008 x6=00000000    # lw      t1, 8(a4)
00000000 00000117 0005 800026c8  x15:0011ff70 x6:00000000 WA:0011ff78    # sw      t1, 8(a5)
00000000 00000113 0003 800029e8  x1:800029e4 x1=800029ec                 # jalr    ra, ra, -808
00000000 00000118 0005 800026cc  x14:01000000 RA:01000028 x16=00000001   # lw      a6, 40(a4)
00000000 00000114 0003 800026bc  x15:0011ff70 x15:0011ff70 WA:0011ff70   # sw      a5, 0(a5)
00000000 00000119 0005 800026d0  x14:01000000 RA:0100002c x17=00000001   # lw      a7, 44(a4)
00000000 00000094 0007 80002988  x2:0011e328 x2=0011e328                 # andi    sp, sp, -8
00000000 00000089 0002 80002974  x2:80122628 x6:80002ec8 x2=0011f760     # sub     sp, sp, t1
00000000 00000104 0001 800029c4  x29:0011fb58 x29=0011fb5c               # addi    t4, t4, 4
00000000 00000117 0004 800026c8  x15:0011ff70 x6:00000000 WA:0011ff78    # sw      t1, 8(a5)
00000000 00000093 0000 80002964  x7:80002960 x7=80002ec8                 # addi    t2, t2, 1384
00000000 00000118 0004 800026cc  x14:01000000 RA:01000028 x16=00000001   # lw      a6, 40(a4)
00000000 00000116 0006 800026c4  x14:01000000 RA:01000008 x6=00000000    # lw      t1, 8(a4)
00000000 00000115 0003 800026c0  x15:0011ff70 x14:01000000 WA:0011ff74   # sw      a4, 4(a5)
00000000 00000099 0008 800029b0  x6=800029b0                             # auipc   t1, 0x0
00000000 00000120 0005 800026d4  x14:01000000 RA:01000004 x5=00000009    # lw      t0, 4(a4)
00000000 00000095 0007 8000298c  x4:0011e328 x29=0011e328                # mv      t4, tp
00000000 00000090 0002 80002978  x2:0011f760 x7:80002ec8 x2=80122628     # add     sp, sp, t2
00000000 00000105 0001 800029c8  x5:80002ecc x7:80002ec8                 # blt     t0, t2, pc - 12
00000000 00000094 0000 80002968  x28=80002968                            # auipc   t3, 0x0
00000000 00000119 0004 800026d0  x14:01000000 RA:0100002c x17=00000001   # lw      a7, 44(a4)
00000000 00000117 0006 800026c8  x15:0011ff70 x6:00000000 WA:0011ff78    # sw      t1, 8(a5)
00000000 00000116 0003 800026c4  x14:01000000 RA:01000008 x6=00000000    # lw      t1, 8(a4)
00000000 00000118 0006 800026cc  x14:01000000 RA:01000028 x16=00000001   # lw      a6, 40(a4)
00000000 00000117 0003 800026c8  x15:0011ff70 x6:00000000 WA:0011ff78    # sw      t1, 8(a5)
00000000 00000096 0007 80002990  x5:80002ec8 x6:80002ec8                 # bge     t0, t1, pc + 24
00000000 00000118 0003 800026cc  x14:01000000 RA:01000028 x16=00000001   # lw      a6, 40(a4)
00000000 00000091 0002 8000297c  x2:80122628 x28:80002ed8 x2=0011f750    # sub     sp, sp, t3
00000000 00000119 0003 800026d0  x14:01000000 RA:0100002c x17=00000001   # lw      a7, 44(a4)
00000000 00000095 0000 8000296c  x28:80002968 x28=80002ed8               # addi    t3, t3, 1392
00000000 00000096 0000 80002970  x2:0011ff70 x5:80002ec8 x2=80122e38     # add     sp, sp, t0
00000000 00000097 0000 80002974  x2:80122e38 x6:80002ec8 x2=0011ff70     # sub     sp, sp, t1
00000000 00000098 0000 80002978  x2:0011ff70 x7:80002ec8 x2=80122e38     # add     sp, sp, t2
00000000 00000099 0000 8000297c  x2:80122e38 x28:80002ed8 x2=0011ff60    # sub     sp, sp, t3
00000000 00000100 0000 80002980  x2:0011ff60 x2=0011ff60                 # andi    sp, sp, -8
00000000 00000092 0002 80002980  x2:0011f750 x2=0011f750                 # andi    sp, sp, -8
00000000 00000120 0004 800026d4  x14:01000000 RA:01000004 x5=00000009    # lw      t0, 4(a4)
00000000 00000120 0003 800026d4  x14:01000000 RA:01000004 x5=00000009    # lw      t0, 4(a4)
00000000 00000100 0008 800029b4  x6:800029b0 x6=80002ed8                 # addi    t1, t1, 1320
00000000 00000121 0005 800026d8  x17:00000001 x16:00000001 x16=00000001  # mul     a6, a7, a6
00000000 00000119 0006 800026d0  x14:01000000 RA:0100002c x17=00000001   # lw      a7, 44(a4)
00000000 00000097 0007 800029a8  x5=800029a8                             # auipc   t0, 0x0
00000000 00000106 0001 800029cc  x2:0011fb58 x2=0011fb44                 # addi    sp, sp, -20
00000000 00000101 0000 80002984  x2:0011ff60 x4=0011ff60                 # mv      tp, sp
00000000 00000093 0002 80002984  x2:0011f750 x4=0011f750                 # mv      tp, sp
00000000 00000121 0004 800026d8  x17:00000001 x16:00000001 x16=00000001  # mul     a6, a7, a6
00000000 00000121 0003 800026d8  x17:00000001 x16:00000001 x16=00000001  # mul     a6, a7, a6
00000000 00000101 0008 800029b8  x5:80002ec8 x6:80002ed8                 # bge     t0, t1, pc + 20
00000000 00000122 0005 800026dc  x16:00000001 x5:00000009 x10=00000009   # mul     a0, a6, t0
00000000 00000120 0006 800026d4  x14:01000000 RA:01000004 x5=00000009    # lw      t0, 4(a4)
00000000 00000098 0007 800029ac  x5:800029a8 x5=80002ec8                 # addi    t0, t0, 1312
00000000 00000123 0005 800026e0  x15:0011ff70 x10:00000009 WA:0011ff7c   # sw      a0, 12(a5)
00000000 00000107 0001 800029d0  x2:0011fb44 x10:00000001 WA:0011fb44    # sw      a0, 0(sp)
00000000 00000102 0000 80002988  x2:0011ff60 x2=0011ff60                 # andi    sp, sp, -8
00000000 00000094 0002 80002988  x2:0011f750 x2=0011f750                 # andi    sp, sp, -8
00000000 00000122 0004 800026dc  x16:00000001 x5:00000009 x10=00000009   # mul     a0, a6, t0
00000000 00000122 0003 800026dc  x16:00000001 x5:00000009 x10=00000009   # mul     a0, a6, t0
00000000 00000102 0008 800029bc  x29:0011df20 WA:0011df20                # sw      zero, 0(t4)
00000000 00000121 0006 800026d8  x17:00000001 x16:00000001 x16=00000001  # mul     a6, a7, a6
00000000 00000099 0007 800029b0  x6=800029b0                             # auipc   t1, 0x0
00000000 00000124 0005 800026e4  x17=00000005                            # csrr    a7, mhartid
00000000 00000108 0001 800029d4  x2:0011fb44 x11:00000009 WA:0011fb48    # sw      a1, 4(sp)
00000000 00000103 0000 8000298c  x4:0011ff60 x29=0011ff60                # mv      t4, tp
00000000 00000095 0002 8000298c  x4:0011f750 x29=0011f750                # mv      t4, tp
00000000 00000123 0004 800026e0  x15:0011ff70 x10:00000009 WA:0011ff7c   # sw      a0, 12(a5)
00000000 00000123 0003 800026e0  x15:0011ff70 x10:00000009 WA:0011ff7c   # sw      a0, 12(a5)
00000000 00000103 0008 800029c0  x5:80002ec8 x5=80002ecc                 # addi    t0, t0, 4
00000000 00000122 0006 800026dc  x16:00000001 x5:00000009 x10=00000009   # mul     a0, a6, t0
00000000 00000100 0007 800029b4  x6:800029b0 x6=80002ed8                 # addi    t1, t1, 1320
00000000 00000125 0005 800026e8  x17:00000005 x6:00000000 x10=00000005   # sub     a0, a7, t1
00000000 00000109 0001 800029d8  x2:0011fb44 x12:00100000 WA:0011fb4c    # sw      a2, 8(sp)
00000000 00000104 0000 80002990  x5:80002ec8 x6:80002ec8                 # bge     t0, t1, pc + 24
00000000 00000096 0002 80002990  x5:80002ec8 x6:80002ec8                 # bge     t0, t1, pc + 24
00000000 00000124 0004 800026e4  x17=00000004                            # csrr    a7, mhartid
00000000 00000124 0003 800026e4  x17=00000003                            # csrr    a7, mhartid
00000000 00000104 0008 800029c4  x29:0011df20 x29=0011df24               # addi    t4, t4, 4
00000000 00000123 0006 800026e0  x15:0011ff70 x10:00000009 WA:0011ff7c   # sw      a0, 12(a5)
00000000 00000101 0007 800029b8  x5:80002ec8 x6:80002ed8                 # bge     t0, t1, pc + 20
00000000 00000126 0005 800026ec  x10:00000005 x5:00000009 x10=00000000   # divu    a0, a0, t0
00000000 00000110 0001 800029dc  x2:0011fb44 x13:0011db28 WA:0011fb50    # sw      a3, 12(sp)
00000000 00000105 0000 800029a8  x5=800029a8                             # auipc   t0, 0x0
00000000 00000106 0000 800029ac  x5:800029a8 x5=80002ec8                 # addi    t0, t0, 1312
00000000 00000125 0004 800026e8  x17:00000004 x6:00000000 x10=00000004   # sub     a0, a7, t1
00000000 00000125 0003 800026e8  x17:00000003 x6:00000000 x10=00000003   # sub     a0, a7, t1
00000000 00000105 0008 800029c8  x5:80002ecc x7:80002ec8                 # blt     t0, t2, pc - 12
00000000 00000124 0006 800026e4  x17=00000006                            # csrr    a7, mhartid
00000000 00000102 0007 800029bc  x29:0011e328 WA:0011e328                # sw      zero, 0(t4)
00000000 00000127 0005 800026f0  x15:0011ff70 x10:00000000 WA:0011ff80   # sw      a0, 16(a5)
00000000 00000097 0002 800029a8  x5=800029a8                             # auipc   t0, 0x0
00000000 00000111 0001 800029e0  x2:0011fb44 x14:01000000 WA:0011fb54    # sw      a4, 16(sp)
00000000 00000107 0000 800029b0  x6=800029b0                             # auipc   t1, 0x0
00000000 00000126 0004 800026ec  x10:00000004 x5:00000009 x10=00000000   # divu    a0, a0, t0
00000000 00000126 0003 800026ec  x10:00000003 x5:00000009 x10=00000000   # divu    a0, a0, t0
00000000 00000106 0008 800029cc  x2:0011df20 x2=0011df0c                 # addi    sp, sp, -20
00000000 00000125 0006 800026e8  x17:00000006 x6:00000000 x10=00000006   # sub     a0, a7, t1
00000000 00000103 0007 800029c0  x5:80002ec8 x5=80002ecc                 # addi    t0, t0, 4
00000000 00000104 0007 800029c4  x29:0011e328 x29=0011e32c               # addi    t4, t4, 4
00000000 00000105 0007 800029c8  x5:80002ecc x7:80002ec8                 # blt     t0, t2, pc - 12
00000000 00000106 0007 800029cc  x2:0011e328 x2=0011e314                 # addi    sp, sp, -20
00000000 00000108 0000 800029b4  x6:800029b0 x6=80002ed8                 # addi    t1, t1, 1320
00000000 00000127 0004 800026f0  x15:0011ff70 x10:00000000 WA:0011ff80   # sw      a0, 16(a5)
00000000 00000127 0003 800026f0  x15:0011ff70 x10:00000000 WA:0011ff80   # sw      a0, 16(a5)
00000000 00000107 0008 800029d0  x2:0011df0c x10:00000008 WA:0011df0c    # sw      a0, 0(sp)
00000000 00000126 0006 800026ec  x10:00000006 x5:00000009 x10=00000000   # divu    a0, a0, t0
00000000 00000128 0005 800026f4  x15:0011ff70 x16:00000001 WA:0011ff84   # sw      a6, 20(a5)
00000000 00000098 0002 800029ac  x5:800029a8 x5=80002ec8                 # addi    t0, t0, 1312
00000000 00000112 0001 800029e4  x1=800029e4                             # auipc   ra, 0x0
00000000 00000107 0007 800029d0  x2:0011e314 x10:00000007 WA:0011e314    # sw      a0, 0(sp)
00000000 00000109 0000 800029b8  x5:80002ec8 x6:80002ed8                 # bge     t0, t1, pc + 20
00000000 00000128 0004 800026f4  x15:0011ff70 x16:00000001 WA:0011ff84   # sw      a6, 20(a5)
00000000 00000128 0003 800026f4  x15:0011ff70 x16:00000001 WA:0011ff84   # sw      a6, 20(a5)
00000000 00000108 0008 800029d4  x2:0011df0c x11:00000009 WA:0011df10    # sw      a1, 4(sp)
00000000 00000127 0006 800026f0  x15:0011ff70 x10:00000000 WA:0011ff80   # sw      a0, 16(a5)
00000000 00000129 0005 800026f8  x15:0011ff70 x6:00000000 WA:0011ff88    # sw      t1, 24(a5)
00000000 00000099 0002 800029b0  x6=800029b0                             # auipc   t1, 0x0
00000000 00000113 0001 800029e8  x1:800029e4 x1=800029ec                 # jalr    ra, ra, -808
00000000 00000108 0007 800029d4  x2:0011e314 x11:00000009 WA:0011e318    # sw      a1, 4(sp)
00000000 00000110 0000 800029bc  x29:0011ff60 WA:0011ff60                # sw      zero, 0(t4)
00000000 00000129 0004 800026f8  x15:0011ff70 x6:00000000 WA:0011ff88    # sw      t1, 24(a5)
00000000 00000129 0003 800026f8  x15:0011ff70 x6:00000000 WA:0011ff88    # sw      t1, 24(a5)
00000000 00000109 0008 800029d8  x2:0011df0c x12:00100000 WA:0011df14    # sw      a2, 8(sp)
00000000 00000128 0006 800026f4  x15:0011ff70 x16:00000001 WA:0011ff84   # sw      a6, 20(a5)
00000000 00000130 0005 800026fc  x15:0011ff70 x11:00000009 WA:0011ff8c   # sw      a1, 28(a5)
00000000 00000100 0002 800029b4  x6:800029b0 x6=80002ed8                 # addi    t1, t1, 1320
00000000 00000114 0001 800026bc  x15:0011ff70 x15:0011ff70 WA:0011ff70   # sw      a5, 0(a5)
00000000 00000109 0007 800029d8  x2:0011e314 x12:00100000 WA:0011e31c    # sw      a2, 8(sp)
00000000 00000111 0000 800029c0  x5:80002ec8 x5=80002ecc                 # addi    t0, t0, 4
00000000 00000130 0004 800026fc  x15:0011ff70 x11:00000009 WA:0011ff8c   # sw      a1, 28(a5)
00000000 00000130 0003 800026fc  x15:0011ff70 x11:00000009 WA:0011ff8c   # sw      a1, 28(a5)
00000000 00000110 0008 800029dc  x2:0011df0c x13:0011db28 WA:0011df18    # sw      a3, 12(sp)
00000000 00000129 0006 800026f8  x15:0011ff70 x6:00000000 WA:0011ff88    # sw      t1, 24(a5)
00000000 00000131 0005 80002700  x14:01000000 RA:01000018 x10=80000000   # lw      a0, 24(a4)
00000000 00000132 0005 80002704  x11=10000000                            # lui     a1, 0x10000
00000000 00000115 0001 800026c0  x15:0011ff70 x14:01000000 WA:0011ff74   # sw      a4, 4(a5)
00000000 00000110 0007 800029dc  x2:0011e314 x13:0011db28 WA:0011e320    # sw      a3, 12(sp)
00000000 00000112 0000 800029c4  x29:0011ff60 x29=0011ff64               # addi    t4, t4, 4
00000000 00000131 0004 80002700  x14:01000000 RA:01000018 x10=80000000   # lw      a0, 24(a4)
00000000 00000131 0003 80002700  x14:01000000 RA:01000018 x10=80000000   # lw      a0, 24(a4)
00000000 00000111 0008 800029e0  x2:0011df0c x14:01000000 WA:0011df1c    # sw      a4, 16(sp)
00000000 00000130 0006 800026fc  x15:0011ff70 x11:00000009 WA:0011ff8c   # sw      a1, 28(a5)
00000000 00000101 0002 800029b8  x5:80002ec8 x6:80002ed8                 # bge     t0, t1, pc + 20
00000000 00000133 0005 80002708  x10:80000000 x11:10000000 x10=90000000  # add     a0, a0, a1
00000000 00000116 0001 800026c4  x14:01000000 RA:01000008 x6=00000000    # lw      t1, 8(a4)
00000000 00000111 0007 800029e0  x2:0011e314 x14:01000000 WA:0011e324    # sw      a4, 16(sp)
00000000 00000113 0000 800029c8  x5:80002ecc x7:80002ec8                 # blt     t0, t2, pc - 12
00000000 00000132 0004 80002704  x11=10000000                            # lui     a1, 0x10000
00000000 00000132 0003 80002704  x11=10000000                            # lui     a1, 0x10000
00000000 00000112 0008 800029e4  x1=800029e4                             # auipc   ra, 0x0
00000000 00000131 0006 80002700  x14:01000000 RA:01000018 x10=80000000   # lw      a0, 24(a4)
00000000 00000132 0006 80002704  x11=10000000                            # lui     a1, 0x10000
00000000 00000133 0006 80002708  x10:80000000 x11:10000000 x10=90000000  # add     a0, a0, a1
00000000 00000102 0002 800029bc  x29:0011f750 WA:0011f750                # sw      zero, 0(t4)
00000000 00000134 0005 8000270c  x15:0011ff70 WA:0011ff94                # sw      zero, 36(a5)
00000000 00000117 0001 800026c8  x15:0011ff70 x6:00000000 WA:0011ff78    # sw      t1, 8(a5)
00000000 00000112 0007 800029e4  x1=800029e4                             # auipc   ra, 0x0
00000000 00000118 0001 800026cc  x14:01000000 RA:01000028 x16=00000001   # lw      a6, 40(a4)
00000000 00000114 0000 800029cc  x2:0011ff60 x2=0011ff4c                 # addi    sp, sp, -20
00000000 00000133 0004 80002708  x10:80000000 x11:10000000 x10=90000000  # add     a0, a0, a1
00000000 00000133 0003 80002708  x10:80000000 x11:10000000 x10=90000000  # add     a0, a0, a1
00000000 00000113 0008 800029e8  x1:800029e4 x1=800029ec                 # jalr    ra, ra, -808
00000000 00000134 0006 8000270c  x15:0011ff70 WA:0011ff94                # sw      zero, 36(a5)
00000000 00000103 0002 800029c0  x5:80002ec8 x5=80002ecc                 # addi    t0, t0, 4
00000000 00000135 0005 80002710  x15:0011ff70 x10:90000000 WA:0011ff90   # sw      a0, 32(a5)
00000000 00000113 0007 800029e8  x1:800029e4 x1=800029ec                 # jalr    ra, ra, -808
00000000 00000119 0001 800026d0  x14:01000000 RA:0100002c x17=00000001   # lw      a7, 44(a4)
00000000 00000115 0000 800029d0  x2:0011ff4c x10:00000000 WA:0011ff4c    # sw      a0, 0(sp)
00000000 00000134 0004 8000270c  x15:0011ff70 WA:0011ff94                # sw      zero, 36(a5)
00000000 00000134 0003 8000270c  x15:0011ff70 WA:0011ff94                # sw      zero, 36(a5)
00000000 00000114 0008 800026bc  x15:0011ff70 x15:0011ff70 WA:0011ff70   # sw      a5, 0(a5)
00000000 00000135 0006 80002710  x15:0011ff70 x10:90000000 WA:0011ff90   # sw      a0, 32(a5)
00000000 00000104 0002 800029c4  x29:0011f750 x29=0011f754               # addi    t4, t4, 4
00000000 00000136 0005 80002714  x14:01000000 RA:01000020 x10=00000000   # lw      a0, 32(a4)
00000000 00000114 0007 800026bc  x15:0011ff70 x15:0011ff70 WA:0011ff70   # sw      a5, 0(a5)
00000000 00000120 0001 800026d4  x14:01000000 RA:01000004 x5=00000009    # lw      t0, 4(a4)
00000000 00000116 0000 800029d4  x2:0011ff4c x11:00000009 WA:0011ff50    # sw      a1, 4(sp)
00000000 00000135 0004 80002710  x15:0011ff70 x10:90000000 WA:0011ff90   # sw      a0, 32(a5)
00000000 00000135 0003 80002710  x15:0011ff70 x10:90000000 WA:0011ff90   # sw      a0, 32(a5)
00000000 00000115 0008 800026c0  x15:0011ff70 x14:01000000 WA:0011ff74   # sw      a4, 4(a5)
00000000 00000136 0006 80002714  x14:01000000 RA:01000020 x10=00000000   # lw      a0, 32(a4)
00000000 00000137 0006 80002718  x14:01000000 RA:01000024 x11=00000001   # lw      a1, 36(a4)
00000000 00000138 0006 8000271c  x15:0011ff70 x10:00000000 WA:0011ff98   # sw      a0, 40(a5)
00000000 00000115 0007 800026c0  x15:0011ff70 x14:01000000 WA:0011ff74   # sw      a4, 4(a5)
00000000 00000121 0001 800026d8  x17:00000001 x16:00000001 x16=00000001  # mul     a6, a7, a6
00000000 00000117 0000 800029d8  x2:0011ff4c x12:00100000 WA:0011ff54    # sw      a2, 8(sp)
00000000 00000136 0004 80002714  x14:01000000 RA:01000020 x10=00000000   # lw      a0, 32(a4)
00000000 00000136 0003 80002714  x14:01000000 RA:01000020 x10=00000000   # lw      a0, 32(a4)
00000000 00000116 0008 800026c4  x14:01000000 RA:01000008 x6=00000000    # lw      t1, 8(a4)
00000000 00000105 0002 800029c8  x5:80002ecc x7:80002ec8                 # blt     t0, t2, pc - 12
00000000 00000137 0005 80002718  x14:01000000 RA:01000024 x11=00000001   # lw      a1, 36(a4)
00000000 00000139 0006 80002720  x15:0011ff70 x11:00000001 WA:0011ff9c   # sw      a1, 44(a5)
00000000 00000116 0007 800026c4  x14:01000000 RA:01000008 x6=00000000    # lw      t1, 8(a4)
00000000 00000122 0001 800026dc  x16:00000001 x5:00000009 x10=00000009   # mul     a0, a6, t0
00000000 00000118 0000 800029dc  x2:0011ff4c x13:0011db28 WA:0011ff58    # sw      a3, 12(sp)
00000000 00000137 0004 80002718  x14:01000000 RA:01000024 x11=00000001   # lw      a1, 36(a4)
00000000 00000137 0003 80002718  x14:01000000 RA:01000024 x11=00000001   # lw      a1, 36(a4)
00000000 00000117 0008 800026c8  x15:0011ff70 x6:00000000 WA:0011ff78    # sw      t1, 8(a5)
00000000 00000118 0008 800026cc  x14:01000000 RA:01000028 x16=00000001   # lw      a6, 40(a4)
00000000 00000119 0008 800026d0  x14:01000000 RA:0100002c x17=00000001   # lw      a7, 44(a4)
00000000 00000120 0008 800026d4  x14:01000000 RA:01000004 x5=00000009    # lw      t0, 4(a4)
00000000 00000121 0008 800026d8  x17:00000001 x16:00000001 x16=00000001  # mul     a6, a7, a6
00000000 00000123 0001 800026e0  x15:0011ff70 x10:00000009 WA:0011ff7c   # sw      a0, 12(a5)
00000000 00000119 0000 800029e0  x2:0011ff4c x14:01000000 WA:0011ff5c    # sw      a4, 16(sp)
00000000 00000138 0004 8000271c  x15:0011ff70 x10:00000000 WA:0011ff98   # sw      a0, 40(a5)
00000000 00000138 0003 8000271c  x15:0011ff70 x10:00000000 WA:0011ff98   # sw      a0, 40(a5)
00000000 00000106 0002 800029cc  x2:0011f750 x2=0011f73c                 # addi    sp, sp, -20
00000000 00000138 0005 8000271c  x15:0011ff70 x10:00000000 WA:0011ff98   # sw      a0, 40(a5)
00000000 00000140 0006 80002724  x15:0011ff70 x12:00100000 WA:0011ffa0   # sw      a2, 48(a5)
00000000 00000117 0007 800026c8  x15:0011ff70 x6:00000000 WA:0011ff78    # sw      t1, 8(a5)
00000000 00000122 0008 800026dc  x16:00000001 x5:00000009 x10=00000009   # mul     a0, a6, t0
00000000 00000124 0001 800026e4  x17=00000001                            # csrr    a7, mhartid
00000000 00000120 0000 800029e4  x1=800029e4                             # auipc   ra, 0x0
00000000 00000139 0004 80002720  x15:0011ff70 x11:00000001 WA:0011ff9c   # sw      a1, 44(a5)
00000000 00000139 0003 80002720  x15:0011ff70 x11:00000001 WA:0011ff9c   # sw      a1, 44(a5)
00000000 00000140 0003 80002724  x15:0011ff70 x12:00100000 WA:0011ffa0   # sw      a2, 48(a5)
00000000 00000141 0003 80002728  x15:0011ff70 WA:0011ffa4                # sw      zero, 52(a5)
00000000 00000142 0003 8000272c  x15:0011ff70 x13:0011db28 WA:0011ffa8   # sw      a3, 56(a5)
00000000 00000143 0003 80002730  x15:0011ff70 WA:0011ffac                # sw      zero, 60(a5)
00000000 00000123 0008 800026e0  x15:0011ff70 x10:00000009 WA:0011ff7c   # sw      a0, 12(a5)
00000000 00000125 0001 800026e8  x17:00000001 x6:00000000 x10=00000001   # sub     a0, a7, t1
00000000 00000121 0000 800029e8  x1:800029e4 x1=800029ec                 # jalr    ra, ra, -808
00000000 00000140 0004 80002724  x15:0011ff70 x12:00100000 WA:0011ffa0   # sw      a2, 48(a5)
00000000 00000107 0002 800029d0  x2:0011f73c x10:00000002 WA:0011f73c    # sw      a0, 0(sp)
00000000 00000139 0005 80002720  x15:0011ff70 x11:00000001 WA:0011ff9c   # sw      a1, 44(a5)
00000000 00000141 0006 80002728  x15:0011ff70 WA:0011ffa4                # sw      zero, 52(a5)
00000000 00000118 0007 800026cc  x14:01000000 RA:01000028 x16=00000001   # lw      a6, 40(a4)
00000000 00000144 0003 80002734  x14:01000000 RA:01000010 x10=00020000   # lw      a0, 16(a4)
00000000 00000124 0008 800026e4  x17=00000008                            # csrr    a7, mhartid
00000000 00000126 0001 800026ec  x10:00000001 x5:00000009 x10=00000000   # divu    a0, a0, t0
00000000 00000122 0000 800026bc  x15:0011ff70 x15:0011ff70 WA:0011ff70   # sw      a5, 0(a5)
00000000 00000141 0004 80002728  x15:0011ff70 WA:0011ffa4                # sw      zero, 52(a5)
00000000 00000108 0002 800029d4  x2:0011f73c x11:00000009 WA:0011f740    # sw      a1, 4(sp)
00000000 00000140 0005 80002724  x15:0011ff70 x12:00100000 WA:0011ffa0   # sw      a2, 48(a5)
00000000 00000142 0006 8000272c  x15:0011ff70 x13:0011db28 WA:0011ffa8   # sw      a3, 56(a5)
00000000 00000119 0007 800026d0  x14:01000000 RA:0100002c x17=00000001   # lw      a7, 44(a4)
00000000 00000145 0003 80002738  x12:00100000 x10:00020000 x16=00120000  # add     a6, a2, a0
00000000 00000125 0008 800026e8  x17:00000008 x6:00000000 x10=00000008   # sub     a0, a7, t1
00000000 00000127 0001 800026f0  x15:0011ff70 x10:00000000 WA:0011ff80   # sw      a0, 16(a5)
00000000 00000123 0000 800026c0  x15:0011ff70 x14:01000000 WA:0011ff74   # sw      a4, 4(a5)
00000000 00000142 0004 8000272c  x15:0011ff70 x13:0011db28 WA:0011ffa8   # sw      a3, 56(a5)
00000000 00000109 0002 800029d8  x2:0011f73c x12:00100000 WA:0011f744    # sw      a2, 8(sp)
00000000 00000141 0005 80002728  x15:0011ff70 WA:0011ffa4                # sw      zero, 52(a5)
00000000 00000143 0006 80002730  x15:0011ff70 WA:0011ffac                # sw      zero, 60(a5)
00000000 00000120 0007 800026d4  x14:01000000 RA:01000004 x5=00000009    # lw      t0, 4(a4)
00000000 00000146 0003 8000273c  x16:00120000 x11=00120190               # addi    a1, a6, 400
00000000 00000126 0008 800026ec  x10:00000008 x5:00000009 x10=00000000   # divu    a0, a0, t0
00000000 00000128 0001 800026f4  x15:0011ff70 x16:00000001 WA:0011ff84   # sw      a6, 20(a5)
00000000 00000124 0000 800026c4  x14:01000000 RA:01000008 x6=00000000    # lw      t1, 8(a4)
00000000 00000143 0004 80002730  x15:0011ff70 WA:0011ffac                # sw      zero, 60(a5)
00000000 00000110 0002 800029dc  x2:0011f73c x13:0011db28 WA:0011f748    # sw      a3, 12(sp)
00000000 00000142 0005 8000272c  x15:0011ff70 x13:0011db28 WA:0011ffa8   # sw      a3, 56(a5)
00000000 00000111 0002 800029e0  x2:0011f73c x14:01000000 WA:0011f74c    # sw      a4, 16(sp)
00000000 00000143 0005 80002730  x15:0011ff70 WA:0011ffac                # sw      zero, 60(a5)
00000000 00000147 0003 80002740  x15:0011ff70 x11:00120190 WA:0011ffe0   # sw      a1, 112(a5)
00000000 00000127 0008 800026f0  x15:0011ff70 x10:00000000 WA:0011ff80   # sw      a0, 16(a5)
00000000 00000129 0001 800026f8  x15:0011ff70 x6:00000000 WA:0011ff88    # sw      t1, 24(a5)
00000000 00000125 0000 800026c8  x15:0011ff70 x6:00000000 WA:0011ff78    # sw      t1, 8(a5)
00000000 00000144 0004 80002734  x14:01000000 RA:01000010 x10=00020000   # lw      a0, 16(a4)
00000000 00000126 0000 800026cc  x14:01000000 RA:01000028 x16=00000001   # lw      a6, 40(a4)
00000000 00000145 0004 80002738  x12:00100000 x10:00020000 x16=00120000  # add     a6, a2, a0
00000000 00000127 0000 800026d0  x14:01000000 RA:0100002c x17=00000001   # lw      a7, 44(a4)
00000000 00000144 0005 80002734  x14:01000000 RA:01000010 x10=00020000   # lw      a0, 16(a4)
00000000 00000148 0003 80002744  x16:00120000 x10:00020000 x5=00000000   # sltu    t0, a6, a0
00000000 00000128 0008 800026f4  x15:0011ff70 x16:00000001 WA:0011ff84   # sw      a6, 20(a5)
00000000 00000130 0001 800026fc  x15:0011ff70 x11:00000009 WA:0011ff8c   # sw      a1, 28(a5)
00000000 00000144 0006 80002734  x14:01000000 RA:01000010 x10=00020000   # lw      a0, 16(a4)
00000000 00000145 0006 80002738  x12:00100000 x10:00020000 x16=00120000  # add     a6, a2, a0
00000000 00000146 0006 8000273c  x16:00120000 x11=00120190               # addi    a1, a6, 400
00000000 00000147 0006 80002740  x15:0011ff70 x11:00120190 WA:0011ffe0   # sw      a1, 112(a5)
00000000 00000128 0000 800026d4  x14:01000000 RA:01000004 x5=00000009    # lw      t0, 4(a4)
00000000 00000145 0005 80002738  x12:00100000 x10:00020000 x16=00120000  # add     a6, a2, a0
00000000 00000149 0003 80002748  x10:00020000 x11=00010000               # srli    a1, a0, 1
00000000 00000129 0008 800026f8  x15:0011ff70 x6:00000000 WA:0011ff88    # sw      t1, 24(a5)
00000000 00000131 0001 80002700  x14:01000000 RA:01000018 x10=80000000   # lw      a0, 24(a4)
00000000 00000132 0001 80002704  x11=10000000                            # lui     a1, 0x10000
00000000 00000146 0004 8000273c  x16:00120000 x11=00120190               # addi    a1, a6, 400
00000000 00000121 0007 800026d8  x17:00000001 x16:00000001 x16=00000001  # mul     a6, a7, a6
00000000 00000148 0006 80002744  x16:00120000 x10:00020000 x5=00000000   # sltu    t0, a6, a0
00000000 00000129 0000 800026d8  x17:00000001 x16:00000001 x16=00000001  # mul     a6, a7, a6
00000000 00000146 0005 8000273c  x16:00120000 x11=00120190               # addi    a1, a6, 400
00000000 00000150 0003 8000274c  x16:00120000 x11:00010000 x6=00130000   # add     t1, a6, a1
00000000 00000130 0008 800026fc  x15:0011ff70 x11:00000009 WA:0011ff8c   # sw      a1, 28(a5)
00000000 00000112 0002 800029e4  x1=800029e4                             # auipc   ra, 0x0
00000000 00000133 0001 80002708  x10:80000000 x11:10000000 x10=90000000  # add     a0, a0, a1
00000000 00000147 0004 80002740  x15:0011ff70 x11:00120190 WA:0011ffe0   # sw      a1, 112(a5)
00000000 00000122 0007 800026dc  x16:00000001 x5:00000009 x10=00000009   # mul     a0, a6, t0
00000000 00000149 0006 80002748  x10:00020000 x11=00010000               # srli    a1, a0, 1
00000000 00000130 0000 800026dc  x16:00000001 x5:00000009 x10=00000009   # mul     a0, a6, t0
00000000 00000147 0005 80002740  x15:0011ff70 x11:00120190 WA:0011ffe0   # sw      a1, 112(a5)
00000000 00000151 0003 80002750  x6:00130000 x16:00120000 x11=00000000   # sltu    a1, t1, a6
00000000 00000131 0008 80002700  x14:01000000 RA:01000018 x10=80000000   # lw      a0, 24(a4)
00000000 00000113 0002 800029e8  x1:800029e4 x1=800029ec                 # jalr    ra, ra, -808
00000000 00000134 0001 8000270c  x15:0011ff70 WA:0011ff94                # sw      zero, 36(a5)
00000000 00000114 0002 800026bc  x15:0011ff70 x15:0011ff70 WA:0011ff70   # sw      a5, 0(a5)
00000000 00000135 0001 80002710  x15:0011ff70 x10:90000000 WA:0011ff90   # sw      a0, 32(a5)
00000000 00000115 0002 800026c0  x15:0011ff70 x14:01000000 WA:0011ff74   # sw      a4, 4(a5)
00000000 00000136 0001 80002714  x14:01000000 RA:01000020 x10=00000000   # lw      a0, 32(a4)
00000000 00000131 0000 800026e0  x15:0011ff70 x10:00000009 WA:0011ff7c   # sw      a0, 12(a5)
00000000 00000152 0003 80002754  x5:00000000 x11:00000000 x11=00000000   # add     a1, t0, a1
00000000 00000132 0008 80002704  x11=10000000                            # lui     a1, 0x10000
00000000 00000148 0004 80002744  x16:00120000 x10:00020000 x5=00000000   # sltu    t0, a6, a0
00000000 00000123 0007 800026e0  x15:0011ff70 x10:00000009 WA:0011ff7c   # sw      a0, 12(a5)
00000000 00000150 0006 8000274c  x16:00120000 x11:00010000 x6=00130000   # add     t1, a6, a1
00000000 00000116 0002 800026c4  x14:01000000 RA:01000008 x6=00000000    # lw      t1, 8(a4)
00000000 00000137 0001 80002718  x14:01000000 RA:01000024 x11=00000001   # lw      a1, 36(a4)
00000000 00000117 0002 800026c8  x15:0011ff70 x6:00000000 WA:0011ff78    # sw      t1, 8(a5)
00000000 00000138 0001 8000271c  x15:0011ff70 x10:00000000 WA:0011ff98   # sw      a0, 40(a5)
00000000 00000132 0000 800026e4  x17=00000000                            # csrr    a7, mhartid
00000000 00000118 0002 800026cc  x14:01000000 RA:01000028 x16=00000001   # lw      a6, 40(a4)
00000000 00000133 0000 800026e8  x17:00000000 x6:00000000 x10=00000000   # sub     a0, a7, t1
00000000 00000119 0002 800026d0  x14:01000000 RA:0100002c x17=00000001   # lw      a7, 44(a4)
00000000 00000124 0007 800026e4  x17=00000007                            # csrr    a7, mhartid
00000000 00000151 0006 80002750  x6:00130000 x16:00120000 x11=00000000   # sltu    a1, t1, a6
00000000 00000148 0005 80002744  x16:00120000 x10:00020000 x5=00000000   # sltu    t0, a6, a0
00000000 00000139 0001 80002720  x15:0011ff70 x11:00000001 WA:0011ff9c   # sw      a1, 44(a5)
00000000 00000153 0003 80002758  x15:0011ff70 x6:00130000 WA:0011ffb0    # sw      t1, 64(a5)
00000000 00000133 0008 80002708  x10:80000000 x11:10000000 x10=90000000  # add     a0, a0, a1
00000000 00000149 0004 80002748  x10:00020000 x11=00010000               # srli    a1, a0, 1
00000000 00000134 0000 800026ec  x10:00000000 x5:00000009 x10=00000000   # divu    a0, a0, t0
00000000 00000120 0002 800026d4  x14:01000000 RA:01000004 x5=00000009    # lw      t0, 4(a4)
00000000 00000121 0002 800026d8  x17:00000001 x16:00000001 x16=00000001  # mul     a6, a7, a6
00000000 00000122 0002 800026dc  x16:00000001 x5:00000009 x10=00000009   # mul     a0, a6, t0
00000000 00000123 0002 800026e0  x15:0011ff70 x10:00000009 WA:0011ff7c   # sw      a0, 12(a5)
00000000 00000124 0002 800026e4  x17=00000002                            # csrr    a7, mhartid
00000000 00000125 0002 800026e8  x17:00000002 x6:00000000 x10=00000002   # sub     a0, a7, t1
00000000 00000126 0002 800026ec  x10:00000002 x5:00000009 x10=00000000   # divu    a0, a0, t0
00000000 00000127 0002 800026f0  x15:0011ff70 x10:00000000 WA:0011ff80   # sw      a0, 16(a5)
00000000 00000135 0000 800026f0  x15:0011ff70 x10:00000000 WA:0011ff80   # sw      a0, 16(a5)
00000000 00000125 0007 800026e8  x17:00000007 x6:00000000 x10=00000007   # sub     a0, a7, t1
00000000 00000152 0006 80002754  x5:00000000 x11:00000000 x11=00000000   # add     a1, t0, a1
00000000 00000149 0005 80002748  x10:00020000 x11=00010000               # srli    a1, a0, 1
00000000 00000140 0001 80002724  x15:0011ff70 x12:00100000 WA:0011ffa0   # sw      a2, 48(a5)
00000000 00000154 0003 8000275c  x15:0011ff70 x11:00000000 WA:0011ffb4   # sw      a1, 68(a5)
00000000 00000134 0008 8000270c  x15:0011ff70 WA:0011ff94                # sw      zero, 36(a5)
00000000 00000150 0004 8000274c  x16:00120000 x11:00010000 x6=00130000   # add     t1, a6, a1
00000000 00000128 0002 800026f4  x15:0011ff70 x16:00000001 WA:0011ff84   # sw      a6, 20(a5)
00000000 00000136 0000 800026f4  x15:0011ff70 x16:00000001 WA:0011ff84   # sw      a6, 20(a5)
00000000 00000137 0000 800026f8  x15:0011ff70 x6:00000000 WA:0011ff88    # sw      t1, 24(a5)
00000000 00000153 0006 80002758  x15:0011ff70 x6:00130000 WA:0011ffb0    # sw      t1, 64(a5)
00000000 00000150 0005 8000274c  x16:00120000 x11:00010000 x6=00130000   # add     t1, a6, a1
00000000 00000141 0001 80002728  x15:0011ff70 WA:0011ffa4                # sw      zero, 52(a5)
00000000 00000155 0003 80002760  x10:00020000 x10=00040000               # slli    a0, a0, 1
00000000 00000135 0008 80002710  x15:0011ff70 x10:90000000 WA:0011ff90   # sw      a0, 32(a5)
00000000 00000151 0004 80002750  x6:00130000 x16:00120000 x11=00000000   # sltu    a1, t1, a6
00000000 00000129 0002 800026f8  x15:0011ff70 x6:00000000 WA:0011ff88    # sw      t1, 24(a5)
00000000 00000126 0007 800026ec  x10:00000007 x5:00000009 x10=00000000   # divu    a0, a0, t0
00000000 00000138 0000 800026fc  x15:0011ff70 x11:00000009 WA:0011ff8c   # sw      a1, 28(a5)
00000000 00000154 0006 8000275c  x15:0011ff70 x11:00000000 WA:0011ffb4   # sw      a1, 68(a5)
00000000 00000151 0005 80002750  x6:00130000 x16:00120000 x11=00000000   # sltu    a1, t1, a6
00000000 00000142 0001 8000272c  x15:0011ff70 x13:0011db28 WA:0011ffa8   # sw      a3, 56(a5)
00000000 00000156 0003 80002764  x10:00040000 x12:00100000 x11=00140000  # add     a1, a0, a2
00000000 00000136 0008 80002714  x14:01000000 RA:01000020 x10=00000000   # lw      a0, 32(a4)
00000000 00000152 0004 80002754  x5:00000000 x11:00000000 x11=00000000   # add     a1, t0, a1
00000000 00000130 0002 800026fc  x15:0011ff70 x11:00000009 WA:0011ff8c   # sw      a1, 28(a5)
00000000 00000127 0007 800026f0  x15:0011ff70 x10:00000000 WA:0011ff80   # sw      a0, 16(a5)
00000000 00000139 0000 80002700  x14:01000000 RA:01000018 x10=80000000   # lw      a0, 24(a4)
00000000 00000155 0006 80002760  x10:00020000 x10=00040000               # slli    a0, a0, 1
00000000 00000152 0005 80002754  x5:00000000 x11:00000000 x11=00000000   # add     a1, t0, a1
00000000 00000143 0001 80002730  x15:0011ff70 WA:0011ffac                # sw      zero, 60(a5)
00000000 00000157 0003 80002768  x11:00140000 x10:00040000 x10=00000000  # sltu    a0, a1, a0
00000000 00000137 0008 80002718  x14:01000000 RA:01000024 x11=00000001   # lw      a1, 36(a4)
00000000 00000153 0004 80002758  x15:0011ff70 x6:00130000 WA:0011ffb0    # sw      t1, 64(a5)
00000000 00000131 0002 80002700  x14:01000000 RA:01000018 x10=80000000   # lw      a0, 24(a4)
00000000 00000154 0004 8000275c  x15:0011ff70 x11:00000000 WA:0011ffb4   # sw      a1, 68(a5)
00000000 00000132 0002 80002704  x11=10000000                            # lui     a1, 0x10000
00000000 00000140 0000 80002704  x11=10000000                            # lui     a1, 0x10000
00000000 00000156 0006 80002764  x10:00040000 x12:00100000 x11=00140000  # add     a1, a0, a2
00000000 00000153 0005 80002758  x15:0011ff70 x6:00130000 WA:0011ffb0    # sw      t1, 64(a5)
00000000 00000144 0001 80002734  x14:01000000 RA:01000010 x10=00020000   # lw      a0, 16(a4)
00000000 00000154 0005 8000275c  x15:0011ff70 x11:00000000 WA:0011ffb4   # sw      a1, 68(a5)
00000000 00000138 0008 8000271c  x15:0011ff70 x10:00000000 WA:0011ff98   # sw      a0, 40(a5)
00000000 00000128 0007 800026f4  x15:0011ff70 x16:00000001 WA:0011ff84   # sw      a6, 20(a5)
00000000 00000155 0004 80002760  x10:00020000 x10=00040000               # slli    a0, a0, 1
00000000 00000133 0002 80002708  x10:80000000 x11:10000000 x10=90000000  # add     a0, a0, a1
00000000 00000141 0000 80002708  x10:80000000 x11:10000000 x10=90000000  # add     a0, a0, a1
00000000 00000157 0006 80002768  x11:00140000 x10:00040000 x10=00000000  # sltu    a0, a1, a0
00000000 00000145 0001 80002738  x12:00100000 x10:00020000 x16=00120000  # add     a6, a2, a0
00000000 00000158 0003 8000276c  x15:0011ff70 x11:00140000 WA:0011ffb8   # sw      a1, 72(a5)
00000000 00000155 0005 80002760  x10:00020000 x10=00040000               # slli    a0, a0, 1
00000000 00000156 0005 80002764  x10:00040000 x12:00100000 x11=00140000  # add     a1, a0, a2
00000000 00000129 0007 800026f8  x15:0011ff70 x6:00000000 WA:0011ff88    # sw      t1, 24(a5)
00000000 00000156 0004 80002764  x10:00040000 x12:00100000 x11=00140000  # add     a1, a0, a2
00000000 00000157 0004 80002768  x11:00140000 x10:00040000 x10=00000000  # sltu    a0, a1, a0
00000000 00000158 0004 8000276c  x15:0011ff70 x11:00140000 WA:0011ffb8   # sw      a1, 72(a5)
00000000 00000158 0006 8000276c  x15:0011ff70 x11:00140000 WA:0011ffb8   # sw      a1, 72(a5)
00000000 00000146 0001 8000273c  x16:00120000 x11=00120190               # addi    a1, a6, 400
00000000 00000159 0003 80002770  x15:0011ff70 x10:00000000 WA:0011ffbc   # sw      a0, 76(a5)
00000000 00000160 0003 80002774  x15:0011ff70 WA:0011ffd8                # sw      zero, 104(a5)
00000000 00000157 0005 80002768  x11:00140000 x10:00040000 x10=00000000  # sltu    a0, a1, a0
00000000 00000130 0007 800026fc  x15:0011ff70 x11:00000009 WA:0011ff8c   # sw      a1, 28(a5)
00000000 00000134 0002 8000270c  x15:0011ff70 WA:0011ff94                # sw      zero, 36(a5)
00000000 00000142 0000 8000270c  x15:0011ff70 WA:0011ff94                # sw      zero, 36(a5)
00000000 00000159 0004 80002770  x15:0011ff70 x10:00000000 WA:0011ffbc   # sw      a0, 76(a5)
00000000 00000159 0006 80002770  x15:0011ff70 x10:00000000 WA:0011ffbc   # sw      a0, 76(a5)
00000000 00000147 0001 80002740  x15:0011ff70 x11:00120190 WA:0011ffe0   # sw      a1, 112(a5)
00000000 00000139 0008 80002720  x15:0011ff70 x11:00000001 WA:0011ff9c   # sw      a1, 44(a5)
00000000 00000161 0003 80002778  x15:0011ff70 WA:0011ffdc                # sw      zero, 108(a5)
00000000 00000158 0005 8000276c  x15:0011ff70 x11:00140000 WA:0011ffb8   # sw      a1, 72(a5)
00000000 00000131 0007 80002700  x14:01000000 RA:01000018 x10=80000000   # lw      a0, 24(a4)
00000000 00000135 0002 80002710  x15:0011ff70 x10:90000000 WA:0011ff90   # sw      a0, 32(a5)
00000000 00000143 0000 80002710  x15:0011ff70 x10:90000000 WA:0011ff90   # sw      a0, 32(a5)
00000000 00000160 0004 80002774  x15:0011ff70 WA:0011ffd8                # sw      zero, 104(a5)
00000000 00000160 0006 80002774  x15:0011ff70 WA:0011ffd8                # sw      zero, 104(a5)
00000000 00000161 0006 80002778  x15:0011ff70 WA:0011ffdc                # sw      zero, 108(a5)
00000000 00000162 0006 8000277c  x10=00000000                            # lui     a0, 0x0
00000000 00000163 0006 80002780  x10:00000000 x4:0011e730 x10=0011e730   # add     a0, a0, tp
00000000 00000164 0006 80002784  x10:0011e730 x15:0011ff70 WA:0011e730   # sw      a5, 0(a0)
00000000 00000132 0007 80002704  x11=10000000                            # lui     a1, 0x10000
00000000 00000136 0002 80002714  x14:01000000 RA:01000020 x10=00000000   # lw      a0, 32(a4)
00000000 00000144 0000 80002714  x14:01000000 RA:01000020 x10=00000000   # lw      a0, 32(a4)
00000000 00000161 0004 80002778  x15:0011ff70 WA:0011ffdc                # sw      zero, 108(a5)
00000000 00000148 0001 80002744  x16:00120000 x10:00020000 x5=00000000   # sltu    t0, a6, a0
00000000 00000140 0008 80002724  x15:0011ff70 x12:00100000 WA:0011ffa0   # sw      a2, 48(a5)
00000000 00000141 0008 80002728  x15:0011ff70 WA:0011ffa4                # sw      zero, 52(a5)
00000000 00000159 0005 80002770  x15:0011ff70 x10:00000000 WA:0011ffbc   # sw      a0, 76(a5)
00000000 00000165 0006 80002788  x15:0011ff70 RA:0011ff70 x10=0011ff70   # lw      a0, 0(a5)
00000000 00000133 0007 80002708  x10:80000000 x11:10000000 x10=90000000  # add     a0, a0, a1
00000000 00000137 0002 80002718  x14:01000000 RA:01000024 x11=00000001   # lw      a1, 36(a4)
00000000 00000145 0000 80002718  x14:01000000 RA:01000024 x11=00000001   # lw      a1, 36(a4)
00000000 00000146 0000 8000271c  x15:0011ff70 x10:00000000 WA:0011ff98   # sw      a0, 40(a5)
00000000 00000149 0001 80002748  x10:00020000 x11=00010000               # srli    a1, a0, 1
00000000 00000162 0003 8000277c  x10=00000000                            # lui     a0, 0x0
00000000 00000142 0008 8000272c  x15:0011ff70 x13:0011db28 WA:0011ffa8   # sw      a3, 56(a5)
00000000 00000160 0005 80002774  x15:0011ff70 WA:0011ffd8                # sw      zero, 104(a5)
00000000 00000166 0006 8000278c  x10:0011ff70 RA:0011ff88 x11=00000000   # lw      a1, 24(a0)
00000000 00000134 0007 8000270c  x15:0011ff70 WA:0011ff94                # sw      zero, 36(a5)
00000000 00000162 0004 8000277c  x10=00000000                            # lui     a0, 0x0
00000000 00000138 0002 8000271c  x15:0011ff70 x10:00000000 WA:0011ff98   # sw      a0, 40(a5)
00000000 00000147 0000 80002720  x15:0011ff70 x11:00000001 WA:0011ff9c   # sw      a1, 44(a5)
00000000 00000150 0001 8000274c  x16:00120000 x11:00010000 x6=00130000   # add     t1, a6, a1
00000000 00000163 0003 80002780  x10:00000000 x4:0011f348 x10=0011f348   # add     a0, a0, tp
00000000 00000143 0008 80002730  x15:0011ff70 WA:0011ffac                # sw      zero, 60(a5)
00000000 00000161 0005 80002778  x15:0011ff70 WA:0011ffdc                # sw      zero, 108(a5)
00000000 00000167 0006 80002790  x10:0011ff70 RA:0011ff8c x10=00000009   # lw      a0, 28(a0)
00000000 00000135 0007 80002710  x15:0011ff70 x10:90000000 WA:0011ff90   # sw      a0, 32(a5)
00000000 00000163 0004 80002780  x10:00000000 x4:0011ef40 x10=0011ef40   # add     a0, a0, tp
00000000 00000139 0002 80002720  x15:0011ff70 x11:00000001 WA:0011ff9c   # sw      a1, 44(a5)
00000000 00000148 0000 80002724  x15:0011ff70 x12:00100000 WA:0011ffa0   # sw      a2, 48(a5)
00000000 00000151 0001 80002750  x6:00130000 x16:00120000 x11=00000000   # sltu    a1, t1, a6
00000000 00000164 0003 80002784  x10:0011f348 x15:0011ff70 WA:0011f348   # sw      a5, 0(a0)
00000000 00000144 0008 80002734  x14:01000000 RA:01000010 x10=00020000   # lw      a0, 16(a4)
00000000 00000162 0005 8000277c  x10=00000000                            # lui     a0, 0x0
00000000 00000168 0006 80002794  x17:00000006 x11:00000000 x11=00000006  # sub     a1, a7, a1
00000000 00000136 0007 80002714  x14:01000000 RA:01000020 x10=00000000   # lw      a0, 32(a4)
00000000 00000164 0004 80002784  x10:0011ef40 x15:0011ff70 WA:0011ef40   # sw      a5, 0(a0)
00000000 00000140 0002 80002724  x15:0011ff70 x12:00100000 WA:0011ffa0   # sw      a2, 48(a5)
00000000 00000149 0000 80002728  x15:0011ff70 WA:0011ffa4                # sw      zero, 52(a5)
00000000 00000152 0001 80002754  x5:00000000 x11:00000000 x11=00000000   # add     a1, t0, a1
00000000 00000165 0003 80002788  x15:0011ff70 RA:0011ff70 x10=0011ff70   # lw      a0, 0(a5)
00000000 00000166 0003 8000278c  x10:0011ff70 RA:0011ff88 x11=00000000   # lw      a1, 24(a0)
00000000 00000163 0005 80002780  x10:00000000 x4:0011eb38 x10=0011eb38   # add     a0, a0, tp
00000000 00000169 0006 80002798  x11:00000006 x10:00000009 x10=00000006  # remu    a0, a1, a0
00000000 00000137 0007 80002718  x14:01000000 RA:01000024 x11=00000001   # lw      a1, 36(a4)
00000000 00000165 0004 80002788  x15:0011ff70 RA:0011ff70 x10=0011ff70   # lw      a0, 0(a5)
00000000 00000141 0002 80002728  x15:0011ff70 WA:0011ffa4                # sw      zero, 52(a5)
00000000 00000150 0000 8000272c  x15:0011ff70 x13:0011db28 WA:0011ffa8   # sw      a3, 56(a5)
00000000 00000153 0001 80002758  x15:0011ff70 x6:00130000 WA:0011ffb0    # sw      t1, 64(a5)
00000000 00000145 0008 80002738  x12:00100000 x10:00020000 x16=00120000  # add     a6, a2, a0
00000000 00000167 0003 80002790  x10:0011ff70 RA:0011ff8c x10=00000009   # lw      a0, 28(a0)
00000000 00000164 0005 80002784  x10:0011eb38 x15:0011ff70 WA:0011eb38   # sw      a5, 0(a0)
00000000 00000170 0006 8000279c  x11=00000000                            # lui     a1, 0x0
00000000 00000138 0007 8000271c  x15:0011ff70 x10:00000000 WA:0011ff98   # sw      a0, 40(a5)
00000000 00000166 0004 8000278c  x10:0011ff70 RA:0011ff88 x11=00000000   # lw      a1, 24(a0)
00000000 00000142 0002 8000272c  x15:0011ff70 x13:0011db28 WA:0011ffa8   # sw      a3, 56(a5)
00000000 00000151 0000 80002730  x15:0011ff70 WA:0011ffac                # sw      zero, 60(a5)
00000000 00000154 0001 8000275c  x15:0011ff70 x11:00000000 WA:0011ffb4   # sw      a1, 68(a5)
00000000 00000155 0001 80002760  x10:00020000 x10=00040000               # slli    a0, a0, 1
00000000 00000168 0003 80002794  x17:00000003 x11:00000000 x11=00000003  # sub     a1, a7, a1
00000000 00000165 0005 80002788  x15:0011ff70 RA:0011ff70 x10=0011ff70   # lw      a0, 0(a5)
00000000 00000171 0006 800027a0  x11:00000000 x4:0011e730 x11=0011e730   # add     a1, a1, tp
00000000 00000139 0007 80002720  x15:0011ff70 x11:00000001 WA:0011ff9c   # sw      a1, 44(a5)
00000000 00000140 0007 80002724  x15:0011ff70 x12:00100000 WA:0011ffa0   # sw      a2, 48(a5)
00000000 00000141 0007 80002728  x15:0011ff70 WA:0011ffa4                # sw      zero, 52(a5)
00000000 00000142 0007 8000272c  x15:0011ff70 x13:0011db28 WA:0011ffa8   # sw      a3, 56(a5)
00000000 00000143 0007 80002730  x15:0011ff70 WA:0011ffac                # sw      zero, 60(a5)
00000000 00000156 0001 80002764  x10:00040000 x12:00100000 x11=00140000  # add     a1, a0, a2
00000000 00000169 0003 80002798  x11:00000003 x10:00000009 x10=00000003  # remu    a0, a1, a0
00000000 00000166 0005 8000278c  x10:0011ff70 RA:0011ff88 x11=00000000   # lw      a1, 24(a0)
00000000 00000172 0006 800027a4  x11:0011e730 x10:00000006 WA:0011e734   # sw      a0, 4(a1)
00000000 00000167 0004 80002790  x10:0011ff70 RA:0011ff8c x10=00000009   # lw      a0, 28(a0)
00000000 00000143 0002 80002730  x15:0011ff70 WA:0011ffac                # sw      zero, 60(a5)
00000000 00000152 0000 80002734  x14:01000000 RA:01000010 x10=00020000   # lw      a0, 16(a4)
00000000 00000146 0008 8000273c  x16:00120000 x11=00120190               # addi    a1, a6, 400
00000000 00000144 0007 80002734  x14:01000000 RA:01000010 x10=00020000   # lw      a0, 16(a4)
00000000 00000157 0001 80002768  x11:00140000 x10:00040000 x10=00000000  # sltu    a0, a1, a0
00000000 00000170 0003 8000279c  x11=00000000                            # lui     a1, 0x0
00000000 00000167 0005 80002790  x10:0011ff70 RA:0011ff8c x10=00000009   # lw      a0, 28(a0)
00000000 00000173 0006 800027a8  x10=00000448                            # li      a0, 1096
00000000 00000168 0004 80002794  x17:00000004 x11:00000000 x11=00000004  # sub     a1, a7, a1
00000000 00000144 0002 80002734  x14:01000000 RA:01000010 x10=00020000   # lw      a0, 16(a4)
00000000 00000153 0000 80002738  x12:00100000 x10:00020000 x16=00120000  # add     a6, a2, a0
00000000 00000147 0008 80002740  x15:0011ff70 x11:00120190 WA:0011ffe0   # sw      a1, 112(a5)
00000000 00000145 0007 80002738  x12:00100000 x10:00020000 x16=00120000  # add     a6, a2, a0
00000000 00000158 0001 8000276c  x15:0011ff70 x11:00140000 WA:0011ffb8   # sw      a1, 72(a5)
00000000 00000171 0003 800027a0  x11:00000000 x4:0011f348 x11=0011f348   # add     a1, a1, tp
00000000 00000168 0005 80002794  x17:00000005 x11:00000000 x11=00000005  # sub     a1, a7, a1
00000000 00000174 0006 800027ac  x17:00000006 x10:00000448 x10=000019b0  # mul     a0, a7, a0
00000000 00000169 0004 80002798  x11:00000004 x10:00000009 x10=00000004  # remu    a0, a1, a0
00000000 00000145 0002 80002738  x12:00100000 x10:00020000 x16=00120000  # add     a6, a2, a0
00000000 00000154 0000 8000273c  x16:00120000 x11=00120190               # addi    a1, a6, 400
00000000 00000148 0008 80002744  x16:00120000 x10:00020000 x5=00000000   # sltu    t0, a6, a0
00000000 00000146 0007 8000273c  x16:00120000 x11=00120190               # addi    a1, a6, 400
00000000 00000159 0001 80002770  x15:0011ff70 x10:00000000 WA:0011ffbc   # sw      a0, 76(a5)
00000000 00000172 0003 800027a4  x11:0011f348 x10:00000003 WA:0011f34c   # sw      a0, 4(a1)
00000000 00000169 0005 80002798  x11:00000005 x10:00000009 x10=00000005  # remu    a0, a1, a0
00000000 00000170 0005 8000279c  x11=00000000                            # lui     a1, 0x0
00000000 00000171 0005 800027a0  x11:00000000 x4:0011eb38 x11=0011eb38   # add     a1, a1, tp
00000000 00000172 0005 800027a4  x11:0011eb38 x10:00000005 WA:0011eb3c   # sw      a0, 4(a1)
00000000 00000173 0005 800027a8  x10=00000448                            # li      a0, 1096
00000000 00000146 0002 8000273c  x16:00120000 x11=00120190               # addi    a1, a6, 400
00000000 00000155 0000 80002740  x15:0011ff70 x11:00120190 WA:0011ffe0   # sw      a1, 112(a5)
00000000 00000149 0008 80002748  x10:00020000 x11=00010000               # srli    a1, a0, 1
00000000 00000147 0007 80002740  x15:0011ff70 x11:00120190 WA:0011ffe0   # sw      a1, 112(a5)
00000000 00000160 0001 80002774  x15:0011ff70 WA:0011ffd8                # sw      zero, 104(a5)
00000000 00000173 0003 800027a8  x10=00000448                            # li      a0, 1096
00000000 00000175 0006 800027b0  x11=800027b0                            # auipc   a1, 0x0
00000000 00000170 0004 8000279c  x11=00000000                            # lui     a1, 0x0
00000000 00000174 0005 800027ac  x17:00000005 x10:00000448 x10=00001568  # mul     a0, a7, a0
00000000 00000147 0002 80002740  x15:0011ff70 x11:00120190 WA:0011ffe0   # sw      a1, 112(a5)
00000000 00000156 0000 80002744  x16:00120000 x10:00020000 x5=00000000   # sltu    t0, a6, a0
00000000 00000150 0008 8000274c  x16:00120000 x11:00010000 x6=00130000   # add     t1, a6, a1
00000000 00000148 0007 80002744  x16:00120000 x10:00020000 x5=00000000   # sltu    t0, a6, a0
00000000 00000161 0001 80002778  x15:0011ff70 WA:0011ffdc                # sw      zero, 108(a5)
00000000 00000174 0003 800027ac  x17:00000003 x10:00000448 x10=00000cd8  # mul     a0, a7, a0
00000000 00000176 0006 800027b4  x11:800027b0 x11=80002fac               # addi    a1, a1, 2044
00000000 00000171 0004 800027a0  x11:00000000 x4:0011ef40 x11=0011ef40   # add     a1, a1, tp
00000000 00000175 0005 800027b0  x11=800027b0                            # auipc   a1, 0x0
00000000 00000148 0002 80002744  x16:00120000 x10:00020000 x5=00000000   # sltu    t0, a6, a0
00000000 00000157 0000 80002748  x10:00020000 x11=00010000               # srli    a1, a0, 1
00000000 00000151 0008 80002750  x6:00130000 x16:00120000 x11=00000000   # sltu    a1, t1, a6
00000000 00000149 0007 80002748  x10:00020000 x11=00010000               # srli    a1, a0, 1
00000000 00000162 0001 8000277c  x10=00000000                            # lui     a0, 0x0
00000000 00000175 0003 800027b0  x11=800027b0                            # auipc   a1, 0x0
00000000 00000177 0006 800027b8  x10:000019b0 x11:80002fac x10=8000495c  # add     a0, a0, a1
00000000 00000172 0004 800027a4  x11:0011ef40 x10:00000004 WA:0011ef44   # sw      a0, 4(a1)
00000000 00000176 0005 800027b4  x11:800027b0 x11=80002fac               # addi    a1, a1, 2044
00000000 00000149 0002 80002748  x10:00020000 x11=00010000               # srli    a1, a0, 1
00000000 00000158 0000 8000274c  x16:00120000 x11:00010000 x6=00130000   # add     t1, a6, a1
00000000 00000152 0008 80002754  x5:00000000 x11:00000000 x11=00000000   # add     a1, t0, a1
00000000 00000150 0007 8000274c  x16:00120000 x11:00010000 x6=00130000   # add     t1, a6, a1
00000000 00000153 0008 80002758  x15:0011ff70 x6:00130000 WA:0011ffb0    # sw      t1, 64(a5)
00000000 00000163 0001 80002780  x10:00000000 x4:0011fb58 x10=0011fb58   # add     a0, a0, tp
00000000 00000154 0008 8000275c  x15:0011ff70 x11:00000000 WA:0011ffb4   # sw      a1, 68(a5)
00000000 00000164 0001 80002784  x10:0011fb58 x15:0011ff70 WA:0011fb58   # sw      a5, 0(a0)
00000000 00000155 0008 80002760  x10:00020000 x10=00040000               # slli    a0, a0, 1
00000000 00000177 0005 800027b8  x10:00001568 x11:80002fac x10=80004514  # add     a0, a0, a1
00000000 00000159 0000 80002750  x6:00130000 x16:00120000 x11=00000000   # sltu    a1, t1, a6
00000000 00000151 0007 80002750  x6:00130000 x16:00120000 x11=00000000   # sltu    a1, t1, a6
00000000 00000176 0003 800027b4  x11:800027b0 x11=80002fac               # addi    a1, a1, 2044
00000000 00000178 0006 800027bc  x10:8000495c WA:8000495c                # sw      zero, 0(a0)
00000000 00000173 0004 800027a8  x10=00000448                            # li      a0, 1096
00000000 00000165 0001 80002788  x15:0011ff70 RA:0011ff70 x10=0011ff70   # lw      a0, 0(a5)
00000000 00000150 0002 8000274c  x16:00120000 x11:00010000 x6=00130000   # add     t1, a6, a1
00000000 00000156 0008 80002764  x10:00040000 x12:00100000 x11=00140000  # add     a1, a0, a2
00000000 00000178 0005 800027bc  x10:80004514 WA:80004514                # sw      zero, 0(a0)
00000000 00000160 0000 80002754  x5:00000000 x11:00000000 x11=00000000   # add     a1, t0, a1
00000000 00000152 0007 80002754  x5:00000000 x11:00000000 x11=00000000   # add     a1, t0, a1
00000000 00000153 0007 80002758  x15:0011ff70 x6:00130000 WA:0011ffb0    # sw      t1, 64(a5)
00000000 00000179 0006 800027c0  x14:01000000 RA:01000030 x17=ffff0000   # lw      a7, 48(a4)
00000000 00000174 0004 800027ac  x17:00000004 x10:00000448 x10=00001120  # mul     a0, a7, a0
00000000 00000175 0004 800027b0  x11=800027b0                            # auipc   a1, 0x0
00000000 00000151 0002 80002750  x6:00130000 x16:00120000 x11=00000000   # sltu    a1, t1, a6
00000000 00000157 0008 80002768  x11:00140000 x10:00040000 x10=00000000  # sltu    a0, a1, a0
00000000 00000179 0005 800027c0  x14:01000000 RA:01000030 x17=ffff0000   # lw      a7, 48(a4)
00000000 00000161 0000 80002758  x15:0011ff70 x6:00130000 WA:0011ffb0    # sw      t1, 64(a5)
00000000 00000177 0003 800027b8  x10:00000cd8 x11:80002fac x10=80003c84  # add     a0, a0, a1
00000000 00000162 0000 8000275c  x15:0011ff70 x11:00000000 WA:0011ffb4   # sw      a1, 68(a5)
00000000 00000178 0003 800027bc  x10:80003c84 WA:80003c84                # sw      zero, 0(a0)
00000000 00000163 0000 80002760  x10:00020000 x10=00040000               # slli    a0, a0, 1
00000000 00000179 0003 800027c0  x14:01000000 RA:01000030 x17=ffff0000   # lw      a7, 48(a4)
00000000 00000176 0004 800027b4  x11:800027b0 x11=80002fac               # addi    a1, a1, 2044
00000000 00000158 0008 8000276c  x15:0011ff70 x11:00140000 WA:0011ffb8   # sw      a1, 72(a5)
00000000 00000180 0005 800027c4  x15:0011ff70 x17:ffff0000 WA:0011ffe4   # sw      a7, 116(a5)
00000000 00000154 0007 8000275c  x15:0011ff70 x11:00000000 WA:0011ffb4   # sw      a1, 68(a5)
00000000 00000180 0006 800027c4  x15:0011ff70 x17:ffff0000 WA:0011ffe4   # sw      a7, 116(a5)
00000000 00000166 0001 8000278c  x10:0011ff70 RA:0011ff88 x11=00000000   # lw      a1, 24(a0)
00000000 00000164 0000 80002764  x10:00040000 x12:00100000 x11=00140000  # add     a1, a0, a2
00000000 00000152 0002 80002754  x5:00000000 x11:00000000 x11=00000000   # add     a1, t0, a1
00000000 00000180 0003 800027c4  x15:0011ff70 x17:ffff0000 WA:0011ffe4   # sw      a7, 116(a5)
00000000 00000177 0004 800027b8  x10:00001120 x11:80002fac x10=800040cc  # add     a0, a0, a1
00000000 00000159 0008 80002770  x15:0011ff70 x10:00000000 WA:0011ffbc   # sw      a0, 76(a5)
00000000 00000181 0005 800027c8  x15:0011ff70 x16:00120000 WA:0011ffec   # sw      a6, 124(a5)
00000000 00000155 0007 80002760  x10:00020000 x10=00040000               # slli    a0, a0, 1
00000000 00000181 0006 800027c8  x15:0011ff70 x16:00120000 WA:0011ffec   # sw      a6, 124(a5)
00000000 00000167 0001 80002790  x10:0011ff70 RA:0011ff8c x10=00000009   # lw      a0, 28(a0)
00000000 00000165 0000 80002768  x11:00140000 x10:00040000 x10=00000000  # sltu    a0, a1, a0
00000000 00000166 0000 8000276c  x15:0011ff70 x11:00140000 WA:0011ffb8   # sw      a1, 72(a5)
00000000 00000181 0003 800027c8  x15:0011ff70 x16:00120000 WA:0011ffec   # sw      a6, 124(a5)
00000000 00000178 0004 800027bc  x10:800040cc WA:800040cc                # sw      zero, 0(a0)
00000000 00000160 0008 80002774  x15:0011ff70 WA:0011ffd8                # sw      zero, 104(a5)
00000000 00000182 0005 800027cc  x15:0011ff70 WA:0011ffe8                # sw      zero, 120(a5)
00000000 00000156 0007 80002764  x10:00040000 x12:00100000 x11=00140000  # add     a1, a0, a2
00000000 00000182 0006 800027cc  x15:0011ff70 WA:0011ffe8                # sw      zero, 120(a5)
00000000 00000168 0001 80002794  x17:00000001 x11:00000000 x11=00000001  # sub     a1, a7, a1
00000000 00000153 0002 80002758  x15:0011ff70 x6:00130000 WA:0011ffb0    # sw      t1, 64(a5)
00000000 00000167 0000 80002770  x15:0011ff70 x10:00000000 WA:0011ffbc   # sw      a0, 76(a5)
00000000 00000154 0002 8000275c  x15:0011ff70 x11:00000000 WA:0011ffb4   # sw      a1, 68(a5)
00000000 00000182 0003 800027cc  x15:0011ff70 WA:0011ffe8                # sw      zero, 120(a5)
00000000 00000179 0004 800027c0  x14:01000000 RA:01000030 x17=ffff0000   # lw      a7, 48(a4)
00000000 00000161 0008 80002778  x15:0011ff70 WA:0011ffdc                # sw      zero, 108(a5)
00000000 00000162 0008 8000277c  x10=00000000                            # lui     a0, 0x0
00000000 00000163 0008 80002780  x10:00000000 x4:0011df20 x10=0011df20   # add     a0, a0, tp
00000000 00000164 0008 80002784  x10:0011df20 x15:0011ff70 WA:0011df20   # sw      a5, 0(a0)
00000000 00000165 0008 80002788  x15:0011ff70 RA:0011ff70 x10=0011ff70   # lw      a0, 0(a5)
00000000 00000166 0008 8000278c  x10:0011ff70 RA:0011ff88 x11=00000000   # lw      a1, 24(a0)
00000000 00000167 0008 80002790  x10:0011ff70 RA:0011ff8c x10=00000009   # lw      a0, 28(a0)
00000000 00000168 0008 80002794  x17:00000008 x11:00000000 x11=00000008  # sub     a1, a7, a1
00000000 00000180 0004 800027c4  x15:0011ff70 x17:ffff0000 WA:0011ffe4   # sw      a7, 116(a5)
00000000 00000183 0005 800027d0  x16:00120000 x14=00120180               # addi    a4, a6, 384
00000000 00000157 0007 80002768  x11:00140000 x10:00040000 x10=00000000  # sltu    a0, a1, a0
00000000 00000158 0007 8000276c  x15:0011ff70 x11:00140000 WA:0011ffb8   # sw      a1, 72(a5)
00000000 00000169 0001 80002798  x11:00000001 x10:00000009 x10=00000001  # remu    a0, a1, a0
00000000 00000170 0001 8000279c  x11=00000000                            # lui     a1, 0x0
00000000 00000168 0000 80002774  x15:0011ff70 WA:0011ffd8                # sw      zero, 104(a5)
00000000 00000183 0003 800027d0  x16:00120000 x14=00120180               # addi    a4, a6, 384
00000000 00000169 0008 80002798  x11:00000008 x10:00000009 x10=00000008  # remu    a0, a1, a0
00000000 00000181 0004 800027c8  x15:0011ff70 x16:00120000 WA:0011ffec   # sw      a6, 124(a5)
00000000 00000184 0005 800027d4  x15:0011ff70 x14:00120180 WA:0011fff0   # sw      a4, 128(a5)
00000000 00000183 0006 800027d0  x16:00120000 x14=00120180               # addi    a4, a6, 384
00000000 00000184 0006 800027d4  x15:0011ff70 x14:00120180 WA:0011fff0   # sw      a4, 128(a5)
00000000 00000155 0002 80002760  x10:00020000 x10=00040000               # slli    a0, a0, 1
00000000 00000171 0001 800027a0  x11:00000000 x4:0011fb58 x11=0011fb58   # add     a1, a1, tp
00000000 00000169 0000 80002778  x15:0011ff70 WA:0011ffdc                # sw      zero, 108(a5)
00000000 00000184 0003 800027d4  x15:0011ff70 x14:00120180 WA:0011fff0   # sw      a4, 128(a5)
00000000 00000170 0008 8000279c  x11=00000000                            # lui     a1, 0x0
00000000 00000182 0004 800027cc  x15:0011ff70 WA:0011ffe8                # sw      zero, 120(a5)
00000000 00000185 0005 800027d8  x12:00100000 x10=00100007               # addi    a0, a2, 7
00000000 00000159 0007 80002770  x15:0011ff70 x10:00000000 WA:0011ffbc   # sw      a0, 76(a5)
00000000 00000160 0007 80002774  x15:0011ff70 WA:0011ffd8                # sw      zero, 104(a5)
00000000 00000161 0007 80002778  x15:0011ff70 WA:0011ffdc                # sw      zero, 108(a5)
00000000 00000162 0007 8000277c  x10=00000000                            # lui     a0, 0x0
00000000 00000163 0007 80002780  x10:00000000 x4:0011e328 x10=0011e328   # add     a0, a0, tp
00000000 00000185 0003 800027d8  x12:00100000 x10=00100007               # addi    a0, a2, 7
00000000 00000171 0008 800027a0  x11:00000000 x4:0011df20 x11=0011df20   # add     a1, a1, tp
00000000 00000183 0004 800027d0  x16:00120000 x14=00120180               # addi    a4, a6, 384
00000000 00000186 0005 800027dc  x10:00100007 x10=00100000               # andi    a0, a0, -8
00000000 00000185 0006 800027d8  x12:00100000 x10=00100007               # addi    a0, a2, 7
00000000 00000186 0006 800027dc  x10:00100007 x10=00100000               # andi    a0, a0, -8
00000000 00000187 0006 800027e0  x15:0011ff70 x10:00100000 WA:0011ffc0   # sw      a0, 80(a5)
00000000 00000188 0006 800027e4  x13:0011db28 x12:00100000 x12=0001db28  # sub     a2, a3, a2
00000000 00000164 0007 80002784  x10:0011e328 x15:0011ff70 WA:0011e328   # sw      a5, 0(a0)
00000000 00000186 0003 800027dc  x10:00100007 x10=00100000               # andi    a0, a0, -8
00000000 00000172 0008 800027a4  x11:0011df20 x10:00000008 WA:0011df24   # sw      a0, 4(a1)
00000000 00000184 0004 800027d4  x15:0011ff70 x14:00120180 WA:0011fff0   # sw      a4, 128(a5)
00000000 00000187 0005 800027e0  x15:0011ff70 x10:00100000 WA:0011ffc0   # sw      a0, 80(a5)
00000000 00000156 0002 80002764  x10:00040000 x12:00100000 x11=00140000  # add     a1, a0, a2
00000000 00000172 0001 800027a4  x11:0011fb58 x10:00000001 WA:0011fb5c   # sw      a0, 4(a1)
00000000 00000170 0000 8000277c  x10=00000000                            # lui     a0, 0x0
00000000 00000189 0006 800027e8  x15:0011ff70 x12:0001db28 WA:0011ffc4   # sw      a2, 84(a5)
00000000 00000165 0007 80002788  x15:0011ff70 RA:0011ff70 x10=0011ff70   # lw      a0, 0(a5)
00000000 00000187 0003 800027e0  x15:0011ff70 x10:00100000 WA:0011ffc0   # sw      a0, 80(a5)
00000000 00000173 0008 800027a8  x10=00000448                            # li      a0, 1096
00000000 00000185 0004 800027d8  x12:00100000 x10=00100007               # addi    a0, a2, 7
00000000 00000186 0004 800027dc  x10:00100007 x10=00100000               # andi    a0, a0, -8
00000000 00000187 0004 800027e0  x15:0011ff70 x10:00100000 WA:0011ffc0   # sw      a0, 80(a5)
00000000 00000188 0004 800027e4  x13:0011db28 x12:00100000 x12=0001db28  # sub     a2, a3, a2
00000000 00000171 0000 80002780  x10:00000000 x4:0011ff60 x10=0011ff60   # add     a0, a0, tp
00000000 00000190 0006 800027ec  x15:0011ff70 x10:00100000 WA:0011ffc8   # sw      a0, 88(a5)
00000000 00000166 0007 8000278c  x10:0011ff70 RA:0011ff88 x11=00000000   # lw      a1, 24(a0)
00000000 00000188 0003 800027e4  x13:0011db28 x12:00100000 x12=0001db28  # sub     a2, a3, a2
00000000 00000174 0008 800027ac  x17:00000008 x10:00000448 x10=00002240  # mul     a0, a7, a0
00000000 00000175 0008 800027b0  x11=800027b0                            # auipc   a1, 0x0
00000000 00000176 0008 800027b4  x11:800027b0 x11=80002fac               # addi    a1, a1, 2044
00000000 00000173 0001 800027a8  x10=00000448                            # li      a0, 1096
00000000 00000189 0004 800027e8  x15:0011ff70 x12:0001db28 WA:0011ffc4   # sw      a2, 84(a5)
00000000 00000172 0000 80002784  x10:0011ff60 x15:0011ff70 WA:0011ff60   # sw      a5, 0(a0)
00000000 00000191 0006 800027f0  x11:80002fac RA:80002fac x10=00000000   # lw      a0, 0(a1)
00000000 00000167 0007 80002790  x10:0011ff70 RA:0011ff8c x10=00000009   # lw      a0, 28(a0)
00000000 00000189 0003 800027e8  x15:0011ff70 x12:0001db28 WA:0011ffc4   # sw      a2, 84(a5)
00000000 00000190 0003 800027ec  x15:0011ff70 x10:00100000 WA:0011ffc8   # sw      a0, 88(a5)
00000000 00000157 0002 80002768  x11:00140000 x10:00040000 x10=00000000  # sltu    a0, a1, a0
00000000 00000177 0008 800027b8  x10:00002240 x11:80002fac x10=800051ec  # add     a0, a0, a1
00000000 00000174 0001 800027ac  x17:00000001 x10:00000448 x10=00000448  # mul     a0, a7, a0
00000000 00000190 0004 800027ec  x15:0011ff70 x10:00100000 WA:0011ffc8   # sw      a0, 88(a5)
00000000 00000173 0000 80002788  x15:0011ff70 RA:0011ff70 x10=0011ff70   # lw      a0, 0(a5)
00000000 00000192 0006 800027f4  x10:00000000 x10=0000044f               # addi    a0, a0, 1103
00000000 00000168 0007 80002794  x17:00000007 x11:00000000 x11=00000007  # sub     a1, a7, a1
00000000 00000188 0005 800027e4  x13:0011db28 x12:00100000 x12=0001db28  # sub     a2, a3, a2
00000000 00000191 0003 800027f0  x11:80002fac RA:80002fac x10=00000000   # lw      a0, 0(a1)
00000000 00000158 0002 8000276c  x15:0011ff70 x11:00140000 WA:0011ffb8   # sw      a1, 72(a5)
00000000 00000178 0008 800027bc  x10:800051ec WA:800051ec                # sw      zero, 0(a0)
00000000 00000175 0001 800027b0  x11=800027b0                            # auipc   a1, 0x0
00000000 00000191 0004 800027f0  x11:80002fac RA:80002fac x10=00000000   # lw      a0, 0(a1)
00000000 00000174 0000 8000278c  x10:0011ff70 RA:0011ff88 x11=00000000   # lw      a1, 24(a0)
00000000 00000193 0006 800027f8  x10:0000044f x10=00000448               # andi    a0, a0, -8
00000000 00000169 0007 80002798  x11:00000007 x10:00000009 x10=00000007  # remu    a0, a1, a0
00000000 00000170 0007 8000279c  x11=00000000                            # lui     a1, 0x0
00000000 00000192 0003 800027f4  x10:00000000 x10=0000044f               # addi    a0, a0, 1103
00000000 00000159 0002 80002770  x15:0011ff70 x10:00000000 WA:0011ffbc   # sw      a0, 76(a5)
00000000 00000179 0008 800027c0  x14:01000000 RA:01000030 x17=ffff0000   # lw      a7, 48(a4)
00000000 00000176 0001 800027b4  x11:800027b0 x11=80002fac               # addi    a1, a1, 2044
00000000 00000192 0004 800027f4  x10:00000000 x10=0000044f               # addi    a0, a0, 1103
00000000 00000175 0000 80002790  x10:0011ff70 RA:0011ff8c x10=00000009   # lw      a0, 28(a0)
00000000 00000194 0006 800027fc  x15:0011ff70 x10:00000448 WA:0011ffcc   # sw      a0, 92(a5)
00000000 00000189 0005 800027e8  x15:0011ff70 x12:0001db28 WA:0011ffc4   # sw      a2, 84(a5)
00000000 00000171 0007 800027a0  x11:00000000 x4:0011e328 x11=0011e328   # add     a1, a1, tp
00000000 00000193 0003 800027f8  x10:0000044f x10=00000448               # andi    a0, a0, -8
00000000 00000160 0002 80002774  x15:0011ff70 WA:0011ffd8                # sw      zero, 104(a5)
00000000 00000180 0008 800027c4  x15:0011ff70 x17:ffff0000 WA:0011ffe4   # sw      a7, 116(a5)
00000000 00000181 0008 800027c8  x15:0011ff70 x16:00120000 WA:0011ffec   # sw      a6, 124(a5)
00000000 00000193 0004 800027f8  x10:0000044f x10=00000448               # andi    a0, a0, -8
00000000 00000176 0000 80002794  x17:00000000 x11:00000000 x11=00000000  # sub     a1, a7, a1
00000000 00000195 0006 80002800  x15:0011ff70 WA:0011ffd0                # sw      zero, 96(a5)
00000000 00000196 0006 80002804  x15:0011ff70 x10:00000448 WA:0011ffd4   # sw      a0, 100(a5)
00000000 00000172 0007 800027a4  x11:0011e328 x10:00000007 WA:0011e32c   # sw      a0, 4(a1)
00000000 00000194 0003 800027fc  x15:0011ff70 x10:00000448 WA:0011ffcc   # sw      a0, 92(a5)
00000000 00000161 0002 80002778  x15:0011ff70 WA:0011ffdc                # sw      zero, 108(a5)
00000000 00000162 0002 8000277c  x10=00000000                            # lui     a0, 0x0
00000000 00000163 0002 80002780  x10:00000000 x4:0011f750 x10=0011f750   # add     a0, a0, tp
00000000 00000164 0002 80002784  x10:0011f750 x15:0011ff70 WA:0011f750   # sw      a5, 0(a0)
00000000 00000165 0002 80002788  x15:0011ff70 RA:0011ff70 x10=0011ff70   # lw      a0, 0(a5)
00000000 00000166 0002 8000278c  x10:0011ff70 RA:0011ff88 x11=00000000   # lw      a1, 24(a0)
00000000 00000197 0006 80002808  x10=00000000                            # lui     a0, 0x0
00000000 00000173 0007 800027a8  x10=00000448                            # li      a0, 1096
00000000 00000195 0003 80002800  x15:0011ff70 WA:0011ffd0                # sw      zero, 96(a5)
00000000 00000196 0003 80002804  x15:0011ff70 x10:00000448 WA:0011ffd4   # sw      a0, 100(a5)
00000000 00000197 0003 80002808  x10=00000000                            # lui     a0, 0x0
00000000 00000198 0003 8000280c  x10:00000000 x4:0011f348 x10=0011f348   # add     a0, a0, tp
00000000 00000199 0003 80002810  x10:0011f348 x17:ffff0000 WA:0011f350   # sw      a7, 8(a0)
00000000 00000200 0003 80002814  x10=00000000                            # lui     a0, 0x0
00000000 00000167 0002 80002790  x10:0011ff70 RA:0011ff8c x10=00000009   # lw      a0, 28(a0)
00000000 00000198 0006 8000280c  x10:00000000 x4:0011e730 x10=0011e730   # add     a0, a0, tp
00000000 00000174 0007 800027ac  x17:00000007 x10:00000448 x10=00001df8  # mul     a0, a7, a0
00000000 00000175 0007 800027b0  x11=800027b0                            # auipc   a1, 0x0
00000000 00000176 0007 800027b4  x11:800027b0 x11=80002fac               # addi    a1, a1, 2044
00000000 00000177 0007 800027b8  x10:00001df8 x11:80002fac x10=80004da4  # add     a0, a0, a1
00000000 00000178 0007 800027bc  x10:80004da4 WA:80004da4                # sw      zero, 0(a0)
00000000 00000190 0005 800027ec  x15:0011ff70 x10:00100000 WA:0011ffc8   # sw      a0, 88(a5)
00000000 00000201 0003 80002818  x10:00000000 x4:0011f348 x10=0011f348   # add     a0, a0, tp
00000000 00000168 0002 80002794  x17:00000002 x11:00000000 x11=00000002  # sub     a1, a7, a1
00000000 00000199 0006 80002810  x10:0011e730 x17:ffff0000 WA:0011e738   # sw      a7, 8(a0)
00000000 00000200 0006 80002814  x10=00000000                            # lui     a0, 0x0
00000000 00000201 0006 80002818  x10:00000000 x4:0011e730 x10=0011e730   # add     a0, a0, tp
00000000 00000202 0006 8000281c  x10:0011e730 x14:00120180 WA:0011e73c   # sw      a4, 12(a0)
00000000 00000203 0006 80002820  x1:800029ec                             # ret
00000000 00000179 0007 800027c0  x14:01000000 RA:01000030 x17=ffff0000   # lw      a7, 48(a4)
00000000 00000191 0005 800027f0  x11:80002fac RA:80002fac x10=00000000   # lw      a0, 0(a1)
00000000 00000202 0003 8000281c  x10:0011f348 x14:00120180 WA:0011f354   # sw      a4, 12(a0)
00000000 00000169 0002 80002798  x11:00000002 x10:00000009 x10=00000002  # remu    a0, a1, a0
00000000 00000177 0001 800027b8  x10:00000448 x11:80002fac x10=800033f4  # add     a0, a0, a1
00000000 00000182 0008 800027cc  x15:0011ff70 WA:0011ffe8                # sw      zero, 120(a5)
00000000 00000194 0004 800027fc  x15:0011ff70 x10:00000448 WA:0011ffcc   # sw      a0, 92(a5)
00000000 00000177 0000 80002798  x11:00000000 x10:00000009 x10=00000000  # remu    a0, a1, a0
00000000 00000204 0006 800029ec  x2:0011e71c RA:0011e71c x10=00000006    # lw      a0, 0(sp)
00000000 00000180 0007 800027c4  x15:0011ff70 x17:ffff0000 WA:0011ffe4   # sw      a7, 116(a5)
00000000 00000181 0007 800027c8  x15:0011ff70 x16:00120000 WA:0011ffec   # sw      a6, 124(a5)
00000000 00000203 0003 80002820  x1:800029ec                             # ret
00000000 00000170 0002 8000279c  x11=00000000                            # lui     a1, 0x0
00000000 00000171 0002 800027a0  x11:00000000 x4:0011f750 x11=0011f750   # add     a1, a1, tp
00000000 00000172 0002 800027a4  x11:0011f750 x10:00000002 WA:0011f754   # sw      a0, 4(a1)
00000000 00000173 0002 800027a8  x10=00000448                            # li      a0, 1096
00000000 00000174 0002 800027ac  x17:00000002 x10:00000448 x10=00000890  # mul     a0, a7, a0
00000000 00000175 0002 800027b0  x11=800027b0                            # auipc   a1, 0x0
00000000 00000176 0002 800027b4  x11:800027b0 x11=80002fac               # addi    a1, a1, 2044
00000000 00000177 0002 800027b8  x10:00000890 x11:80002fac x10=8000383c  # add     a0, a0, a1
00000000 00000204 0003 800029ec  x2:0011f334 RA:0011f334 x10=00000003    # lw      a0, 0(sp)
00000000 00000178 0001 800027bc  x10:800033f4 WA:800033f4                # sw      zero, 0(a0)
00000000 00000183 0008 800027d0  x16:00120000 x14=00120180               # addi    a4, a6, 384
00000000 00000195 0004 80002800  x15:0011ff70 WA:0011ffd0                # sw      zero, 96(a5)
00000000 00000178 0000 8000279c  x11=00000000                            # lui     a1, 0x0
00000000 00000205 0006 800029f0  x2:0011e71c RA:0011e720 x11=00000009    # lw      a1, 4(sp)
00000000 00000206 0006 800029f4  x2:0011e71c RA:0011e724 x12=00100000    # lw      a2, 8(sp)
00000000 00000207 0006 800029f8  x2:0011e71c RA:0011e728 x13=0011db28    # lw      a3, 12(sp)
00000000 00000178 0002 800027bc  x10:8000383c WA:8000383c                # sw      zero, 0(a0)
00000000 00000205 0003 800029f0  x2:0011f334 RA:0011f338 x11=00000009    # lw      a1, 4(sp)
00000000 00000206 0003 800029f4  x2:0011f334 RA:0011f33c x12=00100000    # lw      a2, 8(sp)
00000000 00000207 0003 800029f8  x2:0011f334 RA:0011f340 x13=0011db28    # lw      a3, 12(sp)
00000000 00000208 0003 800029fc  x2:0011f334 RA:0011f344 x14=01000000    # lw      a4, 16(sp)
00000000 00000209 0003 80002a00  x2:0011f334 x2=0011f348                 # addi    sp, sp, 20
00000000 00000210 0003 80002a04  x5=80002a04                             # auipc   t0, 0x0
00000000 00000211 0003 80002a08  x5:80002a04 x5=80002a40                 # addi    t0, t0, 60
00000000 00000212 0003 80002a0c  x5:80002a40                             # csrw    mtvec, t0
00000000 00000213 0003 80002a10  x1=80002a10                             # auipc   ra, 0x0
00000000 00000214 0003 80002a14  x1:80002a10 x1=80002a18                 # jalr    ra, ra, 544
00000000 00000215 0003 80002c30  x2:0011f348 x2=0011f344                 # addi    sp, sp, -4
00000000 00000196 0004 80002804  x15:0011ff70 x10:00000448 WA:0011ffd4   # sw      a0, 100(a5)
00000000 00000179 0000 800027a0  x11:00000000 x4:0011ff60 x11=0011ff60   # add     a1, a1, tp
00000000 00000192 0005 800027f4  x10:00000000 x10=0000044f               # addi    a0, a0, 1103
00000000 00000182 0007 800027cc  x15:0011ff70 WA:0011ffe8                # sw      zero, 120(a5)
00000000 00000208 0006 800029fc  x2:0011e71c RA:0011e72c x14=01000000    # lw      a4, 16(sp)
00000000 00000179 0002 800027c0  x14:01000000 RA:01000030 x17=ffff0000   # lw      a7, 48(a4)
00000000 00000179 0001 800027c0  x14:01000000 RA:01000030 x17=ffff0000   # lw      a7, 48(a4)
00000000 00000184 0008 800027d4  x15:0011ff70 x14:00120180 WA:0011fff0   # sw      a4, 128(a5)
00000000 00000216 0003 80002c34  x2:0011f344 x1:80002a18 WA:0011f344     # sw      ra, 0(sp)
00000000 00000197 0004 80002808  x10=00000000                            # lui     a0, 0x0
00000000 00000180 0000 800027a4  x11:0011ff60 x10:00000000 WA:0011ff64   # sw      a0, 4(a1)
00000000 00000181 0000 800027a8  x10=00000448                            # li      a0, 1096
00000000 00000182 0000 800027ac  x17:00000000 x10:00000448 x10=00000000  # mul     a0, a7, a0
00000000 00000183 0000 800027b0  x11=800027b0                            # auipc   a1, 0x0
00000000 00000184 0000 800027b4  x11:800027b0 x11=80002fac               # addi    a1, a1, 2044
00000000 00000185 0000 800027b8  x10:00000000 x11:80002fac x10=80002fac  # add     a0, a0, a1
00000000 00000186 0000 800027bc  x10:80002fac WA:80002fac                # sw      zero, 0(a0)
00000000 00000185 0008 800027d8  x12:00100000 x10=00100007               # addi    a0, a2, 7
00000000 00000217 0003 80002c38  x1=80002c38                             # auipc   ra, 0x0
00000000 00000198 0004 8000280c  x10:00000000 x4:0011ef40 x10=0011ef40   # add     a0, a0, tp
00000000 00000193 0005 800027f8  x10:0000044f x10=00000448               # andi    a0, a0, -8
00000000 00000183 0007 800027d0  x16:00120000 x14=00120180               # addi    a4, a6, 384
00000000 00000209 0006 80002a00  x2:0011e71c x2=0011e730                 # addi    sp, sp, 20
00000000 00000180 0002 800027c4  x15:0011ff70 x17:ffff0000 WA:0011ffe4   # sw      a7, 116(a5)
00000000 00000181 0002 800027c8  x15:0011ff70 x16:00120000 WA:0011ffec   # sw      a6, 124(a5)
00000000 00000182 0002 800027cc  x15:0011ff70 WA:0011ffe8                # sw      zero, 120(a5)
00000000 00000183 0002 800027d0  x16:00120000 x14=00120180               # addi    a4, a6, 384
00000000 00000218 0003 80002c3c  x1:80002c38 x1=80002c40                 # jalr    ra, ra, -1628
00000000 00000199 0004 80002810  x10:0011ef40 x17:ffff0000 WA:0011ef48   # sw      a7, 8(a0)
00000000 00000219 0003 800025dc  x10=00000000                            # lui     a0, 0x0
00000000 00000194 0005 800027fc  x15:0011ff70 x10:00000448 WA:0011ffcc   # sw      a0, 92(a5)
00000000 00000195 0005 80002800  x15:0011ff70 WA:0011ffd0                # sw      zero, 96(a5)
00000000 00000180 0001 800027c4  x15:0011ff70 x17:ffff0000 WA:0011ffe4   # sw      a7, 116(a5)
00000000 00000187 0000 800027c0  x14:01000000 RA:01000030 x17=ffff0000   # lw      a7, 48(a4)
00000000 00000186 0008 800027dc  x10:00100007 x10=00100000               # andi    a0, a0, -8
00000000 00000184 0002 800027d4  x15:0011ff70 x14:00120180 WA:0011fff0   # sw      a4, 128(a5)
00000000 00000200 0004 80002814  x10=00000000                            # lui     a0, 0x0
00000000 00000201 0004 80002818  x10:00000000 x4:0011ef40 x10=0011ef40   # add     a0, a0, tp
00000000 00000184 0007 800027d4  x15:0011ff70 x14:00120180 WA:0011fff0   # sw      a4, 128(a5)
00000000 00000210 0006 80002a04  x5=80002a04                             # auipc   t0, 0x0
00000000 00000196 0005 80002804  x15:0011ff70 x10:00000448 WA:0011ffd4   # sw      a0, 100(a5)
00000000 00000197 0005 80002808  x10=00000000                            # lui     a0, 0x0
00000000 00000198 0005 8000280c  x10:00000000 x4:0011eb38 x10=0011eb38   # add     a0, a0, tp
00000000 00000187 0008 800027e0  x15:0011ff70 x10:00100000 WA:0011ffc0   # sw      a0, 80(a5)
00000000 00000185 0002 800027d8  x12:00100000 x10=00100007               # addi    a0, a2, 7
00000000 00000220 0003 800025e0  x10:00000000 x4:0011f348 x10=0011f348   # add     a0, a0, tp
00000000 00000202 0004 8000281c  x10:0011ef40 x14:00120180 WA:0011ef4c   # sw      a4, 12(a0)
00000000 00000185 0007 800027d8  x12:00100000 x10=00100007               # addi    a0, a2, 7
00000000 00000211 0006 80002a08  x5:80002a04 x5=80002a40                 # addi    t0, t0, 60
00000000 00000212 0006 80002a0c  x5:80002a40                             # csrw    mtvec, t0
00000000 00000213 0006 80002a10  x1=80002a10                             # auipc   ra, 0x0
00000000 00000214 0006 80002a14  x1:80002a10 x1=80002a18                 # jalr    ra, ra, 544
00000000 00000215 0006 80002c30  x2:0011e730 x2=0011e72c                 # addi    sp, sp, -4
00000000 00000216 0006 80002c34  x2:0011e72c x1:80002a18 WA:0011e72c     # sw      ra, 0(sp)
00000000 00000217 0006 80002c38  x1=80002c38                             # auipc   ra, 0x0
00000000 00000218 0006 80002c3c  x1:80002c38 x1=80002c40                 # jalr    ra, ra, -1628
00000000 00000186 0007 800027dc  x10:00100007 x10=00100000               # andi    a0, a0, -8
00000000 00000181 0001 800027c8  x15:0011ff70 x16:00120000 WA:0011ffec   # sw      a6, 124(a5)
00000000 00000188 0000 800027c4  x15:0011ff70 x17:ffff0000 WA:0011ffe4   # sw      a7, 116(a5)
00000000 00000199 0005 80002810  x10:0011eb38 x17:ffff0000 WA:0011eb40   # sw      a7, 8(a0)
00000000 00000188 0008 800027e4  x13:0011db28 x12:00100000 x12=0001db28  # sub     a2, a3, a2
00000000 00000189 0008 800027e8  x15:0011ff70 x12:0001db28 WA:0011ffc4   # sw      a2, 84(a5)
00000000 00000221 0003 800025e4  x10:0011f348 RA:0011f348 x10=0011ff70   # lw      a0, 0(a0)
00000000 00000203 0004 80002820  x1:800029ec                             # ret
00000000 00000219 0006 800025dc  x10=00000000                            # lui     a0, 0x0
00000000 00000187 0007 800027e0  x15:0011ff70 x10:00100000 WA:0011ffc0   # sw      a0, 80(a5)
00000000 00000182 0001 800027cc  x15:0011ff70 WA:0011ffe8                # sw      zero, 120(a5)
00000000 00000189 0000 800027c8  x15:0011ff70 x16:00120000 WA:0011ffec   # sw      a6, 124(a5)
00000000 00000200 0005 80002814  x10=00000000                            # lui     a0, 0x0
00000000 00000186 0002 800027dc  x10:00100007 x10=00100000               # andi    a0, a0, -8
00000000 00000190 0008 800027ec  x15:0011ff70 x10:00100000 WA:0011ffc8   # sw      a0, 88(a5)
00000000 00000222 0003 800025e8  x10:0011ff70 RA:0011ff70 x10=0011ff70   # lw      a0, 0(a0)
00000000 00000204 0004 800029ec  x2:0011ef2c RA:0011ef2c x10=00000004    # lw      a0, 0(sp)
00000000 00000220 0006 800025e0  x10:00000000 x4:0011e730 x10=0011e730   # add     a0, a0, tp
00000000 00000188 0007 800027e4  x13:0011db28 x12:00100000 x12=0001db28  # sub     a2, a3, a2
00000000 00000189 0007 800027e8  x15:0011ff70 x12:0001db28 WA:0011ffc4   # sw      a2, 84(a5)
00000000 00000190 0007 800027ec  x15:0011ff70 x10:00100000 WA:0011ffc8   # sw      a0, 88(a5)
00000000 00000201 0005 80002818  x10:00000000 x4:0011eb38 x10=0011eb38   # add     a0, a0, tp
00000000 00000187 0002 800027e0  x15:0011ff70 x10:00100000 WA:0011ffc0   # sw      a0, 80(a5)
00000000 00000191 0008 800027f0  x11:80002fac RA:80002fac x10=00000000   # lw      a0, 0(a1)
00000000 00000223 0003 800025ec  x10:0011ff70 RA:0011ffe0 x10=00120190   # lw      a0, 112(a0)
00000000 00000205 0004 800029f0  x2:0011ef2c RA:0011ef30 x11=00000009    # lw      a1, 4(sp)
00000000 00000221 0006 800025e4  x10:0011e730 RA:0011e730 x10=0011ff70   # lw      a0, 0(a0)
00000000 00000183 0001 800027d0  x16:00120000 x14=00120180               # addi    a4, a6, 384
00000000 00000190 0000 800027cc  x15:0011ff70 WA:0011ffe8                # sw      zero, 120(a5)
00000000 00000191 0007 800027f0  x11:80002fac RA:80002fac x10=00000000   # lw      a0, 0(a1)
00000000 00000202 0005 8000281c  x10:0011eb38 x14:00120180 WA:0011eb44   # sw      a4, 12(a0)
00000000 00000203 0005 80002820  x1:800029ec                             # ret
00000000 00000192 0008 800027f4  x10:00000000 x10=0000044f               # addi    a0, a0, 1103
00000000 00000224 0003 800025f0  x1:80002c40                             # ret
00000000 00000206 0004 800029f4  x2:0011ef2c RA:0011ef34 x12=00100000    # lw      a2, 8(sp)
00000000 00000222 0006 800025e8  x10:0011ff70 RA:0011ff70 x10=0011ff70   # lw      a0, 0(a0)
00000000 00000184 0001 800027d4  x15:0011ff70 x14:00120180 WA:0011fff0   # sw      a4, 128(a5)
00000000 00000185 0001 800027d8  x12:00100000 x10=00100007               # addi    a0, a2, 7
00000000 00000192 0007 800027f4  x10:00000000 x10=0000044f               # addi    a0, a0, 1103
00000000 00000188 0002 800027e4  x13:0011db28 x12:00100000 x12=0001db28  # sub     a2, a3, a2
00000000 00000204 0005 800029ec  x2:0011eb24 RA:0011eb24 x10=00000005    # lw      a0, 0(sp)
00000000 00000205 0005 800029f0  x2:0011eb24 RA:0011eb28 x11=00000009    # lw      a1, 4(sp)
00000000 00000206 0005 800029f4  x2:0011eb24 RA:0011eb2c x12=00100000    # lw      a2, 8(sp)
00000000 00000223 0006 800025ec  x10:0011ff70 RA:0011ffe0 x10=00120190   # lw      a0, 112(a0)
00000000 00000224 0006 800025f0  x1:80002c40                             # ret
00000000 00000186 0001 800027dc  x10:00100007 x10=00100000               # andi    a0, a0, -8
00000000 00000187 0001 800027e0  x15:0011ff70 x10:00100000 WA:0011ffc0   # sw      a0, 80(a5)
00000000 00000189 0002 800027e8  x15:0011ff70 x12:0001db28 WA:0011ffc4   # sw      a2, 84(a5)
00000000 00000190 0002 800027ec  x15:0011ff70 x10:00100000 WA:0011ffc8   # sw      a0, 88(a5)
00000000 00000191 0002 800027f0  x11:80002fac RA:80002fac x10=00000000   # lw      a0, 0(a1)
00000000 00000192 0002 800027f4  x10:00000000 x10=0000044f               # addi    a0, a0, 1103
00000000 00000193 0002 800027f8  x10:0000044f x10=00000448               # andi    a0, a0, -8
00000000 00000194 0002 800027fc  x15:0011ff70 x10:00000448 WA:0011ffcc   # sw      a0, 92(a5)
00000000 00000195 0002 80002800  x15:0011ff70 WA:0011ffd0                # sw      zero, 96(a5)
00000000 00000196 0002 80002804  x15:0011ff70 x10:00000448 WA:0011ffd4   # sw      a0, 100(a5)
00000000 00000197 0002 80002808  x10=00000000                            # lui     a0, 0x0
00000000 00000207 0004 800029f8  x2:0011ef2c RA:0011ef38 x13=0011db28    # lw      a3, 12(sp)
00000000 00000191 0000 800027d0  x16:00120000 x14=00120180               # addi    a4, a6, 384
00000000 00000193 0007 800027f8  x10:0000044f x10=00000448               # andi    a0, a0, -8
00000000 00000188 0001 800027e4  x13:0011db28 x12:00100000 x12=0001db28  # sub     a2, a3, a2
00000000 00000193 0008 800027f8  x10:0000044f x10=00000448               # andi    a0, a0, -8
00000000 00000198 0002 8000280c  x10:00000000 x4:0011f750 x10=0011f750   # add     a0, a0, tp
00000000 00000199 0002 80002810  x10:0011f750 x17:ffff0000 WA:0011f758   # sw      a7, 8(a0)
00000000 00000200 0002 80002814  x10=00000000                            # lui     a0, 0x0
00000000 00000208 0004 800029fc  x2:0011ef2c RA:0011ef3c x14=01000000    # lw      a4, 16(sp)
00000000 00000194 0007 800027fc  x15:0011ff70 x10:00000448 WA:0011ffcc   # sw      a0, 92(a5)
00000000 00000189 0001 800027e8  x15:0011ff70 x12:0001db28 WA:0011ffc4   # sw      a2, 84(a5)
00000000 00000194 0008 800027fc  x15:0011ff70 x10:00000448 WA:0011ffcc   # sw      a0, 92(a5)
00000000 00000195 0008 80002800  x15:0011ff70 WA:0011ffd0                # sw      zero, 96(a5)
00000000 00000201 0002 80002818  x10:00000000 x4:0011f750 x10=0011f750   # add     a0, a0, tp
00000000 00000202 0002 8000281c  x10:0011f750 x14:00120180 WA:0011f75c   # sw      a4, 12(a0)
00000000 00000203 0002 80002820  x1:800029ec                             # ret
00000000 00000209 0004 80002a00  x2:0011ef2c x2=0011ef40                 # addi    sp, sp, 20
00000000 00000190 0001 800027ec  x15:0011ff70 x10:00100000 WA:0011ffc8   # sw      a0, 88(a5)
00000000 00000207 0005 800029f8  x2:0011eb24 RA:0011eb30 x13=0011db28    # lw      a3, 12(sp)
00000000 00000196 0008 80002804  x15:0011ff70 x10:00000448 WA:0011ffd4   # sw      a0, 100(a5)
00000000 00000192 0000 800027d4  x15:0011ff70 x14:00120180 WA:0011fff0   # sw      a4, 128(a5)
00000000 00000195 0007 80002800  x15:0011ff70 WA:0011ffd0                # sw      zero, 96(a5)
00000000 00000204 0002 800029ec  x2:0011f73c RA:0011f73c x10=00000002    # lw      a0, 0(sp)
00000000 00000205 0002 800029f0  x2:0011f73c RA:0011f740 x11=00000009    # lw      a1, 4(sp)
00000000 00000191 0001 800027f0  x11:80002fac RA:80002fac x10=00000000   # lw      a0, 0(a1)
00000000 00000208 0005 800029fc  x2:0011eb24 RA:0011eb34 x14=01000000    # lw      a4, 16(sp)
00000000 00000197 0008 80002808  x10=00000000                            # lui     a0, 0x0
00000000 00000193 0000 800027d8  x12:00100000 x10=00100007               # addi    a0, a2, 7
00000000 00000196 0007 80002804  x15:0011ff70 x10:00000448 WA:0011ffd4   # sw      a0, 100(a5)
00000000 00000197 0007 80002808  x10=00000000                            # lui     a0, 0x0
00000000 00000206 0002 800029f4  x2:0011f73c RA:0011f744 x12=00100000    # lw      a2, 8(sp)
00000000 00000192 0001 800027f4  x10:00000000 x10=0000044f               # addi    a0, a0, 1103
00000000 00000193 0001 800027f8  x10:0000044f x10=00000448               # andi    a0, a0, -8
00000000 00000194 0001 800027fc  x15:0011ff70 x10:00000448 WA:0011ffcc   # sw      a0, 92(a5)
00000000 00000195 0001 80002800  x15:0011ff70 WA:0011ffd0                # sw      zero, 96(a5)
00000000 00000196 0001 80002804  x15:0011ff70 x10:00000448 WA:0011ffd4   # sw      a0, 100(a5)
00000000 00000197 0001 80002808  x10=00000000                            # lui     a0, 0x0
00000000 00000198 0007 8000280c  x10:00000000 x4:0011e328 x10=0011e328   # add     a0, a0, tp
00000000 00000199 0007 80002810  x10:0011e328 x17:ffff0000 WA:0011e330   # sw      a7, 8(a0)
00000000 00000200 0007 80002814  x10=00000000                            # lui     a0, 0x0
00000000 00000198 0008 8000280c  x10:00000000 x4:0011df20 x10=0011df20   # add     a0, a0, tp
00000000 00000194 0000 800027dc  x10:00100007 x10=00100000               # andi    a0, a0, -8
00000000 00000210 0004 80002a04  x5=80002a04                             # auipc   t0, 0x0
00000000 00000198 0001 8000280c  x10:00000000 x4:0011fb58 x10=0011fb58   # add     a0, a0, tp
00000000 00000199 0001 80002810  x10:0011fb58 x17:ffff0000 WA:0011fb60   # sw      a7, 8(a0)
00000000 00000200 0001 80002814  x10=00000000                            # lui     a0, 0x0
00000000 00000209 0005 80002a00  x2:0011eb24 x2=0011eb38                 # addi    sp, sp, 20
00000000 00000199 0008 80002810  x10:0011df20 x17:ffff0000 WA:0011df28   # sw      a7, 8(a0)
00000000 00000195 0000 800027e0  x15:0011ff70 x10:00100000 WA:0011ffc0   # sw      a0, 80(a5)
00000000 00000211 0004 80002a08  x5:80002a04 x5=80002a40                 # addi    t0, t0, 60
00000000 00000207 0002 800029f8  x2:0011f73c RA:0011f748 x13=0011db28    # lw      a3, 12(sp)
00000000 00000201 0007 80002818  x10:00000000 x4:0011e328 x10=0011e328   # add     a0, a0, tp
00000000 00000201 0001 80002818  x10:00000000 x4:0011fb58 x10=0011fb58   # add     a0, a0, tp
00000000 00000202 0001 8000281c  x10:0011fb58 x14:00120180 WA:0011fb64   # sw      a4, 12(a0)
00000000 00000203 0001 80002820  x1:800029ec                             # ret
00000000 00000204 0001 800029ec  x2:0011fb44 RA:0011fb44 x10=00000001    # lw      a0, 0(sp)
00000000 00000210 0005 80002a04  x5=80002a04                             # auipc   t0, 0x0
00000000 00000200 0008 80002814  x10=00000000                            # lui     a0, 0x0
00000000 00000196 0000 800027e4  x13:0011db28 x12:00100000 x12=0001db28  # sub     a2, a3, a2
00000000 00000212 0004 80002a0c  x5:80002a40                             # csrw    mtvec, t0
00000000 00000208 0002 800029fc  x2:0011f73c RA:0011f74c x14=01000000    # lw      a4, 16(sp)
00000000 00000202 0007 8000281c  x10:0011e328 x14:00120180 WA:0011e334   # sw      a4, 12(a0)
00000000 00000205 0001 800029f0  x2:0011fb44 RA:0011fb48 x11=00000009    # lw      a1, 4(sp)
00000000 00000206 0001 800029f4  x2:0011fb44 RA:0011fb4c x12=00100000    # lw      a2, 8(sp)
00000000 00000211 0005 80002a08  x5:80002a04 x5=80002a40                 # addi    t0, t0, 60
00000000 00000197 0000 800027e8  x15:0011ff70 x12:0001db28 WA:0011ffc4   # sw      a2, 84(a5)
00000000 00000212 0005 80002a0c  x5:80002a40                             # csrw    mtvec, t0
00000000 00000209 0002 80002a00  x2:0011f73c x2=0011f750                 # addi    sp, sp, 20
00000000 00000210 0002 80002a04  x5=80002a04                             # auipc   t0, 0x0
00000000 00000211 0002 80002a08  x5:80002a04 x5=80002a40                 # addi    t0, t0, 60
00000000 00000212 0002 80002a0c  x5:80002a40                             # csrw    mtvec, t0
00000000 00000198 0000 800027ec  x15:0011ff70 x10:00100000 WA:0011ffc8   # sw      a0, 88(a5)
00000000 00000213 0004 80002a10  x1=80002a10                             # auipc   ra, 0x0
00000000 00000213 0005 80002a10  x1=80002a10                             # auipc   ra, 0x0
00000000 00000203 0007 80002820  x1:800029ec                             # ret
00000000 00000207 0001 800029f8  x2:0011fb44 RA:0011fb50 x13=0011db28    # lw      a3, 12(sp)
00000000 00000208 0001 800029fc  x2:0011fb44 RA:0011fb54 x14=01000000    # lw      a4, 16(sp)
00000000 00000209 0001 80002a00  x2:0011fb44 x2=0011fb58                 # addi    sp, sp, 20
00000000 00000199 0000 800027f0  x11:80002fac RA:80002fac x10=00000000   # lw      a0, 0(a1)
00000000 00000214 0004 80002a14  x1:80002a10 x1=80002a18                 # jalr    ra, ra, 544
00000000 00000214 0005 80002a14  x1:80002a10 x1=80002a18                 # jalr    ra, ra, 544
00000000 00000204 0007 800029ec  x2:0011e314 RA:0011e314 x10=00000007    # lw      a0, 0(sp)
00000000 00000201 0008 80002818  x10:00000000 x4:0011df20 x10=0011df20   # add     a0, a0, tp
00000000 00000213 0002 80002a10  x1=80002a10                             # auipc   ra, 0x0
00000000 00000210 0001 80002a04  x5=80002a04                             # auipc   t0, 0x0
00000000 00000200 0000 800027f4  x10:00000000 x10=0000044f               # addi    a0, a0, 1103
00000000 00000201 0000 800027f8  x10:0000044f x10=00000448               # andi    a0, a0, -8
00000000 00000202 0000 800027fc  x15:0011ff70 x10:00000448 WA:0011ffcc   # sw      a0, 92(a5)
00000000 00000203 0000 80002800  x15:0011ff70 WA:0011ffd0                # sw      zero, 96(a5)
00000000 00000205 0007 800029f0  x2:0011e314 RA:0011e318 x11=00000009    # lw      a1, 4(sp)
00000000 00000214 0002 80002a14  x1:80002a10 x1=80002a18                 # jalr    ra, ra, 544
00000000 00000211 0001 80002a08  x5:80002a04 x5=80002a40                 # addi    t0, t0, 60
00000000 00000215 0004 80002c30  x2:0011ef40 x2=0011ef3c                 # addi    sp, sp, -4
00000000 00000215 0005 80002c30  x2:0011eb38 x2=0011eb34                 # addi    sp, sp, -4
00000000 00000204 0000 80002804  x15:0011ff70 x10:00000448 WA:0011ffd4   # sw      a0, 100(a5)
00000000 00000205 0000 80002808  x10=00000000                            # lui     a0, 0x0
00000000 00000206 0007 800029f4  x2:0011e314 RA:0011e31c x12=00100000    # lw      a2, 8(sp)
00000000 00000215 0002 80002c30  x2:0011f750 x2=0011f74c                 # addi    sp, sp, -4
00000000 00000212 0001 80002a0c  x5:80002a40                             # csrw    mtvec, t0
00000000 00000213 0001 80002a10  x1=80002a10                             # auipc   ra, 0x0
00000000 00000216 0005 80002c34  x2:0011eb34 x1:80002a18 WA:0011eb34     # sw      ra, 0(sp)
00000000 00000214 0001 80002a14  x1:80002a10 x1=80002a18                 # jalr    ra, ra, 544
00000000 00000202 0008 8000281c  x10:0011df20 x14:00120180 WA:0011df2c   # sw      a4, 12(a0)
00000000 00000203 0008 80002820  x1:800029ec                             # ret
00000000 00000216 0002 80002c34  x2:0011f74c x1:80002a18 WA:0011f74c     # sw      ra, 0(sp)
00000000 00000216 0004 80002c34  x2:0011ef3c x1:80002a18 WA:0011ef3c     # sw      ra, 0(sp)
00000000 00000217 0005 80002c38  x1=80002c38                             # auipc   ra, 0x0
00000000 00000215 0001 80002c30  x2:0011fb58 x2=0011fb54                 # addi    sp, sp, -4
00000000 00000206 0000 8000280c  x10:00000000 x4:0011ff60 x10=0011ff60   # add     a0, a0, tp
00000000 00000207 0007 800029f8  x2:0011e314 RA:0011e320 x13=0011db28    # lw      a3, 12(sp)
00000000 00000208 0007 800029fc  x2:0011e314 RA:0011e324 x14=01000000    # lw      a4, 16(sp)
00000000 00000209 0007 80002a00  x2:0011e314 x2=0011e328                 # addi    sp, sp, 20
00000000 00000210 0007 80002a04  x5=80002a04                             # auipc   t0, 0x0
00000000 00000211 0007 80002a08  x5:80002a04 x5=80002a40                 # addi    t0, t0, 60
00000000 00000212 0007 80002a0c  x5:80002a40                             # csrw    mtvec, t0
00000000 00000216 0001 80002c34  x2:0011fb54 x1:80002a18 WA:0011fb54     # sw      ra, 0(sp)
00000000 00000217 0001 80002c38  x1=80002c38                             # auipc   ra, 0x0
00000000 00000218 0001 80002c3c  x1:80002c38 x1=80002c40                 # jalr    ra, ra, -1628
00000000 00000217 0002 80002c38  x1=80002c38                             # auipc   ra, 0x0
00000000 00000217 0004 80002c38  x1=80002c38                             # auipc   ra, 0x0
00000000 00000218 0005 80002c3c  x1:80002c38 x1=80002c40                 # jalr    ra, ra, -1628
00000000 00000213 0007 80002a10  x1=80002a10                             # auipc   ra, 0x0
00000000 00000219 0005 800025dc  x10=00000000                            # lui     a0, 0x0
00000000 00000207 0000 80002810  x10:0011ff60 x17:ffff0000 WA:0011ff68   # sw      a7, 8(a0)
00000000 00000220 0005 800025e0  x10:00000000 x4:0011eb38 x10=0011eb38   # add     a0, a0, tp
00000000 00000208 0000 80002814  x10=00000000                            # lui     a0, 0x0
00000000 00000218 0002 80002c3c  x1:80002c38 x1=80002c40                 # jalr    ra, ra, -1628
00000000 00000218 0004 80002c3c  x1:80002c38 x1=80002c40                 # jalr    ra, ra, -1628
00000000 00000214 0007 80002a14  x1:80002a10 x1=80002a18                 # jalr    ra, ra, 544
00000000 00000219 0004 800025dc  x10=00000000                            # lui     a0, 0x0
00000000 00000219 0001 800025dc  x10=00000000                            # lui     a0, 0x0
00000000 00000221 0005 800025e4  x10:0011eb38 RA:0011eb38 x10=0011ff70   # lw      a0, 0(a0)
00000000 00000209 0000 80002818  x10:00000000 x4:0011ff60 x10=0011ff60   # add     a0, a0, tp
00000000 00000219 0002 800025dc  x10=00000000                            # lui     a0, 0x0
00000000 00000220 0002 800025e0  x10:00000000 x4:0011f750 x10=0011f750   # add     a0, a0, tp
00000000 00000221 0002 800025e4  x10:0011f750 RA:0011f750 x10=0011ff70   # lw      a0, 0(a0)
00000000 00000220 0004 800025e0  x10:00000000 x4:0011ef40 x10=0011ef40   # add     a0, a0, tp
00000000 00000220 0001 800025e0  x10:00000000 x4:0011fb58 x10=0011fb58   # add     a0, a0, tp
00000000 00000222 0005 800025e8  x10:0011ff70 RA:0011ff70 x10=0011ff70   # lw      a0, 0(a0)
00000000 00000210 0000 8000281c  x10:0011ff60 x14:00120180 WA:0011ff6c   # sw      a4, 12(a0)
00000000 00000204 0008 800029ec  x2:0011df0c RA:0011df0c x10=00000008    # lw      a0, 0(sp)
00000000 00000205 0008 800029f0  x2:0011df0c RA:0011df10 x11=00000009    # lw      a1, 4(sp)
00000000 00000222 0002 800025e8  x10:0011ff70 RA:0011ff70 x10=0011ff70   # lw      a0, 0(a0)
00000000 00000223 0002 800025ec  x10:0011ff70 RA:0011ffe0 x10=00120190   # lw      a0, 112(a0)
00000000 00000224 0002 800025f0  x1:80002c40                             # ret
00000000 00000223 0005 800025ec  x10:0011ff70 RA:0011ffe0 x10=00120190   # lw      a0, 112(a0)
00000000 00000211 0000 80002820  x1:800029ec                             # ret
00000000 00000215 0007 80002c30  x2:0011e328 x2=0011e324                 # addi    sp, sp, -4
00000000 00000206 0008 800029f4  x2:0011df0c RA:0011df14 x12=00100000    # lw      a2, 8(sp)
00000000 00000221 0004 800025e4  x10:0011ef40 RA:0011ef40 x10=0011ff70   # lw      a0, 0(a0)
00000000 00000221 0001 800025e4  x10:0011fb58 RA:0011fb58 x10=0011ff70   # lw      a0, 0(a0)
00000000 00000224 0005 800025f0  x1:80002c40                             # ret
00000000 00000212 0000 800029ec  x2:0011ff4c RA:0011ff4c x10=00000000    # lw      a0, 0(sp)
00000000 00000216 0007 80002c34  x2:0011e324 x1:80002a18 WA:0011e324     # sw      ra, 0(sp)
00000000 00000207 0008 800029f8  x2:0011df0c RA:0011df18 x13=0011db28    # lw      a3, 12(sp)
00000000 00000222 0004 800025e8  x10:0011ff70 RA:0011ff70 x10=0011ff70   # lw      a0, 0(a0)
00000000 00000222 0001 800025e8  x10:0011ff70 RA:0011ff70 x10=0011ff70   # lw      a0, 0(a0)
00000000 00000213 0000 800029f0  x2:0011ff4c RA:0011ff50 x11=00000009    # lw      a1, 4(sp)
00000000 00000217 0007 80002c38  x1=80002c38                             # auipc   ra, 0x0
00000000 00000208 0008 800029fc  x2:0011df0c RA:0011df1c x14=01000000    # lw      a4, 16(sp)
00000000 00000223 0004 800025ec  x10:0011ff70 RA:0011ffe0 x10=00120190   # lw      a0, 112(a0)
00000000 00000223 0001 800025ec  x10:0011ff70 RA:0011ffe0 x10=00120190   # lw      a0, 112(a0)
00000000 00000214 0000 800029f4  x2:0011ff4c RA:0011ff54 x12=00100000    # lw      a2, 8(sp)
00000000 00000218 0007 80002c3c  x1:80002c38 x1=80002c40                 # jalr    ra, ra, -1628
00000000 00000209 0008 80002a00  x2:0011df0c x2=0011df20                 # addi    sp, sp, 20
00000000 00000224 0004 800025f0  x1:80002c40                             # ret
00000000 00000224 0001 800025f0  x1:80002c40                             # ret
00000000 00000215 0000 800029f8  x2:0011ff4c RA:0011ff58 x13=0011db28    # lw      a3, 12(sp)
00000000 00000219 0007 800025dc  x10=00000000                            # lui     a0, 0x0
00000000 00000210 0008 80002a04  x5=80002a04                             # auipc   t0, 0x0
00000000 00000216 0000 800029fc  x2:0011ff4c RA:0011ff5c x14=01000000    # lw      a4, 16(sp)
00000000 00000220 0007 800025e0  x10:00000000 x4:0011e328 x10=0011e328   # add     a0, a0, tp
00000000 00000211 0008 80002a08  x5:80002a04 x5=80002a40                 # addi    t0, t0, 60
00000000 00000217 0000 80002a00  x2:0011ff4c x2=0011ff60                 # addi    sp, sp, 20
00000000 00000221 0007 800025e4  x10:0011e328 RA:0011e328 x10=0011ff70   # lw      a0, 0(a0)
00000000 00000212 0008 80002a0c  x5:80002a40                             # csrw    mtvec, t0
00000000 00000218 0000 80002a04  x5=80002a04                             # auipc   t0, 0x0
00000000 00000222 0007 800025e8  x10:0011ff70 RA:0011ff70 x10=0011ff70   # lw      a0, 0(a0)
00000000 00000223 0007 800025ec  x10:0011ff70 RA:0011ffe0 x10=00120190   # lw      a0, 112(a0)
00000000 00000213 0008 80002a10  x1=80002a10                             # auipc   ra, 0x0
00000000 00000219 0000 80002a08  x5:80002a04 x5=80002a40                 # addi    t0, t0, 60
00000000 00000224 0007 800025f0  x1:80002c40                             # ret
00000000 00000214 0008 80002a14  x1:80002a10 x1=80002a18                 # jalr    ra, ra, 544
00000000 00000220 0000 80002a0c  x5:80002a40                             # csrw    mtvec, t0
00000000 00000215 0008 80002c30  x2:0011df20 x2=0011df1c                 # addi    sp, sp, -4
00000000 00000221 0000 80002a10  x1=80002a10                             # auipc   ra, 0x0
00000000 00000216 0008 80002c34  x2:0011df1c x1:80002a18 WA:0011df1c     # sw      ra, 0(sp)
00000000 00000222 0000 80002a14  x1:80002a10 x1=80002a18                 # jalr    ra, ra, 544
00000000 00000217 0008 80002c38  x1=80002c38                             # auipc   ra, 0x0
00000000 00000223 0000 80002c30  x2:0011ff60 x2=0011ff5c                 # addi    sp, sp, -4
00000000 00000218 0008 80002c3c  x1:80002c38 x1=80002c40                 # jalr    ra, ra, -1628
00000000 00000224 0000 80002c34  x2:0011ff5c x1:80002a18 WA:0011ff5c     # sw      ra, 0(sp)
00000000 00000219 0008 800025dc  x10=00000000                            # lui     a0, 0x0
00000000 00000225 0000 80002c38  x1=80002c38                             # auipc   ra, 0x0
00000000 00000220 0008 800025e0  x10:00000000 x4:0011df20 x10=0011df20   # add     a0, a0, tp
00000000 00000226 0000 80002c3c  x1:80002c38 x1=80002c40                 # jalr    ra, ra, -1628
00000000 00000221 0008 800025e4  x10:0011df20 RA:0011df20 x10=0011ff70   # lw      a0, 0(a0)
00000000 00000227 0000 800025dc  x10=00000000                            # lui     a0, 0x0
00000000 00000222 0008 800025e8  x10:0011ff70 RA:0011ff70 x10=0011ff70   # lw      a0, 0(a0)
00000000 00000228 0000 800025e0  x10:00000000 x4:0011ff60 x10=0011ff60   # add     a0, a0, tp
00000000 00000223 0008 800025ec  x10:0011ff70 RA:0011ffe0 x10=00120190   # lw      a0, 112(a0)
00000000 00000229 0000 800025e4  x10:0011ff60 RA:0011ff60 x10=0011ff70   # lw      a0, 0(a0)
00000000 00000224 0008 800025f0  x1:80002c40                             # ret
00000000 00000230 0000 800025e8  x10:0011ff70 RA:0011ff70 x10=0011ff70   # lw      a0, 0(a0)
00000000 00000231 0000 800025ec  x10:0011ff70 RA:0011ffe0 x10=00120190   # lw      a0, 112(a0)
00000000 00000232 0000 800025f0  x1:80002c40                             # ret
00000000 00000225 0008 80002c40  x10:00120190 RA:00120190 x10=00000000   # lw      a0, 0(a0)
00000000 00000225 0005 80002c40  x10:00120190 RA:00120190 x10=00000000   # lw      a0, 0(a0)
00000000 00000226 0008 80002c44  x10:00000000                            # mv      zero, a0
00000000 00000225 0007 80002c40  x10:00120190 RA:00120190 x10=00000000   # lw      a0, 0(a0)
00000000 00000225 0003 80002c40  x10:00120190 RA:00120190 x10=00000000   # lw      a0, 0(a0)
00000000 00000226 0003 80002c44  x10:00000000                            # mv      zero, a0
00000000 00000225 0006 80002c40  x10:00120190 RA:00120190 x10=00000000   # lw      a0, 0(a0)
00000000 00000226 0005 80002c44  x10:00000000                            # mv      zero, a0
00000000 00000227 0008 80002c48  x2:0011df1c RA:0011df1c x1=80002a18     # lw      ra, 0(sp)
00000000 00000225 0001 80002c40  x10:00120190 RA:00120190 x10=00000000   # lw      a0, 0(a0)
00000000 00000226 0007 80002c44  x10:00000000                            # mv      zero, a0
00000000 00000225 0002 80002c40  x10:00120190 RA:00120190 x10=00000000   # lw      a0, 0(a0)
00000000 00000227 0003 80002c48  x2:0011f344 RA:0011f344 x1=80002a18     # lw      ra, 0(sp)
00000000 00000228 0003 80002c4c  x2:0011f344 x2=0011f348                 # addi    sp, sp, 4
00000000 00000229 0003 80002c50  x1:80002a18                             # ret
00000000 00000227 0005 80002c48  x2:0011eb34 RA:0011eb34 x1=80002a18     # lw      ra, 0(sp)
00000000 00000228 0008 80002c4c  x2:0011df1c x2=0011df20                 # addi    sp, sp, 4
00000000 00000229 0008 80002c50  x1:80002a18                             # ret
00000000 00000230 0008 80002a18  x1=80000a18                             # auipc   ra, 0xffffe
00000000 00000231 0008 80002a1c  x1:80000a18 x1=80002a20                 # jalr    ra, ra, -996
00000000 00000226 0006 80002c44  x10:00000000                            # mv      zero, a0
00000000 00000230 0003 80002a18  x1=80000a18                             # auipc   ra, 0xffffe
00000000 00000227 0006 80002c48  x2:0011e72c RA:0011e72c x1=80002a18     # lw      ra, 0(sp)
00000000 00000226 0001 80002c44  x10:00000000                            # mv      zero, a0
00000000 00000227 0007 80002c48  x2:0011e324 RA:0011e324 x1=80002a18     # lw      ra, 0(sp)
00000000 00000226 0002 80002c44  x10:00000000                            # mv      zero, a0
00000000 00000232 0008 80000634  x10=00000000                            # lui     a0, 0x0
00000000 00000233 0008 80000638  x10:00000000 x4:0011df20 x10=0011df20   # add     a0, a0, tp
00000000 00000228 0005 80002c4c  x2:0011eb34 x2=0011eb38                 # addi    sp, sp, 4
00000000 00000229 0005 80002c50  x1:80002a18                             # ret
00000000 00000230 0005 80002a18  x1=80000a18                             # auipc   ra, 0xffffe
00000000 00000231 0005 80002a1c  x1:80000a18 x1=80002a20                 # jalr    ra, ra, -996
00000000 00000227 0002 80002c48  x2:0011f74c RA:0011f74c x1=80002a18     # lw      ra, 0(sp)
00000000 00000232 0005 80000634  x10=00000000                            # lui     a0, 0x0
00000000 00000233 0005 80000638  x10:00000000 x4:0011eb38 x10=0011eb38   # add     a0, a0, tp
00000000 00000231 0003 80002a1c  x1:80000a18 x1=80002a20                 # jalr    ra, ra, -996
00000000 00000228 0006 80002c4c  x2:0011e72c x2=0011e730                 # addi    sp, sp, 4
00000000 00000227 0001 80002c48  x2:0011fb54 RA:0011fb54 x1=80002a18     # lw      ra, 0(sp)
00000000 00000228 0007 80002c4c  x2:0011e324 x2=0011e328                 # addi    sp, sp, 4
00000000 00000229 0007 80002c50  x1:80002a18                             # ret
00000000 00000230 0007 80002a18  x1=80000a18                             # auipc   ra, 0xffffe
00000000 00000231 0007 80002a1c  x1:80000a18 x1=80002a20                 # jalr    ra, ra, -996
00000000 00000232 0003 80000634  x10=00000000                            # lui     a0, 0x0
00000000 00000229 0006 80002c50  x1:80002a18                             # ret
00000000 00000228 0001 80002c4c  x2:0011fb54 x2=0011fb58                 # addi    sp, sp, 4
00000000 00000228 0002 80002c4c  x2:0011f74c x2=0011f750                 # addi    sp, sp, 4
00000000 00000229 0002 80002c50  x1:80002a18                             # ret
00000000 00000230 0002 80002a18  x1=80000a18                             # auipc   ra, 0xffffe
00000000 00000231 0002 80002a1c  x1:80000a18 x1=80002a20                 # jalr    ra, ra, -996
00000000 00000232 0002 80000634  x10=00000000                            # lui     a0, 0x0
00000000 00000233 0002 80000638  x10:00000000 x4:0011f750 x10=0011f750   # add     a0, a0, tp
00000000 00000229 0001 80002c50  x1:80002a18                             # ret
00000000 00000230 0001 80002a18  x1=80000a18                             # auipc   ra, 0xffffe
00000000 00000231 0001 80002a1c  x1:80000a18 x1=80002a20                 # jalr    ra, ra, -996
00000000 00000232 0007 80000634  x10=00000000                            # lui     a0, 0x0
00000000 00000233 0007 80000638  x10:00000000 x4:0011e328 x10=0011e328   # add     a0, a0, tp
00000000 00000234 0007 8000063c  x10:0011e328 RA:0011e32c x10=00000007   # lw      a0, 4(a0)
00000000 00000235 0007 80000640  x10:00000007                            # beqz    a0, pc + 12
00000000 00000236 0007 80000644  x10=00000000                            # li      a0, 0
00000000 00000234 0005 8000063c  x10:0011eb38 RA:0011eb3c x10=00000005   # lw      a0, 4(a0)
00000000 00000232 0001 80000634  x10=00000000                            # lui     a0, 0x0
00000000 00000233 0003 80000638  x10:00000000 x4:0011f348 x10=0011f348   # add     a0, a0, tp
00000000 00000234 0003 8000063c  x10:0011f348 RA:0011f34c x10=00000003   # lw      a0, 4(a0)
00000000 00000235 0003 80000640  x10:00000003                            # beqz    a0, pc + 12
00000000 00000236 0003 80000644  x10=00000000                            # li      a0, 0
00000000 00000237 0003 80000648  x1:80002a20                             # ret
00000000 00000235 0005 80000640  x10:00000005                            # beqz    a0, pc + 12
00000000 00000233 0001 80000638  x10:00000000 x4:0011fb58 x10=0011fb58   # add     a0, a0, tp
00000000 00000234 0001 8000063c  x10:0011fb58 RA:0011fb5c x10=00000001   # lw      a0, 4(a0)
00000000 00000235 0001 80000640  x10:00000001                            # beqz    a0, pc + 12
00000000 00000236 0001 80000644  x10=00000000                            # li      a0, 0
00000000 00000237 0007 80000648  x1:80002a20                             # ret
00000000 00000238 0003 80002a20  x10:00000000 x8=00000000                # mv      s0, a0
00000000 00000236 0005 80000644  x10=00000000                            # li      a0, 0
00000000 00000230 0006 80002a18  x1=80000a18                             # auipc   ra, 0xffffe
00000000 00000234 0002 8000063c  x10:0011f750 RA:0011f754 x10=00000002   # lw      a0, 4(a0)
00000000 00000234 0008 8000063c  x10:0011df20 RA:0011df24 x10=00000008   # lw      a0, 4(a0)
00000000 00000235 0008 80000640  x10:00000008                            # beqz    a0, pc + 12
00000000 00000238 0007 80002a20  x10:00000000 x8=00000000                # mv      s0, a0
00000000 00000239 0007 80002a24  x1=80002a24                             # auipc   ra, 0x0
00000000 00000240 0007 80002a28  x1:80002a24 x1=80002a2c                 # jalr    ra, ra, 524
00000000 00000241 0007 80002c30  x2:0011e328 x2=0011e324                 # addi    sp, sp, -4
00000000 00000242 0007 80002c34  x2:0011e324 x1:80002a2c WA:0011e324     # sw      ra, 0(sp)
00000000 00000243 0007 80002c38  x1=80002c38                             # auipc   ra, 0x0
00000000 00000236 0008 80000644  x10=00000000                            # li      a0, 0
00000000 00000239 0003 80002a24  x1=80002a24                             # auipc   ra, 0x0
00000000 00000237 0005 80000648  x1:80002a20                             # ret
00000000 00000238 0005 80002a20  x10:00000000 x8=00000000                # mv      s0, a0
00000000 00000239 0005 80002a24  x1=80002a24                             # auipc   ra, 0x0
00000000 00000240 0005 80002a28  x1:80002a24 x1=80002a2c                 # jalr    ra, ra, 524
00000000 00000241 0005 80002c30  x2:0011eb38 x2=0011eb34                 # addi    sp, sp, -4
00000000 00000237 0008 80000648  x1:80002a20                             # ret
00000000 00000238 0008 80002a20  x10:00000000 x8=00000000                # mv      s0, a0
00000000 00000239 0008 80002a24  x1=80002a24                             # auipc   ra, 0x0
00000000 00000231 0006 80002a1c  x1:80000a18 x1=80002a20                 # jalr    ra, ra, -996
00000000 00000237 0001 80000648  x1:80002a20                             # ret
00000000 00000232 0006 80000634  x10=00000000                            # lui     a0, 0x0
00000000 00000238 0001 80002a20  x10:00000000 x8=00000000                # mv      s0, a0
00000000 00000242 0005 80002c34  x2:0011eb34 x1:80002a2c WA:0011eb34     # sw      ra, 0(sp)
00000000 00000240 0003 80002a28  x1:80002a24 x1=80002a2c                 # jalr    ra, ra, 524
00000000 00000240 0008 80002a28  x1:80002a24 x1=80002a2c                 # jalr    ra, ra, 524
00000000 00000235 0002 80000640  x10:00000002                            # beqz    a0, pc + 12
00000000 00000244 0007 80002c3c  x1:80002c38 x1=80002c40                 # jalr    ra, ra, -1628
00000000 00000245 0007 800025dc  x10=00000000                            # lui     a0, 0x0
00000000 00000246 0007 800025e0  x10:00000000 x4:0011e328 x10=0011e328   # add     a0, a0, tp
00000000 00000243 0005 80002c38  x1=80002c38                             # auipc   ra, 0x0
00000000 00000244 0005 80002c3c  x1:80002c38 x1=80002c40                 # jalr    ra, ra, -1628
00000000 00000245 0005 800025dc  x10=00000000                            # lui     a0, 0x0
00000000 00000246 0005 800025e0  x10:00000000 x4:0011eb38 x10=0011eb38   # add     a0, a0, tp
00000000 00000247 0005 800025e4  x10:0011eb38 RA:0011eb38 x10=0011ff70   # lw      a0, 0(a0)
00000000 00000248 0005 800025e8  x10:0011ff70 RA:0011ff70 x10=0011ff70   # lw      a0, 0(a0)
00000000 00000247 0007 800025e4  x10:0011e328 RA:0011e328 x10=0011ff70   # lw      a0, 0(a0)
00000000 00000248 0007 800025e8  x10:0011ff70 RA:0011ff70 x10=0011ff70   # lw      a0, 0(a0)
00000000 00000249 0007 800025ec  x10:0011ff70 RA:0011ffe0 x10=00120190   # lw      a0, 112(a0)
00000000 00000250 0007 800025f0  x1:80002c40                             # ret
00000000 00000239 0001 80002a24  x1=80002a24                             # auipc   ra, 0x0
00000000 00000240 0001 80002a28  x1:80002a24 x1=80002a2c                 # jalr    ra, ra, 524
00000000 00000241 0001 80002c30  x2:0011fb58 x2=0011fb54                 # addi    sp, sp, -4
00000000 00000249 0005 800025ec  x10:0011ff70 RA:0011ffe0 x10=00120190   # lw      a0, 112(a0)
00000000 00000241 0003 80002c30  x2:0011f348 x2=0011f344                 # addi    sp, sp, -4
00000000 00000242 0003 80002c34  x2:0011f344 x1:80002a2c WA:0011f344     # sw      ra, 0(sp)
00000000 00000236 0002 80000644  x10=00000000                            # li      a0, 0
00000000 00000233 0006 80000638  x10:00000000 x4:0011e730 x10=0011e730   # add     a0, a0, tp
00000000 00000242 0001 80002c34  x2:0011fb54 x1:80002a2c WA:0011fb54     # sw      ra, 0(sp)
00000000 00000234 0006 8000063c  x10:0011e730 RA:0011e734 x10=00000006   # lw      a0, 4(a0)
00000000 00000241 0008 80002c30  x2:0011df20 x2=0011df1c                 # addi    sp, sp, -4
00000000 00000243 0003 80002c38  x1=80002c38                             # auipc   ra, 0x0
00000000 00000237 0002 80000648  x1:80002a20                             # ret
00000000 00000243 0001 80002c38  x1=80002c38                             # auipc   ra, 0x0
00000000 00000244 0001 80002c3c  x1:80002c38 x1=80002c40                 # jalr    ra, ra, -1628
00000000 00000245 0001 800025dc  x10=00000000                            # lui     a0, 0x0
00000000 00000242 0008 80002c34  x2:0011df1c x1:80002a2c WA:0011df1c     # sw      ra, 0(sp)
00000000 00000243 0008 80002c38  x1=80002c38                             # auipc   ra, 0x0
00000000 00000238 0002 80002a20  x10:00000000 x8=00000000                # mv      s0, a0
00000000 00000250 0005 800025f0  x1:80002c40                             # ret
00000000 00000235 0006 80000640  x10:00000006                            # beqz    a0, pc + 12
00000000 00000246 0001 800025e0  x10:00000000 x4:0011fb58 x10=0011fb58   # add     a0, a0, tp
00000000 00000247 0001 800025e4  x10:0011fb58 RA:0011fb58 x10=0011ff70   # lw      a0, 0(a0)
00000000 00000248 0001 800025e8  x10:0011ff70 RA:0011ff70 x10=0011ff70   # lw      a0, 0(a0)
00000000 00000249 0001 800025ec  x10:0011ff70 RA:0011ffe0 x10=00120190   # lw      a0, 112(a0)
00000000 00000250 0001 800025f0  x1:80002c40                             # ret
00000000 00000244 0003 80002c3c  x1:80002c38 x1=80002c40                 # jalr    ra, ra, -1628
00000000 00000245 0003 800025dc  x10=00000000                            # lui     a0, 0x0
00000000 00000239 0002 80002a24  x1=80002a24                             # auipc   ra, 0x0
00000000 00000236 0006 80000644  x10=00000000                            # li      a0, 0
00000000 00000246 0003 800025e0  x10:00000000 x4:0011f348 x10=0011f348   # add     a0, a0, tp
00000000 00000237 0006 80000648  x1:80002a20                             # ret
00000000 00000240 0002 80002a28  x1:80002a24 x1=80002a2c                 # jalr    ra, ra, 524
00000000 00000241 0002 80002c30  x2:0011f750 x2=0011f74c                 # addi    sp, sp, -4
00000000 00000242 0002 80002c34  x2:0011f74c x1:80002a2c WA:0011f74c     # sw      ra, 0(sp)
00000000 00000243 0002 80002c38  x1=80002c38                             # auipc   ra, 0x0
00000000 00000244 0002 80002c3c  x1:80002c38 x1=80002c40                 # jalr    ra, ra, -1628
00000000 00000245 0002 800025dc  x10=00000000                            # lui     a0, 0x0
00000000 00000246 0002 800025e0  x10:00000000 x4:0011f750 x10=0011f750   # add     a0, a0, tp
00000000 00000247 0002 800025e4  x10:0011f750 RA:0011f750 x10=0011ff70   # lw      a0, 0(a0)
00000000 00000248 0002 800025e8  x10:0011ff70 RA:0011ff70 x10=0011ff70   # lw      a0, 0(a0)
00000000 00000249 0002 800025ec  x10:0011ff70 RA:0011ffe0 x10=00120190   # lw      a0, 112(a0)
00000000 00000250 0002 800025f0  x1:80002c40                             # ret
00000000 00000244 0008 80002c3c  x1:80002c38 x1=80002c40                 # jalr    ra, ra, -1628
00000000 00000245 0008 800025dc  x10=00000000                            # lui     a0, 0x0
00000000 00000246 0008 800025e0  x10:00000000 x4:0011df20 x10=0011df20   # add     a0, a0, tp
00000000 00000247 0008 800025e4  x10:0011df20 RA:0011df20 x10=0011ff70   # lw      a0, 0(a0)
00000000 00000248 0008 800025e8  x10:0011ff70 RA:0011ff70 x10=0011ff70   # lw      a0, 0(a0)
00000000 00000249 0008 800025ec  x10:0011ff70 RA:0011ffe0 x10=00120190   # lw      a0, 112(a0)
00000000 00000250 0008 800025f0  x1:80002c40                             # ret
00000000 00000238 0006 80002a20  x10:00000000 x8=00000000                # mv      s0, a0
00000000 00000239 0006 80002a24  x1=80002a24                             # auipc   ra, 0x0
00000000 00000240 0006 80002a28  x1:80002a24 x1=80002a2c                 # jalr    ra, ra, 524
00000000 00000241 0006 80002c30  x2:0011e730 x2=0011e72c                 # addi    sp, sp, -4
00000000 00000242 0006 80002c34  x2:0011e72c x1:80002a2c WA:0011e72c     # sw      ra, 0(sp)
00000000 00000243 0006 80002c38  x1=80002c38                             # auipc   ra, 0x0
00000000 00000244 0006 80002c3c  x1:80002c38 x1=80002c40                 # jalr    ra, ra, -1628
00000000 00000245 0006 800025dc  x10=00000000                            # lui     a0, 0x0
00000000 00000246 0006 800025e0  x10:00000000 x4:0011e730 x10=0011e730   # add     a0, a0, tp
00000000 00000247 0006 800025e4  x10:0011e730 RA:0011e730 x10=0011ff70   # lw      a0, 0(a0)
00000000 00000248 0006 800025e8  x10:0011ff70 RA:0011ff70 x10=0011ff70   # lw      a0, 0(a0)
00000000 00000249 0006 800025ec  x10:0011ff70 RA:0011ffe0 x10=00120190   # lw      a0, 112(a0)
00000000 00000250 0006 800025f0  x1:80002c40                             # ret
00000000 00000247 0003 800025e4  x10:0011f348 RA:0011f348 x10=0011ff70   # lw      a0, 0(a0)
00000000 00000248 0003 800025e8  x10:0011ff70 RA:0011ff70 x10=0011ff70   # lw      a0, 0(a0)
00000000 00000249 0003 800025ec  x10:0011ff70 RA:0011ffe0 x10=00120190   # lw      a0, 112(a0)
00000000 00000225 0004 80002c40  x10:00120190 RA:00120190 x10=00000000   # lw      a0, 0(a0)
00000000 00000226 0004 80002c44  x10:00000000                            # mv      zero, a0
00000000 00000227 0004 80002c48  x2:0011ef3c RA:0011ef3c x1=80002a18     # lw      ra, 0(sp)
00000000 00000228 0004 80002c4c  x2:0011ef3c x2=0011ef40                 # addi    sp, sp, 4
00000000 00000250 0003 800025f0  x1:80002c40                             # ret
00000000 00000233 0000 80002c40  x10:00120190 RA:00120190 x10=00000000   # lw      a0, 0(a0)
00000000 00000234 0000 80002c44  x10:00000000                            # mv      zero, a0
00000000 00000235 0000 80002c48  x2:0011ff5c RA:0011ff5c x1=80002a18     # lw      ra, 0(sp)
00000000 00000236 0000 80002c4c  x2:0011ff5c x2=0011ff60                 # addi    sp, sp, 4
00000000 00000237 0000 80002c50  x1:80002a18                             # ret
00000000 00000238 0000 80002a18  x1=80000a18                             # auipc   ra, 0xffffe
00000000 00000239 0000 80002a1c  x1:80000a18 x1=80002a20                 # jalr    ra, ra, -996
00000000 00000240 0000 80000634  x10=00000000                            # lui     a0, 0x0
00000000 00000241 0000 80000638  x10:00000000 x4:0011ff60 x10=0011ff60   # add     a0, a0, tp
00000000 00000242 0000 8000063c  x10:0011ff60 RA:0011ff64 x10=00000000   # lw      a0, 4(a0)
00000000 00000243 0000 80000640  x10:00000000                            # beqz    a0, pc + 12
00000000 00000244 0000 8000064c  x10=00000019                            # li      a0, 25
00000000 00000245 0000 80000650  x6=80000650                             # auipc   t1, 0x0
00000000 00000246 0000 80000654  x6:80000650                             # jalr    zero, t1, 8
00000000 00000247 0000 80000658  x2:0011ff60 x2=0011ff40                 # addi    sp, sp, -32
00000000 00000248 0000 8000065c  x2:0011ff40 x1:80002a20 WA:0011ff5c     # sw      ra, 28(sp)
00000000 00000249 0000 80000660  x2:0011ff40 f08:        0.000000 WA:0011ff50 WA:0011ff54  # fsd     fs0, 16(sp)
00000000 00000250 0000 80000664  x11=00000000                            # lui     a1, 0x0
00000000 00000251 0000 80000668  x11:00000000 x4:0011ff60 x11=0011ff60   # add     a1, a1, tp
00000000 00000252 0000 8000066c  x11:0011ff60 RA:0011ff60 x11=0011ff70   # lw      a1, 0(a1)
00000000 00000253 0000 80000670  x11:0011ff70 RA:0011ff70 x11=0011ff70   # lw      a1, 0(a1)
00000000 00000254 0000 80000674  x11:0011ff70 RA:0011ffc8 x7=00100000    # lw      t2, 88(a1)
00000000 00000255 0000 80000678  x11:0011ff70 RA:0011ffc0 x13=00100000   # lw      a3, 80(a1)
00000000 00000256 0000 8000067c  x11:0011ff70 RA:0011ffc4 x15=0001db28   # lw      a5, 84(a1)
00000000 00000257 0000 80000680  x10:00000019 x12=000000c8               # slli    a2, a0, 3
00000000 00000258 0000 80000684  x7:00100000 x12:000000c8 x12=001000c8   # add     a2, t2, a2
00000000 00000259 0000 80000688  x15:0001db28 x13:00100000 x13=0011db28  # add     a3, a5, a3
00000000 00000260 0000 8000068c  x13:0011db28 x12:001000c8               # bgeu    a3, a2, pc + 36
00000000 00000261 0000 800006b0  x11:0011ff70 x12:001000c8 WA:0011ffc8   # sw      a2, 88(a1)
00000000 00000262 0000 800006b4  x11=00000001                            # li      a1, 1
00000000 00000263 0000 800006b8  x10:00000019 x11:00000001               # blt     a0, a1, pc - 28
00000000 00000264 0000 800006bc  x10:00000019 x5=00000018                # addi    t0, a0, -1
00000000 00000265 0000 800006c0  x5:00000018 x11=000000c0                # slli    a1, t0, 3
00000000 00000266 0000 800006c4  x7:00100000 x11:000000c0 x11=001000c0   # add     a1, t2, a1
00000000 00000267 0000 800006c8  x7:00100000 x12=00000001                # srli    a2, t2, 20
00000000 00000268 0000 800006cc  x12:00000001 x16=00000001               # snez    a6, a2
00000000 00000269 0000 800006d0  x11:001000c0 x7:00100000                # bgeu    a1, t2, pc + 176
00000000 00000270 0000 80000780  x12=00120000                            # lui     a2, 0x120
00000000 00000271 0000 80000784  x12:00120000 x12=00120001               # addi    a2, a2, 1
00000000 00000272 0000 80000788  x11:001000c0 x12:00120001 x11=00000001  # sltu    a1, a1, a2
00000000 00000273 0000 8000078c  x16:00000001 x11:00000001 x17=00000001  # and     a7, a6, a1
00000000 00000274 0000 80000790  x17:00000001                            # beqz    a7, pc - 176
00000000 00000275 0000 80000794  x15=00000000                            # li      a5, 0
00000000 00000276 0000 80000798  x11=00000008                            # li      a1, 8
00000000 00000277 0000 8000079c  x12=00000040                            # li      a2, 64
00000000 00000278 0000 800007a0  x5:00000018 x12:00000040 WA:00204810    # scfgw   t0, a2
00000000 00000279 0000 800007a4  x12=000000c0                            # li      a2, 192
00000000 00000280 0000 800007a8  x11:00000008 x12:000000c0 WA:00204830   # scfgw   a1, a2
00000000 00000281 0000 800007ac  x11=00000020                            # li      a1, 32
00000000 00000282 0000 800007b0  x11:00000020 WA:00204808                # scfgw   zero, a1
00000000 00000283 0000 800007b4  x7:00100000 WA:002048e0                 # scfgwi  t2, 896
00000000 00000284 0000 800007b8  x11=00000000                            # csrrsi  a1, ssr, 1
00000000 00000285 0000 800007bc  x11=800027bc                            # auipc   a1, 0x2
00000000 00000286 0000 800007c0  x11:800027bc x11=80002ed8               # addi    a1, a1, 1820
00000000 00000287 0000 800007c4  x11:80002ed8 RA:80002ed8 RA:80002edc f03=        1.414200  # fld     ft3, 0(a1)
00000000 00000288 0000 800007c8  x11=08421000                            # lui     a1, 0x8421
00000000 00000289 0000 800007cc  x11:08421000 x11=08421085               # addi    a1, a1, 133
00000000 00000290 0000 800007d0  x10:00000019 x13=00000019               # mv      a3, a0
00000000 00000291 0000 800007d4  x15:00000000 x11:08421085 x12=00000000  # mulhu   a2, a5, a1
00000000 00000292 0000 800007d8  x15:00000000 x12:00000000 x14=00000000  # sub     a4, a5, a2
00000000 00000293 0000 800007dc  x14:00000000 x14=00000000               # srli    a4, a4, 1
00000000 00000294 0000 800007e0  x14:00000000 x12:00000000 x12=00000000  # add     a2, a4, a2
00000000 00000295 0000 800007e4  x12:00000000 x12=00000000               # srli    a2, a2, 4
00000000 00000296 0000 800007e8  x12:00000000 x14=00000000               # slli    a4, a2, 5
00000000 00000297 0000 800007ec  x12:00000000 x14:00000000 x12=00000000  # sub     a2, a2, a4
00000000 00000298 0000 800007f0  x15:00000000 x12:00000000 x12=00000000  # add     a2, a5, a2
00000000 00000299 0000 800007f4  x12:00000000 f04=        0.000000       # fcvt.d.w ft4, a2
00000000 00000300 0000 800007f8  f04:        0.000000 f03:        1.414200 f04=        0.000000  # fmul.d  ft4, ft4, ft3
00000000 00000301 0000 800007fc  f04:        0.000000 f04:        0.000000 f00=        0.000000  # fsgnj.d ft0, ft4, ft4
00000000 00000302 0000 80000800  x13:00000019 x13=00000018               # addi    a3, a3, -1
00000000 00000303 0000 80000804  x15:00000000 x15=00000001               # addi    a5, a5, 1
00000000 00000304 0000 80000808  x13:00000018                            # bnez    a3, pc - 52
00000000 00000305 0000 800007d4  x15:00000001 x11:08421085 x12=00000000  # mulhu   a2, a5, a1
00000000 00000306 0000 800007d8  x15:00000001 x12:00000000 x14=00000001  # sub     a4, a5, a2
00000000 00000307 0000 800007dc  x14:00000001 x14=00000000               # srli    a4, a4, 1
00000000 00000308 0000 800007e0  x14:00000000 x12:00000000 x12=00000000  # add     a2, a4, a2
00000000 00000309 0000 800007e4  x12:00000000 x12=00000000               # srli    a2, a2, 4
00000000 00000310 0000 800007e8  x12:00000000 x14=00000000               # slli    a4, a2, 5
00000000 00000311 0000 800007ec  x12:00000000 x14:00000000 x12=00000000  # sub     a2, a2, a4
00000000 00000312 0000 800007f0  x15:00000001 x12:00000000 x12=00000001  # add     a2, a5, a2
00000000 00000313 0000 800007f4  x12:00000001 f04=        1.000000       # fcvt.d.w ft4, a2
00000000 00000314 0000 800007f8  f04:        1.000000 f03:        1.414200 f04=        1.414200  # fmul.d  ft4, ft4, ft3
00000000 00000315 0000 800007fc  f04:        1.414200 f04:        1.414200 f00=        1.414200  # fsgnj.d ft0, ft4, ft4
00000000 00000316 0000 80000800  x13:00000018 x13=00000017               # addi    a3, a3, -1
00000000 00000317 0000 80000804  x15:00000001 x15=00000002               # addi    a5, a5, 1
00000000 00000318 0000 80000808  x13:00000017                            # bnez    a3, pc - 52
00000000 00000319 0000 800007d4  x15:00000002 x11:08421085 x12=00000000  # mulhu   a2, a5, a1
00000000 00000320 0000 800007d8  x15:00000002 x12:00000000 x14=00000002  # sub     a4, a5, a2
00000000 00000321 0000 800007dc  x14:00000002 x14=00000001               # srli    a4, a4, 1
00000000 00000322 0000 800007e0  x14:00000001 x12:00000000 x12=00000001  # add     a2, a4, a2
00000000 00000323 0000 800007e4  x12:00000001 x12=00000000               # srli    a2, a2, 4
00000000 00000324 0000 800007e8  x12:00000000 x14=00000000               # slli    a4, a2, 5
00000000 00000325 0000 800007ec  x12:00000000 x14:00000000 x12=00000000  # sub     a2, a2, a4
00000000 00000326 0000 800007f0  x15:00000002 x12:00000000 x12=00000002  # add     a2, a5, a2
00000000 00000327 0000 800007f4  x12:00000002 f04=        2.000000       # fcvt.d.w ft4, a2
00000000 00000328 0000 800007f8  f04:        2.000000 f03:        1.414200 f04=        2.828400  # fmul.d  ft4, ft4, ft3
00000000 00000329 0000 800007fc  f04:        2.828400 f04:        2.828400 f00=        2.828400  # fsgnj.d ft0, ft4, ft4
00000000 00000330 0000 80000800  x13:00000017 x13=00000016               # addi    a3, a3, -1
00000000 00000331 0000 80000804  x15:00000002 x15=00000003               # addi    a5, a5, 1
00000000 00000332 0000 80000808  x13:00000016                            # bnez    a3, pc - 52
00000000 00000333 0000 800007d4  x15:00000003 x11:08421085 x12=00000000  # mulhu   a2, a5, a1
00000000 00000334 0000 800007d8  x15:00000003 x12:00000000 x14=00000003  # sub     a4, a5, a2
00000000 00000335 0000 800007dc  x14:00000003 x14=00000001               # srli    a4, a4, 1
00000000 00000336 0000 800007e0  x14:00000001 x12:00000000 x12=00000001  # add     a2, a4, a2
00000000 00000337 0000 800007e4  x12:00000001 x12=00000000               # srli    a2, a2, 4
00000000 00000338 0000 800007e8  x12:00000000 x14=00000000               # slli    a4, a2, 5
00000000 00000339 0000 800007ec  x12:00000000 x14:00000000 x12=00000000  # sub     a2, a2, a4
00000000 00000340 0000 800007f0  x15:00000003 x12:00000000 x12=00000003  # add     a2, a5, a2
00000000 00000341 0000 800007f4  x12:00000003 f04=        3.000000       # fcvt.d.w ft4, a2
00000000 00000342 0000 800007f8  f04:        3.000000 f03:        1.414200 f04=        4.242600  # fmul.d  ft4, ft4, ft3
00000000 00000343 0000 800007fc  f04:        4.242600 f04:        4.242600 f00=        4.242600  # fsgnj.d ft0, ft4, ft4
00000000 00000344 0000 80000800  x13:00000016 x13=00000015               # addi    a3, a3, -1
00000000 00000345 0000 80000804  x15:00000003 x15=00000004               # addi    a5, a5, 1
00000000 00000346 0000 80000808  x13:00000015                            # bnez    a3, pc - 52
00000000 00000347 0000 800007d4  x15:00000004 x11:08421085 x12=00000000  # mulhu   a2, a5, a1
00000000 00000348 0000 800007d8  x15:00000004 x12:00000000 x14=00000004  # sub     a4, a5, a2
00000000 00000349 0000 800007dc  x14:00000004 x14=00000002               # srli    a4, a4, 1
00000000 00000350 0000 800007e0  x14:00000002 x12:00000000 x12=00000002  # add     a2, a4, a2
00000000 00000351 0000 800007e4  x12:00000002 x12=00000000               # srli    a2, a2, 4
00000000 00000352 0000 800007e8  x12:00000000 x14=00000000               # slli    a4, a2, 5
00000000 00000353 0000 800007ec  x12:00000000 x14:00000000 x12=00000000  # sub     a2, a2, a4
00000000 00000354 0000 800007f0  x15:00000004 x12:00000000 x12=00000004  # add     a2, a5, a2
00000000 00000355 0000 800007f4  x12:00000004 f04=        4.000000       # fcvt.d.w ft4, a2
00000000 00000356 0000 800007f8  f04:        4.000000 f03:        1.414200 f04=        5.656800  # fmul.d  ft4, ft4, ft3
00000000 00000357 0000 800007fc  f04:        5.656800 f04:        5.656800 f00=        5.656800  # fsgnj.d ft0, ft4, ft4
00000000 00000358 0000 80000800  x13:00000015 x13=00000014               # addi    a3, a3, -1
00000000 00000359 0000 80000804  x15:00000004 x15=00000005               # addi    a5, a5, 1
00000000 00000360 0000 80000808  x13:00000014                            # bnez    a3, pc - 52
00000000 00000361 0000 800007d4  x15:00000005 x11:08421085 x12=00000000  # mulhu   a2, a5, a1
00000000 00000362 0000 800007d8  x15:00000005 x12:00000000 x14=00000005  # sub     a4, a5, a2
00000000 00000363 0000 800007dc  x14:00000005 x14=00000002               # srli    a4, a4, 1
00000000 00000364 0000 800007e0  x14:00000002 x12:00000000 x12=00000002  # add     a2, a4, a2
00000000 00000365 0000 800007e4  x12:00000002 x12=00000000               # srli    a2, a2, 4
00000000 00000366 0000 800007e8  x12:00000000 x14=00000000               # slli    a4, a2, 5
00000000 00000367 0000 800007ec  x12:00000000 x14:00000000 x12=00000000  # sub     a2, a2, a4
00000000 00000368 0000 800007f0  x15:00000005 x12:00000000 x12=00000005  # add     a2, a5, a2
00000000 00000369 0000 800007f4  x12:00000005 f04=        5.000000       # fcvt.d.w ft4, a2
00000000 00000370 0000 800007f8  f04:        5.000000 f03:        1.414200 f04=        7.071000  # fmul.d  ft4, ft4, ft3
00000000 00000371 0000 800007fc  f04:        7.071000 f04:        7.071000 f00=        7.071000  # fsgnj.d ft0, ft4, ft4
00000000 00000372 0000 80000800  x13:00000014 x13=00000013               # addi    a3, a3, -1
00000000 00000373 0000 80000804  x15:00000005 x15=00000006               # addi    a5, a5, 1
00000000 00000374 0000 80000808  x13:00000013                            # bnez    a3, pc - 52
00000000 00000375 0000 800007d4  x15:00000006 x11:08421085 x12=00000000  # mulhu   a2, a5, a1
00000000 00000376 0000 800007d8  x15:00000006 x12:00000000 x14=00000006  # sub     a4, a5, a2
00000000 00000377 0000 800007dc  x14:00000006 x14=00000003               # srli    a4, a4, 1
00000000 00000378 0000 800007e0  x14:00000003 x12:00000000 x12=00000003  # add     a2, a4, a2
00000000 00000379 0000 800007e4  x12:00000003 x12=00000000               # srli    a2, a2, 4
00000000 00000380 0000 800007e8  x12:00000000 x14=00000000               # slli    a4, a2, 5
00000000 00000381 0000 800007ec  x12:00000000 x14:00000000 x12=00000000  # sub     a2, a2, a4
00000000 00000382 0000 800007f0  x15:00000006 x12:00000000 x12=00000006  # add     a2, a5, a2
00000000 00000383 0000 800007f4  x12:00000006 f04=        6.000000       # fcvt.d.w ft4, a2
00000000 00000384 0000 800007f8  f04:        6.000000 f03:        1.414200 f04=        8.485200  # fmul.d  ft4, ft4, ft3
00000000 00000385 0000 800007fc  f04:        8.485200 f04:        8.485200 f00=        8.485200  # fsgnj.d ft0, ft4, ft4
00000000 00000386 0000 80000800  x13:00000013 x13=00000012               # addi    a3, a3, -1
00000000 00000387 0000 80000804  x15:00000006 x15=00000007               # addi    a5, a5, 1
00000000 00000388 0000 80000808  x13:00000012                            # bnez    a3, pc - 52
00000000 00000389 0000 800007d4  x15:00000007 x11:08421085 x12=00000000  # mulhu   a2, a5, a1
00000000 00000390 0000 800007d8  x15:00000007 x12:00000000 x14=00000007  # sub     a4, a5, a2
00000000 00000391 0000 800007dc  x14:00000007 x14=00000003               # srli    a4, a4, 1
00000000 00000392 0000 800007e0  x14:00000003 x12:00000000 x12=00000003  # add     a2, a4, a2
00000000 00000393 0000 800007e4  x12:00000003 x12=00000000               # srli    a2, a2, 4
00000000 00000394 0000 800007e8  x12:00000000 x14=00000000               # slli    a4, a2, 5
00000000 00000395 0000 800007ec  x12:00000000 x14:00000000 x12=00000000  # sub     a2, a2, a4
00000000 00000396 0000 800007f0  x15:00000007 x12:00000000 x12=00000007  # add     a2, a5, a2
00000000 00000397 0000 800007f4  x12:00000007 f04=        7.000000       # fcvt.d.w ft4, a2
00000000 00000398 0000 800007f8  f04:        7.000000 f03:        1.414200 f04=        9.899400  # fmul.d  ft4, ft4, ft3
00000000 00000399 0000 800007fc  f04:        9.899400 f04:        9.899400 f00=        9.899400  # fsgnj.d ft0, ft4, ft4
00000000 00000400 0000 80000800  x13:00000012 x13=00000011               # addi    a3, a3, -1
00000000 00000401 0000 80000804  x15:00000007 x15=00000008               # addi    a5, a5, 1
00000000 00000402 0000 80000808  x13:00000011                            # bnez    a3, pc - 52
00000000 00000403 0000 800007d4  x15:00000008 x11:08421085 x12=00000000  # mulhu   a2, a5, a1
00000000 00000404 0000 800007d8  x15:00000008 x12:00000000 x14=00000008  # sub     a4, a5, a2
00000000 00000405 0000 800007dc  x14:00000008 x14=00000004               # srli    a4, a4, 1
00000000 00000406 0000 800007e0  x14:00000004 x12:00000000 x12=00000004  # add     a2, a4, a2
00000000 00000407 0000 800007e4  x12:00000004 x12=00000000               # srli    a2, a2, 4
00000000 00000408 0000 800007e8  x12:00000000 x14=00000000               # slli    a4, a2, 5
00000000 00000409 0000 800007ec  x12:00000000 x14:00000000 x12=00000000  # sub     a2, a2, a4
00000000 00000410 0000 800007f0  x15:00000008 x12:00000000 x12=00000008  # add     a2, a5, a2
00000000 00000411 0000 800007f4  x12:00000008 f04=        8.000000       # fcvt.d.w ft4, a2
00000000 00000412 0000 800007f8  f04:        8.000000 f03:        1.414200 f04=       11.313600  # fmul.d  ft4, ft4, ft3
00000000 00000413 0000 800007fc  f04:       11.313600 f04:       11.313600 f00=       11.313600  # fsgnj.d ft0, ft4, ft4
00000000 00000414 0000 80000800  x13:00000011 x13=00000010               # addi    a3, a3, -1
00000000 00000415 0000 80000804  x15:00000008 x15=00000009               # addi    a5, a5, 1
00000000 00000416 0000 80000808  x13:00000010                            # bnez    a3, pc - 52
00000000 00000417 0000 800007d4  x15:00000009 x11:08421085 x12=00000000  # mulhu   a2, a5, a1
00000000 00000418 0000 800007d8  x15:00000009 x12:00000000 x14=00000009  # sub     a4, a5, a2
00000000 00000419 0000 800007dc  x14:00000009 x14=00000004               # srli    a4, a4, 1
00000000 00000420 0000 800007e0  x14:00000004 x12:00000000 x12=00000004  # add     a2, a4, a2
00000000 00000421 0000 800007e4  x12:00000004 x12=00000000               # srli    a2, a2, 4
00000000 00000422 0000 800007e8  x12:00000000 x14=00000000               # slli    a4, a2, 5
00000000 00000423 0000 800007ec  x12:00000000 x14:00000000 x12=00000000  # sub     a2, a2, a4
00000000 00000424 0000 800007f0  x15:00000009 x12:00000000 x12=00000009  # add     a2, a5, a2
00000000 00000425 0000 800007f4  x12:00000009 f04=        9.000000       # fcvt.d.w ft4, a2
00000000 00000426 0000 800007f8  f04:        9.000000 f03:        1.414200 f04=       12.727800  # fmul.d  ft4, ft4, ft3
00000000 00000427 0000 800007fc  f04:       12.727800 f04:       12.727800 f00=       12.727800  # fsgnj.d ft0, ft4, ft4
00000000 00000428 0000 80000800  x13:00000010 x13=0000000f               # addi    a3, a3, -1
00000000 00000429 0000 80000804  x15:00000009 x15=0000000a               # addi    a5, a5, 1
00000000 00000430 0000 80000808  x13:0000000f                            # bnez    a3, pc - 52
00000000 00000431 0000 800007d4  x15:0000000a x11:08421085 x12=00000000  # mulhu   a2, a5, a1
00000000 00000432 0000 800007d8  x15:0000000a x12:00000000 x14=0000000a  # sub     a4, a5, a2
00000000 00000433 0000 800007dc  x14:0000000a x14=00000005               # srli    a4, a4, 1
00000000 00000434 0000 800007e0  x14:00000005 x12:00000000 x12=00000005  # add     a2, a4, a2
00000000 00000435 0000 800007e4  x12:00000005 x12=00000000               # srli    a2, a2, 4
00000000 00000436 0000 800007e8  x12:00000000 x14=00000000               # slli    a4, a2, 5
00000000 00000437 0000 800007ec  x12:00000000 x14:00000000 x12=00000000  # sub     a2, a2, a4
00000000 00000438 0000 800007f0  x15:0000000a x12:00000000 x12=0000000a  # add     a2, a5, a2
00000000 00000439 0000 800007f4  x12:0000000a f04=       10.000000       # fcvt.d.w ft4, a2
00000000 00000440 0000 800007f8  f04:       10.000000 f03:        1.414200 f04=       14.142000  # fmul.d  ft4, ft4, ft3
00000000 00000441 0000 800007fc  f04:       14.142000 f04:       14.142000 f00=       14.142000  # fsgnj.d ft0, ft4, ft4
00000000 00000442 0000 80000800  x13:0000000f x13=0000000e               # addi    a3, a3, -1
00000000 00000443 0000 80000804  x15:0000000a x15=0000000b               # addi    a5, a5, 1
00000000 00000444 0000 80000808  x13:0000000e                            # bnez    a3, pc - 52
00000000 00000445 0000 800007d4  x15:0000000b x11:08421085 x12=00000000  # mulhu   a2, a5, a1
00000000 00000446 0000 800007d8  x15:0000000b x12:00000000 x14=0000000b  # sub     a4, a5, a2
00000000 00000447 0000 800007dc  x14:0000000b x14=00000005               # srli    a4, a4, 1
00000000 00000448 0000 800007e0  x14:00000005 x12:00000000 x12=00000005  # add     a2, a4, a2
00000000 00000449 0000 800007e4  x12:00000005 x12=00000000               # srli    a2, a2, 4
00000000 00000450 0000 800007e8  x12:00000000 x14=00000000               # slli    a4, a2, 5
00000000 00000451 0000 800007ec  x12:00000000 x14:00000000 x12=00000000  # sub     a2, a2, a4
00000000 00000452 0000 800007f0  x15:0000000b x12:00000000 x12=0000000b  # add     a2, a5, a2
00000000 00000453 0000 800007f4  x12:0000000b f04=       11.000000       # fcvt.d.w ft4, a2
00000000 00000454 0000 800007f8  f04:       11.000000 f03:        1.414200 f04=       15.556200  # fmul.d  ft4, ft4, ft3
00000000 00000455 0000 800007fc  f04:       15.556200 f04:       15.556200 f00=       15.556200  # fsgnj.d ft0, ft4, ft4
00000000 00000456 0000 80000800  x13:0000000e x13=0000000d               # addi    a3, a3, -1
00000000 00000457 0000 80000804  x15:0000000b x15=0000000c               # addi    a5, a5, 1
00000000 00000458 0000 80000808  x13:0000000d                            # bnez    a3, pc - 52
00000000 00000459 0000 800007d4  x15:0000000c x11:08421085 x12=00000000  # mulhu   a2, a5, a1
00000000 00000460 0000 800007d8  x15:0000000c x12:00000000 x14=0000000c  # sub     a4, a5, a2
00000000 00000461 0000 800007dc  x14:0000000c x14=00000006               # srli    a4, a4, 1
00000000 00000462 0000 800007e0  x14:00000006 x12:00000000 x12=00000006  # add     a2, a4, a2
00000000 00000463 0000 800007e4  x12:00000006 x12=00000000               # srli    a2, a2, 4
00000000 00000464 0000 800007e8  x12:00000000 x14=00000000               # slli    a4, a2, 5
00000000 00000465 0000 800007ec  x12:00000000 x14:00000000 x12=00000000  # sub     a2, a2, a4
00000000 00000466 0000 800007f0  x15:0000000c x12:00000000 x12=0000000c  # add     a2, a5, a2
00000000 00000467 0000 800007f4  x12:0000000c f04=       12.000000       # fcvt.d.w ft4, a2
00000000 00000468 0000 800007f8  f04:       12.000000 f03:        1.414200 f04=       16.970400  # fmul.d  ft4, ft4, ft3
00000000 00000469 0000 800007fc  f04:       16.970400 f04:       16.970400 f00=       16.970400  # fsgnj.d ft0, ft4, ft4
00000000 00000470 0000 80000800  x13:0000000d x13=0000000c               # addi    a3, a3, -1
00000000 00000471 0000 80000804  x15:0000000c x15=0000000d               # addi    a5, a5, 1
00000000 00000472 0000 80000808  x13:0000000c                            # bnez    a3, pc - 52
00000000 00000473 0000 800007d4  x15:0000000d x11:08421085 x12=00000000  # mulhu   a2, a5, a1
00000000 00000474 0000 800007d8  x15:0000000d x12:00000000 x14=0000000d  # sub     a4, a5, a2
00000000 00000475 0000 800007dc  x14:0000000d x14=00000006               # srli    a4, a4, 1
00000000 00000476 0000 800007e0  x14:00000006 x12:00000000 x12=00000006  # add     a2, a4, a2
00000000 00000477 0000 800007e4  x12:00000006 x12=00000000               # srli    a2, a2, 4
00000000 00000478 0000 800007e8  x12:00000000 x14=00000000               # slli    a4, a2, 5
00000000 00000479 0000 800007ec  x12:00000000 x14:00000000 x12=00000000  # sub     a2, a2, a4
00000000 00000480 0000 800007f0  x15:0000000d x12:00000000 x12=0000000d  # add     a2, a5, a2
00000000 00000481 0000 800007f4  x12:0000000d f04=       13.000000       # fcvt.d.w ft4, a2
00000000 00000482 0000 800007f8  f04:       13.000000 f03:        1.414200 f04=       18.384600  # fmul.d  ft4, ft4, ft3
00000000 00000483 0000 800007fc  f04:       18.384600 f04:       18.384600 f00=       18.384600  # fsgnj.d ft0, ft4, ft4
00000000 00000484 0000 80000800  x13:0000000c x13=0000000b               # addi    a3, a3, -1
00000000 00000485 0000 80000804  x15:0000000d x15=0000000e               # addi    a5, a5, 1
00000000 00000486 0000 80000808  x13:0000000b                            # bnez    a3, pc - 52
00000000 00000487 0000 800007d4  x15:0000000e x11:08421085 x12=00000000  # mulhu   a2, a5, a1
00000000 00000488 0000 800007d8  x15:0000000e x12:00000000 x14=0000000e  # sub     a4, a5, a2
00000000 00000489 0000 800007dc  x14:0000000e x14=00000007               # srli    a4, a4, 1
00000000 00000490 0000 800007e0  x14:00000007 x12:00000000 x12=00000007  # add     a2, a4, a2
00000000 00000491 0000 800007e4  x12:00000007 x12=00000000               # srli    a2, a2, 4
00000000 00000492 0000 800007e8  x12:00000000 x14=00000000               # slli    a4, a2, 5
00000000 00000493 0000 800007ec  x12:00000000 x14:00000000 x12=00000000  # sub     a2, a2, a4
00000000 00000494 0000 800007f0  x15:0000000e x12:00000000 x12=0000000e  # add     a2, a5, a2
00000000 00000495 0000 800007f4  x12:0000000e f04=       14.000000       # fcvt.d.w ft4, a2
00000000 00000496 0000 800007f8  f04:       14.000000 f03:        1.414200 f04=       19.798800  # fmul.d  ft4, ft4, ft3
00000000 00000497 0000 800007fc  f04:       19.798800 f04:       19.798800 f00=       19.798800  # fsgnj.d ft0, ft4, ft4
00000000 00000498 0000 80000800  x13:0000000b x13=0000000a               # addi    a3, a3, -1
00000000 00000499 0000 80000804  x15:0000000e x15=0000000f               # addi    a5, a5, 1
00000000 00000500 0000 80000808  x13:0000000a                            # bnez    a3, pc - 52
00000000 00000501 0000 800007d4  x15:0000000f x11:08421085 x12=00000000  # mulhu   a2, a5, a1
00000000 00000502 0000 800007d8  x15:0000000f x12:00000000 x14=0000000f  # sub     a4, a5, a2
00000000 00000503 0000 800007dc  x14:0000000f x14=00000007               # srli    a4, a4, 1
00000000 00000504 0000 800007e0  x14:00000007 x12:00000000 x12=00000007  # add     a2, a4, a2
00000000 00000505 0000 800007e4  x12:00000007 x12=00000000               # srli    a2, a2, 4
00000000 00000506 0000 800007e8  x12:00000000 x14=00000000               # slli    a4, a2, 5
00000000 00000507 0000 800007ec  x12:00000000 x14:00000000 x12=00000000  # sub     a2, a2, a4
00000000 00000508 0000 800007f0  x15:0000000f x12:00000000 x12=0000000f  # add     a2, a5, a2
00000000 00000509 0000 800007f4  x12:0000000f f04=       15.000000       # fcvt.d.w ft4, a2
00000000 00000510 0000 800007f8  f04:       15.000000 f03:        1.414200 f04=       21.213000  # fmul.d  ft4, ft4, ft3
00000000 00000511 0000 800007fc  f04:       21.213000 f04:       21.213000 f00=       21.213000  # fsgnj.d ft0, ft4, ft4
00000000 00000512 0000 80000800  x13:0000000a x13=00000009               # addi    a3, a3, -1
00000000 00000513 0000 80000804  x15:0000000f x15=00000010               # addi    a5, a5, 1
00000000 00000514 0000 80000808  x13:00000009                            # bnez    a3, pc - 52
00000000 00000515 0000 800007d4  x15:00000010 x11:08421085 x12=00000000  # mulhu   a2, a5, a1
00000000 00000516 0000 800007d8  x15:00000010 x12:00000000 x14=00000010  # sub     a4, a5, a2
00000000 00000517 0000 800007dc  x14:00000010 x14=00000008               # srli    a4, a4, 1
00000000 00000518 0000 800007e0  x14:00000008 x12:00000000 x12=00000008  # add     a2, a4, a2
00000000 00000519 0000 800007e4  x12:00000008 x12=00000000               # srli    a2, a2, 4
00000000 00000520 0000 800007e8  x12:00000000 x14=00000000               # slli    a4, a2, 5
00000000 00000521 0000 800007ec  x12:00000000 x14:00000000 x12=00000000  # sub     a2, a2, a4
00000000 00000522 0000 800007f0  x15:00000010 x12:00000000 x12=00000010  # add     a2, a5, a2
00000000 00000523 0000 800007f4  x12:00000010 f04=       16.000000       # fcvt.d.w ft4, a2
00000000 00000524 0000 800007f8  f04:       16.000000 f03:        1.414200 f04=       22.627200  # fmul.d  ft4, ft4, ft3
00000000 00000525 0000 800007fc  f04:       22.627200 f04:       22.627200 f00=       22.627200  # fsgnj.d ft0, ft4, ft4
00000000 00000526 0000 80000800  x13:00000009 x13=00000008               # addi    a3, a3, -1
00000000 00000527 0000 80000804  x15:00000010 x15=00000011               # addi    a5, a5, 1
00000000 00000528 0000 80000808  x13:00000008                            # bnez    a3, pc - 52
00000000 00000529 0000 800007d4  x15:00000011 x11:08421085 x12=00000000  # mulhu   a2, a5, a1
00000000 00000530 0000 800007d8  x15:00000011 x12:00000000 x14=00000011  # sub     a4, a5, a2
00000000 00000531 0000 800007dc  x14:00000011 x14=00000008               # srli    a4, a4, 1
00000000 00000532 0000 800007e0  x14:00000008 x12:00000000 x12=00000008  # add     a2, a4, a2
00000000 00000533 0000 800007e4  x12:00000008 x12=00000000               # srli    a2, a2, 4
00000000 00000534 0000 800007e8  x12:00000000 x14=00000000               # slli    a4, a2, 5
00000000 00000535 0000 800007ec  x12:00000000 x14:00000000 x12=00000000  # sub     a2, a2, a4
00000000 00000536 0000 800007f0  x15:00000011 x12:00000000 x12=00000011  # add     a2, a5, a2
00000000 00000537 0000 800007f4  x12:00000011 f04=       17.000000       # fcvt.d.w ft4, a2
00000000 00000538 0000 800007f8  f04:       17.000000 f03:        1.414200 f04=       24.041400  # fmul.d  ft4, ft4, ft3
00000000 00000539 0000 800007fc  f04:       24.041400 f04:       24.041400 f00=       24.041400  # fsgnj.d ft0, ft4, ft4
00000000 00000540 0000 80000800  x13:00000008 x13=00000007               # addi    a3, a3, -1
00000000 00000541 0000 80000804  x15:00000011 x15=00000012               # addi    a5, a5, 1
00000000 00000542 0000 80000808  x13:00000007                            # bnez    a3, pc - 52
00000000 00000543 0000 800007d4  x15:00000012 x11:08421085 x12=00000000  # mulhu   a2, a5, a1
00000000 00000544 0000 800007d8  x15:00000012 x12:00000000 x14=00000012  # sub     a4, a5, a2
00000000 00000545 0000 800007dc  x14:00000012 x14=00000009               # srli    a4, a4, 1
00000000 00000546 0000 800007e0  x14:00000009 x12:00000000 x12=00000009  # add     a2, a4, a2
00000000 00000547 0000 800007e4  x12:00000009 x12=00000000               # srli    a2, a2, 4
00000000 00000548 0000 800007e8  x12:00000000 x14=00000000               # slli    a4, a2, 5
00000000 00000549 0000 800007ec  x12:00000000 x14:00000000 x12=00000000  # sub     a2, a2, a4
00000000 00000550 0000 800007f0  x15:00000012 x12:00000000 x12=00000012  # add     a2, a5, a2
00000000 00000551 0000 800007f4  x12:00000012 f04=       18.000000       # fcvt.d.w ft4, a2
00000000 00000552 0000 800007f8  f04:       18.000000 f03:        1.414200 f04=       25.455600  # fmul.d  ft4, ft4, ft3
00000000 00000553 0000 800007fc  f04:       25.455600 f04:       25.455600 f00=       25.455600  # fsgnj.d ft0, ft4, ft4
00000000 00000554 0000 80000800  x13:00000007 x13=00000006               # addi    a3, a3, -1
00000000 00000555 0000 80000804  x15:00000012 x15=00000013               # addi    a5, a5, 1
00000000 00000556 0000 80000808  x13:00000006                            # bnez    a3, pc - 52
00000000 00000557 0000 800007d4  x15:00000013 x11:08421085 x12=00000000  # mulhu   a2, a5, a1
00000000 00000558 0000 800007d8  x15:00000013 x12:00000000 x14=00000013  # sub     a4, a5, a2
00000000 00000559 0000 800007dc  x14:00000013 x14=00000009               # srli    a4, a4, 1
00000000 00000560 0000 800007e0  x14:00000009 x12:00000000 x12=00000009  # add     a2, a4, a2
00000000 00000561 0000 800007e4  x12:00000009 x12=00000000               # srli    a2, a2, 4
00000000 00000562 0000 800007e8  x12:00000000 x14=00000000               # slli    a4, a2, 5
00000000 00000563 0000 800007ec  x12:00000000 x14:00000000 x12=00000000  # sub     a2, a2, a4
00000000 00000564 0000 800007f0  x15:00000013 x12:00000000 x12=00000013  # add     a2, a5, a2
00000000 00000565 0000 800007f4  x12:00000013 f04=       19.000000       # fcvt.d.w ft4, a2
00000000 00000566 0000 800007f8  f04:       19.000000 f03:        1.414200 f04=       26.869800  # fmul.d  ft4, ft4, ft3
00000000 00000567 0000 800007fc  f04:       26.869800 f04:       26.869800 f00=       26.869800  # fsgnj.d ft0, ft4, ft4
00000000 00000568 0000 80000800  x13:00000006 x13=00000005               # addi    a3, a3, -1
00000000 00000569 0000 80000804  x15:00000013 x15=00000014               # addi    a5, a5, 1
00000000 00000570 0000 80000808  x13:00000005                            # bnez    a3, pc - 52
00000000 00000571 0000 800007d4  x15:00000014 x11:08421085 x12=00000000  # mulhu   a2, a5, a1
00000000 00000572 0000 800007d8  x15:00000014 x12:00000000 x14=00000014  # sub     a4, a5, a2
00000000 00000573 0000 800007dc  x14:00000014 x14=0000000a               # srli    a4, a4, 1
00000000 00000574 0000 800007e0  x14:0000000a x12:00000000 x12=0000000a  # add     a2, a4, a2
00000000 00000575 0000 800007e4  x12:0000000a x12=00000000               # srli    a2, a2, 4
00000000 00000576 0000 800007e8  x12:00000000 x14=00000000               # slli    a4, a2, 5
00000000 00000577 0000 800007ec  x12:00000000 x14:00000000 x12=00000000  # sub     a2, a2, a4
00000000 00000578 0000 800007f0  x15:00000014 x12:00000000 x12=00000014  # add     a2, a5, a2
00000000 00000579 0000 800007f4  x12:00000014 f04=       20.000000       # fcvt.d.w ft4, a2
00000000 00000580 0000 800007f8  f04:       20.000000 f03:        1.414200 f04=       28.284000  # fmul.d  ft4, ft4, ft3
00000000 00000581 0000 800007fc  f04:       28.284000 f04:       28.284000 f00=       28.284000  # fsgnj.d ft0, ft4, ft4
00000000 00000582 0000 80000800  x13:00000005 x13=00000004               # addi    a3, a3, -1
00000000 00000583 0000 80000804  x15:00000014 x15=00000015               # addi    a5, a5, 1
00000000 00000584 0000 80000808  x13:00000004                            # bnez    a3, pc - 52
00000000 00000585 0000 800007d4  x15:00000015 x11:08421085 x12=00000000  # mulhu   a2, a5, a1
00000000 00000586 0000 800007d8  x15:00000015 x12:00000000 x14=00000015  # sub     a4, a5, a2
00000000 00000587 0000 800007dc  x14:00000015 x14=0000000a               # srli    a4, a4, 1
00000000 00000588 0000 800007e0  x14:0000000a x12:00000000 x12=0000000a  # add     a2, a4, a2
00000000 00000589 0000 800007e4  x12:0000000a x12=00000000               # srli    a2, a2, 4
00000000 00000590 0000 800007e8  x12:00000000 x14=00000000               # slli    a4, a2, 5
00000000 00000591 0000 800007ec  x12:00000000 x14:00000000 x12=00000000  # sub     a2, a2, a4
00000000 00000592 0000 800007f0  x15:00000015 x12:00000000 x12=00000015  # add     a2, a5, a2
00000000 00000593 0000 800007f4  x12:00000015 f04=       21.000000       # fcvt.d.w ft4, a2
00000000 00000594 0000 800007f8  f04:       21.000000 f03:        1.414200 f04=       29.698200  # fmul.d  ft4, ft4, ft3
00000000 00000595 0000 800007fc  f04:       29.698200 f04:       29.698200 f00=       29.698200  # fsgnj.d ft0, ft4, ft4
00000000 00000596 0000 80000800  x13:00000004 x13=00000003               # addi    a3, a3, -1
00000000 00000597 0000 80000804  x15:00000015 x15=00000016               # addi    a5, a5, 1
00000000 00000598 0000 80000808  x13:00000003                            # bnez    a3, pc - 52
00000000 00000599 0000 800007d4  x15:00000016 x11:08421085 x12=00000000  # mulhu   a2, a5, a1
00000000 00000600 0000 800007d8  x15:00000016 x12:00000000 x14=00000016  # sub     a4, a5, a2
00000000 00000601 0000 800007dc  x14:00000016 x14=0000000b               # srli    a4, a4, 1
00000000 00000602 0000 800007e0  x14:0000000b x12:00000000 x12=0000000b  # add     a2, a4, a2
00000000 00000603 0000 800007e4  x12:0000000b x12=00000000               # srli    a2, a2, 4
00000000 00000604 0000 800007e8  x12:00000000 x14=00000000               # slli    a4, a2, 5
00000000 00000605 0000 800007ec  x12:00000000 x14:00000000 x12=00000000  # sub     a2, a2, a4
00000000 00000606 0000 800007f0  x15:00000016 x12:00000000 x12=00000016  # add     a2, a5, a2
00000000 00000607 0000 800007f4  x12:00000016 f04=       22.000000       # fcvt.d.w ft4, a2
00000000 00000608 0000 800007f8  f04:       22.000000 f03:        1.414200 f04=       31.112400  # fmul.d  ft4, ft4, ft3
00000000 00000609 0000 800007fc  f04:       31.112400 f04:       31.112400 f00=       31.112400  # fsgnj.d ft0, ft4, ft4
00000000 00000610 0000 80000800  x13:00000003 x13=00000002               # addi    a3, a3, -1
00000000 00000611 0000 80000804  x15:00000016 x15=00000017               # addi    a5, a5, 1
00000000 00000612 0000 80000808  x13:00000002                            # bnez    a3, pc - 52
00000000 00000613 0000 800007d4  x15:00000017 x11:08421085 x12=00000000  # mulhu   a2, a5, a1
00000000 00000614 0000 800007d8  x15:00000017 x12:00000000 x14=00000017  # sub     a4, a5, a2
00000000 00000615 0000 800007dc  x14:00000017 x14=0000000b               # srli    a4, a4, 1
00000000 00000616 0000 800007e0  x14:0000000b x12:00000000 x12=0000000b  # add     a2, a4, a2
00000000 00000617 0000 800007e4  x12:0000000b x12=00000000               # srli    a2, a2, 4
00000000 00000618 0000 800007e8  x12:00000000 x14=00000000               # slli    a4, a2, 5
00000000 00000619 0000 800007ec  x12:00000000 x14:00000000 x12=00000000  # sub     a2, a2, a4
00000000 00000620 0000 800007f0  x15:00000017 x12:00000000 x12=00000017  # add     a2, a5, a2
00000000 00000621 0000 800007f4  x12:00000017 f04=       23.000000       # fcvt.d.w ft4, a2
00000000 00000622 0000 800007f8  f04:       23.000000 f03:        1.414200 f04=       32.526600  # fmul.d  ft4, ft4, ft3
00000000 00000623 0000 800007fc  f04:       32.526600 f04:       32.526600 f00=       32.526600  # fsgnj.d ft0, ft4, ft4
00000000 00000624 0000 80000800  x13:00000002 x13=00000001               # addi    a3, a3, -1
00000000 00000625 0000 80000804  x15:00000017 x15=00000018               # addi    a5, a5, 1
00000000 00000626 0000 80000808  x13:00000001                            # bnez    a3, pc - 52
00000000 00000627 0000 800007d4  x15:00000018 x11:08421085 x12=00000000  # mulhu   a2, a5, a1
00000000 00000628 0000 800007d8  x15:00000018 x12:00000000 x14=00000018  # sub     a4, a5, a2
00000000 00000629 0000 800007dc  x14:00000018 x14=0000000c               # srli    a4, a4, 1
00000000 00000630 0000 800007e0  x14:0000000c x12:00000000 x12=0000000c  # add     a2, a4, a2
00000000 00000631 0000 800007e4  x12:0000000c x12=00000000               # srli    a2, a2, 4
00000000 00000632 0000 800007e8  x12:00000000 x14=00000000               # slli    a4, a2, 5
00000000 00000633 0000 800007ec  x12:00000000 x14:00000000 x12=00000000  # sub     a2, a2, a4
00000000 00000634 0000 800007f0  x15:00000018 x12:00000000 x12=00000018  # add     a2, a5, a2
00000000 00000635 0000 800007f4  x12:00000018 f04=       24.000000       # fcvt.d.w ft4, a2
00000000 00000636 0000 800007f8  f04:       24.000000 f03:        1.414200 f04=       33.940800  # fmul.d  ft4, ft4, ft3
00000000 00000637 0000 800007fc  f04:       33.940800 f04:       33.940800 f00=       33.940800  # fsgnj.d ft0, ft4, ft4
00000000 00000638 0000 80000800  x13:00000001 x13=00000000               # addi    a3, a3, -1
00000000 00000639 0000 80000804  x15:00000018 x15=00000019               # addi    a5, a5, 1
00000000 00000640 0000 80000808  x13:00000000                            # bnez    a3, pc - 52
00000000 00000641 0000 8000080c  x11=00000001                            # csrrci  a1, ssr, 1
00000000 00000642 0000 80000810  x17:00000001                            # bnez    a7, pc - 208
00000000 00000643 0000 80000740  x11=00000008                            # li      a1, 8
00000000 00000644 0000 80000744  x12=00000040                            # li      a2, 64
00000000 00000645 0000 80000748  x13=000000c0                            # li      a3, 192
00000000 00000646 0000 8000074c  x5:00000018 x12:00000040 WA:00204810    # scfgw   t0, a2
00000000 00000647 0000 80000750  x11:00000008 x13:000000c0 WA:00204830   # scfgw   a1, a3
00000000 00000648 0000 80000754  x11=00000020                            # li      a1, 32
00000000 00000649 0000 80000758  x11:00000020 WA:00204808                # scfgw   zero, a1
00000000 00000650 0000 8000075c  x7:00100000 WA:002048c0                 # scfgwi  t2, 768
00000000 00000651 0000 80000760  x11=00000000                            # csrrsi  a1, ssr, 1
00000000 00000652 0000 80000764  f03=        0.000000                    # fcvt.d.w ft3, zero
00000000 00000653 0000 80000768  x10:00000019 x11=00000019               # mv      a1, a0
00000000 00000654 0000 8000076c  x11:00000019 x11=00000018               # addi    a1, a1, -1
00000000 00000655 0000 80000770  f00:        0.000000 f04:       33.940800 f03:        0.000000 f03=        0.000000  # fmadd.d ft3, ft0, ft4, ft3
00000000 00000656 0000 80000774  x11:00000018                            # bnez    a1, pc - 8
00000000 00000657 0000 8000076c  x11:00000018 x11=00000017               # addi    a1, a1, -1
00000000 00000658 0000 80000770  f00:        1.414200 f04:       33.940800 f03:        0.000000 f03=       47.999079  # fmadd.d ft3, ft0, ft4, ft3
00000000 00000659 0000 80000774  x11:00000017                            # bnez    a1, pc - 8
00000000 00000660 0000 8000076c  x11:00000017 x11=00000016               # addi    a1, a1, -1
00000000 00000661 0000 80000770  f00:        2.828400 f04:       33.940800 f03:       47.999079 f03=      143.997238  # fmadd.d ft3, ft0, ft4, ft3
00000000 00000662 0000 80000774  x11:00000016                            # bnez    a1, pc - 8
00000000 00000663 0000 8000076c  x11:00000016 x11=00000015               # addi    a1, a1, -1
00000000 00000664 0000 80000770  f00:        4.242600 f04:       33.940800 f03:      143.997238 f03=      287.994476  # fmadd.d ft3, ft0, ft4, ft3
00000000 00000665 0000 80000774  x11:00000015                            # bnez    a1, pc - 8
00000000 00000666 0000 8000076c  x11:00000015 x11=00000014               # addi    a1, a1, -1
00000000 00000667 0000 80000770  f00:        5.656800 f04:       33.940800 f03:      287.994476 f03=      479.990794  # fmadd.d ft3, ft0, ft4, ft3
00000000 00000668 0000 80000774  x11:00000014                            # bnez    a1, pc - 8
00000000 00000669 0000 8000076c  x11:00000014 x11=00000013               # addi    a1, a1, -1
00000000 00000670 0000 80000770  f00:        7.071000 f04:       33.940800 f03:      479.990794 f03=      719.986190  # fmadd.d ft3, ft0, ft4, ft3
00000000 00000671 0000 80000774  x11:00000013                            # bnez    a1, pc - 8
00000000 00000672 0000 8000076c  x11:00000013 x11=00000012               # addi    a1, a1, -1
00000000 00000673 0000 80000770  f00:        8.485200 f04:       33.940800 f03:      719.986190 f03=     1007.980667  # fmadd.d ft3, ft0, ft4, ft3
00000000 00000674 0000 80000774  x11:00000012                            # bnez    a1, pc - 8
00000000 00000675 0000 8000076c  x11:00000012 x11=00000011               # addi    a1, a1, -1
00000000 00000676 0000 80000770  f00:        9.899400 f04:       33.940800 f03:     1007.980667 f03=     1343.974222  # fmadd.d ft3, ft0, ft4, ft3
00000000 00000677 0000 80000774  x11:00000011                            # bnez    a1, pc - 8
00000000 00000678 0000 8000076c  x11:00000011 x11=00000010               # addi    a1, a1, -1
00000000 00000679 0000 80000770  f00:       11.313600 f04:       33.940800 f03:     1343.974222 f03=     1727.966857  # fmadd.d ft3, ft0, ft4, ft3
00000000 00000680 0000 80000774  x11:00000010                            # bnez    a1, pc - 8
00000000 00000681 0000 8000076c  x11:00000010 x11=0000000f               # addi    a1, a1, -1
00000000 00000682 0000 80000770  f00:       12.727800 f04:       33.940800 f03:     1727.966857 f03=     2159.958571  # fmadd.d ft3, ft0, ft4, ft3
00000000 00000683 0000 80000774  x11:0000000f                            # bnez    a1, pc - 8
00000000 00000684 0000 8000076c  x11:0000000f x11=0000000e               # addi    a1, a1, -1
00000000 00000685 0000 80000770  f00:       14.142000 f04:       33.940800 f03:     2159.958571 f03=     2639.949365  # fmadd.d ft3, ft0, ft4, ft3
00000000 00000686 0000 80000774  x11:0000000e                            # bnez    a1, pc - 8
00000000 00000687 0000 8000076c  x11:0000000e x11=0000000d               # addi    a1, a1, -1
00000000 00000688 0000 80000770  f00:       15.556200 f04:       33.940800 f03:     2639.949365 f03=     3167.939238  # fmadd.d ft3, ft0, ft4, ft3
00000000 00000689 0000 80000774  x11:0000000d                            # bnez    a1, pc - 8
00000000 00000690 0000 8000076c  x11:0000000d x11=0000000c               # addi    a1, a1, -1
00000000 00000691 0000 80000770  f00:       16.970400 f04:       33.940800 f03:     3167.939238 f03=     3743.928190  # fmadd.d ft3, ft0, ft4, ft3
00000000 00000692 0000 80000774  x11:0000000c                            # bnez    a1, pc - 8
00000000 00000693 0000 8000076c  x11:0000000c x11=0000000b               # addi    a1, a1, -1
00000000 00000694 0000 80000770  f00:       18.384600 f04:       33.940800 f03:     3743.928190 f03=     4367.916222  # fmadd.d ft3, ft0, ft4, ft3
00000000 00000695 0000 80000774  x11:0000000b                            # bnez    a1, pc - 8
00000000 00000696 0000 8000076c  x11:0000000b x11=0000000a               # addi    a1, a1, -1
00000000 00000697 0000 80000770  f00:       19.798800 f04:       33.940800 f03:     4367.916222 f03=     5039.903333  # fmadd.d ft3, ft0, ft4, ft3
00000000 00000698 0000 80000774  x11:0000000a                            # bnez    a1, pc - 8
00000000 00000699 0000 8000076c  x11:0000000a x11=00000009               # addi    a1, a1, -1
00000000 00000700 0000 80000770  f00:       21.213000 f04:       33.940800 f03:     5039.903333 f03=     5759.889523  # fmadd.d ft3, ft0, ft4, ft3
00000000 00000701 0000 80000774  x11:00000009                            # bnez    a1, pc - 8
00000000 00000702 0000 8000076c  x11:00000009 x11=00000008               # addi    a1, a1, -1
00000000 00000703 0000 80000770  f00:       22.627200 f04:       33.940800 f03:     5759.889523 f03=     6527.874793  # fmadd.d ft3, ft0, ft4, ft3
00000000 00000704 0000 80000774  x11:00000008                            # bnez    a1, pc - 8
00000000 00000705 0000 8000076c  x11:00000008 x11=00000007               # addi    a1, a1, -1
00000000 00000706 0000 80000770  f00:       24.041400 f04:       33.940800 f03:     6527.874793 f03=     7343.859142  # fmadd.d ft3, ft0, ft4, ft3
00000000 00000707 0000 80000774  x11:00000007                            # bnez    a1, pc - 8
00000000 00000708 0000 8000076c  x11:00000007 x11=00000006               # addi    a1, a1, -1
00000000 00000709 0000 80000770  f00:       25.455600 f04:       33.940800 f03:     7343.859142 f03=     8207.842571  # fmadd.d ft3, ft0, ft4, ft3
00000000 00000710 0000 80000774  x11:00000006                            # bnez    a1, pc - 8
00000000 00000711 0000 8000076c  x11:00000006 x11=00000005               # addi    a1, a1, -1
00000000 00000712 0000 80000770  f00:       26.869800 f04:       33.940800 f03:     8207.842571 f03=     9119.825078  # fmadd.d ft3, ft0, ft4, ft3
00000000 00000713 0000 80000774  x11:00000005                            # bnez    a1, pc - 8
00000000 00000714 0000 8000076c  x11:00000005 x11=00000004               # addi    a1, a1, -1
00000000 00000715 0000 80000770  f00:       28.284000 f04:       33.940800 f03:     9119.825078 f03=    10079.806666  # fmadd.d ft3, ft0, ft4, ft3
00000000 00000716 0000 80000774  x11:00000004                            # bnez    a1, pc - 8
00000000 00000717 0000 8000076c  x11:00000004 x11=00000003               # addi    a1, a1, -1
00000000 00000718 0000 80000770  f00:       29.698200 f04:       33.940800 f03:    10079.806666 f03=    11087.787332  # fmadd.d ft3, ft0, ft4, ft3
00000000 00000719 0000 80000774  x11:00000003                            # bnez    a1, pc - 8
00000000 00000720 0000 8000076c  x11:00000003 x11=00000002               # addi    a1, a1, -1
00000000 00000721 0000 80000770  f00:       31.112400 f04:       33.940800 f03:    11087.787332 f03=    12143.767078  # fmadd.d ft3, ft0, ft4, ft3
00000000 00000722 0000 80000774  x11:00000002                            # bnez    a1, pc - 8
00000000 00000723 0000 8000076c  x11:00000002 x11=00000001               # addi    a1, a1, -1
00000000 00000724 0000 80000770  f00:       32.526600 f04:       33.940800 f03:    12143.767078 f03=    13247.745903  # fmadd.d ft3, ft0, ft4, ft3
00000000 00000725 0000 80000774  x11:00000001                            # bnez    a1, pc - 8
00000000 00000726 0000 8000076c  x11:00000001 x11=00000000               # addi    a1, a1, -1
00000000 00000727 0000 80000770  f00:       33.940800 f04:       33.940800 f03:    13247.745903 f03=    14399.723808  # fmadd.d ft3, ft0, ft4, ft3
00000000 00000728 0000 80000774  x11:00000000                            # bnez    a1, pc - 8
00000000 00000729 0000 80000778  x11=00000001                            # csrrci  a1, ssr, 1
00000000 00000730 0000 8000077c                                          # j       pc + 0xb8
00000000 00000731 0000 80000834  x15=00000000                            # li      a5, 0
00000000 00000732 0000 80000838  f04=        0.000000                    # fcvt.d.w ft4, zero
00000000 00000733 0000 8000083c  x7:00100000 x11=00100000                # mv      a1, t2
00000000 00000734 0000 80000840                                          # j       pc + 0x10
00000000 00000735 0000 80000850  x15:00000000 x12=00000000               # andi    a2, a5, 1
00000000 00000736 0000 80000854  x12:00000000                            # bnez    a2, pc - 16
00000000 00000737 0000 80000858  x11:00100000 RA:00100000 RA:00100004 f05=        0.000000  # fld     ft5, 0(a1)
00000000 00000738 0000 8000085c  f05:        0.000000 f04:        0.000000 f04=        0.000000  # fadd.d  ft4, ft5, ft4
00000000 00000739 0000 80000860                                          # j       pc - 0x1c
00000000 00000740 0000 80000844  x15:00000000 x15=00000001               # addi    a5, a5, 1
00000000 00000741 0000 80000848  x11:00100000 x11=00100008               # addi    a1, a1, 8
00000000 00000742 0000 8000084c  x10:00000019 x15:00000001               # beq     a0, a5, pc + 24
00000000 00000743 0000 80000850  x15:00000001 x12=00000001               # andi    a2, a5, 1
00000000 00000744 0000 80000854  x12:00000001                            # bnez    a2, pc - 16
00000000 00000745 0000 80000844  x15:00000001 x15=00000002               # addi    a5, a5, 1
00000000 00000746 0000 80000848  x11:00100008 x11=00100010               # addi    a1, a1, 8
00000000 00000747 0000 8000084c  x10:00000019 x15:00000002               # beq     a0, a5, pc + 24
00000000 00000748 0000 80000850  x15:00000002 x12=00000000               # andi    a2, a5, 1
00000000 00000749 0000 80000854  x12:00000000                            # bnez    a2, pc - 16
00000000 00000750 0000 80000858  x11:00100010 RA:00100010 RA:00100014 f05=        2.828400  # fld     ft5, 0(a1)
00000000 00000751 0000 8000085c  f05:        2.828400 f04:        0.000000 f04=        2.828400  # fadd.d  ft4, ft5, ft4
00000000 00000752 0000 80000860                                          # j       pc - 0x1c
00000000 00000753 0000 80000844  x15:00000002 x15=00000003               # addi    a5, a5, 1
00000000 00000754 0000 80000848  x11:00100010 x11=00100018               # addi    a1, a1, 8
00000000 00000755 0000 8000084c  x10:00000019 x15:00000003               # beq     a0, a5, pc + 24
00000000 00000756 0000 80000850  x15:00000003 x12=00000001               # andi    a2, a5, 1
00000000 00000757 0000 80000854  x12:00000001                            # bnez    a2, pc - 16
00000000 00000758 0000 80000844  x15:00000003 x15=00000004               # addi    a5, a5, 1
00000000 00000759 0000 80000848  x11:00100018 x11=00100020               # addi    a1, a1, 8
00000000 00000760 0000 8000084c  x10:00000019 x15:00000004               # beq     a0, a5, pc + 24
00000000 00000761 0000 80000850  x15:00000004 x12=00000000               # andi    a2, a5, 1
00000000 00000762 0000 80000854  x12:00000000                            # bnez    a2, pc - 16
00000000 00000763 0000 80000858  x11:00100020 RA:00100020 RA:00100024 f05=        5.656800  # fld     ft5, 0(a1)
00000000 00000764 0000 8000085c  f05:        5.656800 f04:        2.828400 f04=        8.485200  # fadd.d  ft4, ft5, ft4
00000000 00000765 0000 80000860                                          # j       pc - 0x1c
00000000 00000766 0000 80000844  x15:00000004 x15=00000005               # addi    a5, a5, 1
00000000 00000767 0000 80000848  x11:00100020 x11=00100028               # addi    a1, a1, 8
00000000 00000768 0000 8000084c  x10:00000019 x15:00000005               # beq     a0, a5, pc + 24
00000000 00000769 0000 80000850  x15:00000005 x12=00000001               # andi    a2, a5, 1
00000000 00000770 0000 80000854  x12:00000001                            # bnez    a2, pc - 16
00000000 00000771 0000 80000844  x15:00000005 x15=00000006               # addi    a5, a5, 1
00000000 00000772 0000 80000848  x11:00100028 x11=00100030               # addi    a1, a1, 8
00000000 00000773 0000 8000084c  x10:00000019 x15:00000006               # beq     a0, a5, pc + 24
00000000 00000774 0000 80000850  x15:00000006 x12=00000000               # andi    a2, a5, 1
00000000 00000775 0000 80000854  x12:00000000                            # bnez    a2, pc - 16
00000000 00000776 0000 80000858  x11:00100030 RA:00100030 RA:00100034 f05=        8.485200  # fld     ft5, 0(a1)
00000000 00000777 0000 8000085c  f05:        8.485200 f04:        8.485200 f04=       16.970400  # fadd.d  ft4, ft5, ft4
00000000 00000778 0000 80000860                                          # j       pc - 0x1c
00000000 00000779 0000 80000844  x15:00000006 x15=00000007               # addi    a5, a5, 1
00000000 00000780 0000 80000848  x11:00100030 x11=00100038               # addi    a1, a1, 8
00000000 00000781 0000 8000084c  x10:00000019 x15:00000007               # beq     a0, a5, pc + 24
00000000 00000782 0000 80000850  x15:00000007 x12=00000001               # andi    a2, a5, 1
00000000 00000783 0000 80000854  x12:00000001                            # bnez    a2, pc - 16
00000000 00000784 0000 80000844  x15:00000007 x15=00000008               # addi    a5, a5, 1
00000000 00000785 0000 80000848  x11:00100038 x11=00100040               # addi    a1, a1, 8
00000000 00000786 0000 8000084c  x10:00000019 x15:00000008               # beq     a0, a5, pc + 24
00000000 00000787 0000 80000850  x15:00000008 x12=00000000               # andi    a2, a5, 1
00000000 00000788 0000 80000854  x12:00000000                            # bnez    a2, pc - 16
00000000 00000789 0000 80000858  x11:00100040 RA:00100040 RA:00100044 f05=       11.313600  # fld     ft5, 0(a1)
00000000 00000790 0000 8000085c  f05:       11.313600 f04:       16.970400 f04=       28.284000  # fadd.d  ft4, ft5, ft4
00000000 00000791 0000 80000860                                          # j       pc - 0x1c
00000000 00000792 0000 80000844  x15:00000008 x15=00000009               # addi    a5, a5, 1
00000000 00000793 0000 80000848  x11:00100040 x11=00100048               # addi    a1, a1, 8
00000000 00000794 0000 8000084c  x10:00000019 x15:00000009               # beq     a0, a5, pc + 24
00000000 00000795 0000 80000850  x15:00000009 x12=00000001               # andi    a2, a5, 1
00000000 00000796 0000 80000854  x12:00000001                            # bnez    a2, pc - 16
00000000 00000797 0000 80000844  x15:00000009 x15=0000000a               # addi    a5, a5, 1
00000000 00000798 0000 80000848  x11:00100048 x11=00100050               # addi    a1, a1, 8
00000000 00000799 0000 8000084c  x10:00000019 x15:0000000a               # beq     a0, a5, pc + 24
00000000 00000800 0000 80000850  x15:0000000a x12=00000000               # andi    a2, a5, 1
00000000 00000801 0000 80000854  x12:00000000                            # bnez    a2, pc - 16
00000000 00000802 0000 80000858  x11:00100050 RA:00100050 RA:00100054 f05=       14.142000  # fld     ft5, 0(a1)
00000000 00000803 0000 8000085c  f05:       14.142000 f04:       28.284000 f04=       42.426000  # fadd.d  ft4, ft5, ft4
00000000 00000804 0000 80000860                                          # j       pc - 0x1c
00000000 00000805 0000 80000844  x15:0000000a x15=0000000b               # addi    a5, a5, 1
00000000 00000806 0000 80000848  x11:00100050 x11=00100058               # addi    a1, a1, 8
00000000 00000807 0000 8000084c  x10:00000019 x15:0000000b               # beq     a0, a5, pc + 24
00000000 00000808 0000 80000850  x15:0000000b x12=00000001               # andi    a2, a5, 1
00000000 00000809 0000 80000854  x12:00000001                            # bnez    a2, pc - 16
00000000 00000810 0000 80000844  x15:0000000b x15=0000000c               # addi    a5, a5, 1
00000000 00000811 0000 80000848  x11:00100058 x11=00100060               # addi    a1, a1, 8
00000000 00000812 0000 8000084c  x10:00000019 x15:0000000c               # beq     a0, a5, pc + 24
00000000 00000813 0000 80000850  x15:0000000c x12=00000000               # andi    a2, a5, 1
00000000 00000814 0000 80000854  x12:00000000                            # bnez    a2, pc - 16
00000000 00000815 0000 80000858  x11:00100060 RA:00100060 RA:00100064 f05=       16.970400  # fld     ft5, 0(a1)
00000000 00000816 0000 8000085c  f05:       16.970400 f04:       42.426000 f04=       59.396400  # fadd.d  ft4, ft5, ft4
00000000 00000817 0000 80000860                                          # j       pc - 0x1c
00000000 00000818 0000 80000844  x15:0000000c x15=0000000d               # addi    a5, a5, 1
00000000 00000819 0000 80000848  x11:00100060 x11=00100068               # addi    a1, a1, 8
00000000 00000820 0000 8000084c  x10:00000019 x15:0000000d               # beq     a0, a5, pc + 24
00000000 00000821 0000 80000850  x15:0000000d x12=00000001               # andi    a2, a5, 1
00000000 00000822 0000 80000854  x12:00000001                            # bnez    a2, pc - 16
00000000 00000823 0000 80000844  x15:0000000d x15=0000000e               # addi    a5, a5, 1
00000000 00000824 0000 80000848  x11:00100068 x11=00100070               # addi    a1, a1, 8
00000000 00000825 0000 8000084c  x10:00000019 x15:0000000e               # beq     a0, a5, pc + 24
00000000 00000826 0000 80000850  x15:0000000e x12=00000000               # andi    a2, a5, 1
00000000 00000827 0000 80000854  x12:00000000                            # bnez    a2, pc - 16
00000000 00000828 0000 80000858  x11:00100070 RA:00100070 RA:00100074 f05=       19.798800  # fld     ft5, 0(a1)
00000000 00000829 0000 8000085c  f05:       19.798800 f04:       59.396400 f04=       79.195200  # fadd.d  ft4, ft5, ft4
00000000 00000830 0000 80000860                                          # j       pc - 0x1c
00000000 00000831 0000 80000844  x15:0000000e x15=0000000f               # addi    a5, a5, 1
00000000 00000832 0000 80000848  x11:00100070 x11=00100078               # addi    a1, a1, 8
00000000 00000833 0000 8000084c  x10:00000019 x15:0000000f               # beq     a0, a5, pc + 24
00000000 00000834 0000 80000850  x15:0000000f x12=00000001               # andi    a2, a5, 1
00000000 00000835 0000 80000854  x12:00000001                            # bnez    a2, pc - 16
00000000 00000836 0000 80000844  x15:0000000f x15=00000010               # addi    a5, a5, 1
00000000 00000837 0000 80000848  x11:00100078 x11=00100080               # addi    a1, a1, 8
00000000 00000838 0000 8000084c  x10:00000019 x15:00000010               # beq     a0, a5, pc + 24
00000000 00000839 0000 80000850  x15:00000010 x12=00000000               # andi    a2, a5, 1
00000000 00000840 0000 80000854  x12:00000000                            # bnez    a2, pc - 16
00000000 00000841 0000 80000858  x11:00100080 RA:00100080 RA:00100084 f05=       22.627200  # fld     ft5, 0(a1)
00000000 00000842 0000 8000085c  f05:       22.627200 f04:       79.195200 f04=      101.822400  # fadd.d  ft4, ft5, ft4
00000000 00000843 0000 80000860                                          # j       pc - 0x1c
00000000 00000844 0000 80000844  x15:00000010 x15=00000011               # addi    a5, a5, 1
00000000 00000845 0000 80000848  x11:00100080 x11=00100088               # addi    a1, a1, 8
00000000 00000846 0000 8000084c  x10:00000019 x15:00000011               # beq     a0, a5, pc + 24
00000000 00000847 0000 80000850  x15:00000011 x12=00000001               # andi    a2, a5, 1
00000000 00000848 0000 80000854  x12:00000001                            # bnez    a2, pc - 16
00000000 00000849 0000 80000844  x15:00000011 x15=00000012               # addi    a5, a5, 1
00000000 00000850 0000 80000848  x11:00100088 x11=00100090               # addi    a1, a1, 8
00000000 00000851 0000 8000084c  x10:00000019 x15:00000012               # beq     a0, a5, pc + 24
00000000 00000852 0000 80000850  x15:00000012 x12=00000000               # andi    a2, a5, 1
00000000 00000853 0000 80000854  x12:00000000                            # bnez    a2, pc - 16
00000000 00000854 0000 80000858  x11:00100090 RA:00100090 RA:00100094 f05=       25.455600  # fld     ft5, 0(a1)
00000000 00000855 0000 8000085c  f05:       25.455600 f04:      101.822400 f04=      127.278000  # fadd.d  ft4, ft5, ft4
00000000 00000856 0000 80000860                                          # j       pc - 0x1c
00000000 00000857 0000 80000844  x15:00000012 x15=00000013               # addi    a5, a5, 1
00000000 00000858 0000 80000848  x11:00100090 x11=00100098               # addi    a1, a1, 8
00000000 00000859 0000 8000084c  x10:00000019 x15:00000013               # beq     a0, a5, pc + 24
00000000 00000860 0000 80000850  x15:00000013 x12=00000001               # andi    a2, a5, 1
00000000 00000861 0000 80000854  x12:00000001                            # bnez    a2, pc - 16
00000000 00000862 0000 80000844  x15:00000013 x15=00000014               # addi    a5, a5, 1
00000000 00000863 0000 80000848  x11:00100098 x11=001000a0               # addi    a1, a1, 8
00000000 00000864 0000 8000084c  x10:00000019 x15:00000014               # beq     a0, a5, pc + 24
00000000 00000865 0000 80000850  x15:00000014 x12=00000000               # andi    a2, a5, 1
00000000 00000866 0000 80000854  x12:00000000                            # bnez    a2, pc - 16
00000000 00000867 0000 80000858  x11:001000a0 RA:001000a0 RA:001000a4 f05=       28.284000  # fld     ft5, 0(a1)
00000000 00000868 0000 8000085c  f05:       28.284000 f04:      127.278000 f04=      155.562000  # fadd.d  ft4, ft5, ft4
00000000 00000869 0000 80000860                                          # j       pc - 0x1c
00000000 00000870 0000 80000844  x15:00000014 x15=00000015               # addi    a5, a5, 1
00000000 00000871 0000 80000848  x11:001000a0 x11=001000a8               # addi    a1, a1, 8
00000000 00000872 0000 8000084c  x10:00000019 x15:00000015               # beq     a0, a5, pc + 24
00000000 00000873 0000 80000850  x15:00000015 x12=00000001               # andi    a2, a5, 1
00000000 00000874 0000 80000854  x12:00000001                            # bnez    a2, pc - 16
00000000 00000875 0000 80000844  x15:00000015 x15=00000016               # addi    a5, a5, 1
00000000 00000876 0000 80000848  x11:001000a8 x11=001000b0               # addi    a1, a1, 8
00000000 00000877 0000 8000084c  x10:00000019 x15:00000016               # beq     a0, a5, pc + 24
00000000 00000878 0000 80000850  x15:00000016 x12=00000000               # andi    a2, a5, 1
00000000 00000879 0000 80000854  x12:00000000                            # bnez    a2, pc - 16
00000000 00000880 0000 80000858  x11:001000b0 RA:001000b0 RA:001000b4 f05=       31.112400  # fld     ft5, 0(a1)
00000000 00000881 0000 8000085c  f05:       31.112400 f04:      155.562000 f04=      186.674400  # fadd.d  ft4, ft5, ft4
00000000 00000882 0000 80000860                                          # j       pc - 0x1c
00000000 00000883 0000 80000844  x15:00000016 x15=00000017               # addi    a5, a5, 1
00000000 00000884 0000 80000848  x11:001000b0 x11=001000b8               # addi    a1, a1, 8
00000000 00000885 0000 8000084c  x10:00000019 x15:00000017               # beq     a0, a5, pc + 24
00000000 00000886 0000 80000850  x15:00000017 x12=00000001               # andi    a2, a5, 1
00000000 00000887 0000 80000854  x12:00000001                            # bnez    a2, pc - 16
00000000 00000888 0000 80000844  x15:00000017 x15=00000018               # addi    a5, a5, 1
00000000 00000889 0000 80000848  x11:001000b8 x11=001000c0               # addi    a1, a1, 8
00000000 00000890 0000 8000084c  x10:00000019 x15:00000018               # beq     a0, a5, pc + 24
00000000 00000891 0000 80000850  x15:00000018 x12=00000000               # andi    a2, a5, 1
00000000 00000892 0000 80000854  x12:00000000                            # bnez    a2, pc - 16
00000000 00000893 0000 80000858  x11:001000c0 RA:001000c0 RA:001000c4 f05=       33.940800  # fld     ft5, 0(a1)
00000000 00000894 0000 8000085c  f05:       33.940800 f04:      186.674400 f04=      220.615200  # fadd.d  ft4, ft5, ft4
00000000 00000895 0000 80000860                                          # j       pc - 0x1c
00000000 00000896 0000 80000844  x15:00000018 x15=00000019               # addi    a5, a5, 1
00000000 00000897 0000 80000848  x11:001000c0 x11=001000c8               # addi    a1, a1, 8
00000000 00000898 0000 8000084c  x10:00000019 x15:00000019               # beq     a0, a5, pc + 24
00000000 00000899 0000 80000864  x11=0000000a                            # li      a1, 10
00000000 00000900 0000 80000868  x5:00000018 x15=00000018                # mv      a5, t0
00000000 00000901 0000 8000086c  x5:00000018 x11:0000000a                # bltu    t0, a1, pc + 8
00000000 00000902 0000 80000870  x15=0000000a                            # li      a5, 10
00000000 00000903 0000 80000874  x15:0000000a x11=00000050               # slli    a1, a5, 3
00000000 00000904 0000 80000878  x7:00100000 x11:00000050 x11=00100050   # add     a1, t2, a1
00000000 00000905 0000 8000087c  x11:00100050 x7:00100000                # bgeu    a1, t2, pc + 144
00000000 00000906 0000 8000090c  x12=00120000                            # lui     a2, 0x120
00000000 00000907 0000 80000910  x12:00120000 x12=00120001               # addi    a2, a2, 1
00000000 00000908 0000 80000914  x11:00100050 x12:00120001 x11=00000001  # sltu    a1, a1, a2
00000000 00000909 0000 80000918  x16:00000001 x11:00000001 x11=00000001  # and     a1, a6, a1
00000000 00000910 0000 8000091c  x11:00000001                            # beqz    a1, pc - 144
00000000 00000911 0000 80000920  x11=00000008                            # li      a1, 8
00000000 00000912 0000 80000924  x12=00000040                            # li      a2, 64
00000000 00000913 0000 80000928  x13=000000c0                            # li      a3, 192
00000000 00000914 0000 8000092c  x15:0000000a x12:00000040 WA:00204810   # scfgw   a5, a2
00000000 00000915 0000 80000930  x11:00000008 x13:000000c0 WA:00204830   # scfgw   a1, a3
00000000 00000916 0000 80000934  x11=00000020                            # li      a1, 32
00000000 00000917 0000 80000938  x11:00000020 WA:00204808                # scfgw   zero, a1
00000000 00000918 0000 8000093c  x7:00100000 WA:002048c0                 # scfgwi  t2, 768
00000000 00000919 0000 80000940  x11=00000000                            # csrrsi  a1, ssr, 1
00000000 00000920 0000 80000944  x15:0000000a x11=0000000b               # addi    a1, a5, 1
00000000 00000921 0000 80000948  f05=        0.000000                    # fcvt.d.w ft5, zero
00000000 00000922 0000 8000094c  x11:0000000b x11=0000000a               # addi    a1, a1, -1
00000000 00000923 0000 80000950  f00:        0.000000 f05:        0.000000 f05=        0.000000  # fadd.d  ft5, ft0, ft5
00000000 00000924 0000 80000954  x11:0000000a                            # bnez    a1, pc - 8
00000000 00000925 0000 8000094c  x11:0000000a x11=00000009               # addi    a1, a1, -1
00000000 00000926 0000 80000950  f00:        1.414200 f05:        0.000000 f05=        1.414200  # fadd.d  ft5, ft0, ft5
00000000 00000927 0000 80000954  x11:00000009                            # bnez    a1, pc - 8
00000000 00000928 0000 8000094c  x11:00000009 x11=00000008               # addi    a1, a1, -1
00000000 00000929 0000 80000950  f00:        2.828400 f05:        1.414200 f05=        4.242600  # fadd.d  ft5, ft0, ft5
00000000 00000930 0000 80000954  x11:00000008                            # bnez    a1, pc - 8
00000000 00000931 0000 8000094c  x11:00000008 x11=00000007               # addi    a1, a1, -1
00000000 00000932 0000 80000950  f00:        4.242600 f05:        4.242600 f05=        8.485200  # fadd.d  ft5, ft0, ft5
00000000 00000933 0000 80000954  x11:00000007                            # bnez    a1, pc - 8
00000000 00000934 0000 8000094c  x11:00000007 x11=00000006               # addi    a1, a1, -1
00000000 00000935 0000 80000950  f00:        5.656800 f05:        8.485200 f05=       14.142000  # fadd.d  ft5, ft0, ft5
00000000 00000936 0000 80000954  x11:00000006                            # bnez    a1, pc - 8
00000000 00000937 0000 8000094c  x11:00000006 x11=00000005               # addi    a1, a1, -1
00000000 00000938 0000 80000950  f00:        7.071000 f05:       14.142000 f05=       21.213000  # fadd.d  ft5, ft0, ft5
00000000 00000939 0000 80000954  x11:00000005                            # bnez    a1, pc - 8
00000000 00000940 0000 8000094c  x11:00000005 x11=00000004               # addi    a1, a1, -1
00000000 00000941 0000 80000950  f00:        8.485200 f05:       21.213000 f05=       29.698200  # fadd.d  ft5, ft0, ft5
00000000 00000942 0000 80000954  x11:00000004                            # bnez    a1, pc - 8
00000000 00000943 0000 8000094c  x11:00000004 x11=00000003               # addi    a1, a1, -1
00000000 00000944 0000 80000950  f00:        9.899400 f05:       29.698200 f05=       39.597600  # fadd.d  ft5, ft0, ft5
00000000 00000945 0000 80000954  x11:00000003                            # bnez    a1, pc - 8
00000000 00000946 0000 8000094c  x11:00000003 x11=00000002               # addi    a1, a1, -1
00000000 00000947 0000 80000950  f00:       11.313600 f05:       39.597600 f05=       50.911200  # fadd.d  ft5, ft0, ft5
00000000 00000948 0000 80000954  x11:00000002                            # bnez    a1, pc - 8
00000000 00000949 0000 8000094c  x11:00000002 x11=00000001               # addi    a1, a1, -1
00000000 00000950 0000 80000950  f00:       12.727800 f05:       50.911200 f05=       63.639000  # fadd.d  ft5, ft0, ft5
00000000 00000951 0000 80000954  x11:00000001                            # bnez    a1, pc - 8
00000000 00000952 0000 8000094c  x11:00000001 x11=00000000               # addi    a1, a1, -1
00000000 00000953 0000 80000950  f00:       14.142000 f05:       63.639000 f05=       77.781000  # fadd.d  ft5, ft0, ft5
00000000 00000954 0000 80000954  x11:00000000                            # bnez    a1, pc - 8
00000000 00000955 0000 80000958  x11=00000001                            # csrrci  a1, ssr, 1
00000000 00000956 0000 8000095c  x17:00000001                            # bnez    a7, pc - 172
00000000 00000957 0000 800008b0  x11=00000008                            # li      a1, 8
00000000 00000958 0000 800008b4  x12=00000040                            # li      a2, 64
00000000 00000959 0000 800008b8  x13=000000c0                            # li      a3, 192
00000000 00000960 0000 800008bc  x5:00000018 x12:00000040 WA:00204810    # scfgw   t0, a2
00000000 00000961 0000 800008c0  x11:00000008 x13:000000c0 WA:00204830   # scfgw   a1, a3
00000000 00000962 0000 800008c4  x12=00000020                            # li      a2, 32
00000000 00000963 0000 800008c8  x12:00000020 WA:00204808                # scfgw   zero, a2
00000000 00000964 0000 800008cc  x7:00100000 WA:002048c0                 # scfgwi  t2, 768
00000000 00000965 0000 800008d0  x12=00000001                            # li      a2, 1
00000000 00000966 0000 800008d4  x12:00000001 x13=00000041               # addi    a3, a2, 64
00000000 00000967 0000 800008d8  x12:00000001 x14=000000c1               # addi    a4, a2, 192
00000000 00000968 0000 800008dc  x5:00000018 x13:00000041 WA:00204910    # scfgw   t0, a3
00000000 00000969 0000 800008e0  x11:00000008 x14:000000c1 WA:00204930   # scfgw   a1, a4
00000000 00000970 0000 800008e4  x12:00000001 x11=00000021               # addi    a1, a2, 32
00000000 00000971 0000 800008e8  x11:00000021 WA:00204908                # scfgw   zero, a1
00000000 00000972 0000 800008ec  x7:00100000 WA:002049c0                 # scfgwi  t2, 769
00000000 00000973 0000 800008f0  x11=00000000                            # csrrsi  a1, ssr, 1
00000000 00000974 0000 800008f4  f06=        0.000000                    # fcvt.d.w ft6, zero
00000000 00000975 0000 800008f8  x10:00000019 x10=00000018               # addi    a0, a0, -1
00000000 00000976 0000 800008fc  f01:        0.000000 f00:        0.000000 f06:        0.000000 f06=        0.000000  # fmadd.d ft6, ft1, ft0, ft6
00000000 00000977 0000 80000900  x10:00000018                            # bnez    a0, pc - 8
00000000 00000978 0000 800008f8  x10:00000018 x10=00000017               # addi    a0, a0, -1
00000000 00000979 0000 800008fc  f01:        1.414200 f00:        1.414200 f06:        0.000000 f06=        1.999962  # fmadd.d ft6, ft1, ft0, ft6
00000000 00000980 0000 80000900  x10:00000017                            # bnez    a0, pc - 8
00000000 00000981 0000 800008f8  x10:00000017 x10=00000016               # addi    a0, a0, -1
00000000 00000982 0000 800008fc  f01:        2.828400 f00:        2.828400 f06:        1.999962 f06=        9.999808  # fmadd.d ft6, ft1, ft0, ft6
00000000 00000983 0000 80000900  x10:00000016                            # bnez    a0, pc - 8
00000000 00000984 0000 800008f8  x10:00000016 x10=00000015               # addi    a0, a0, -1
00000000 00000985 0000 800008fc  f01:        4.242600 f00:        4.242600 f06:        9.999808 f06=       27.999463  # fmadd.d ft6, ft1, ft0, ft6
00000000 00000986 0000 80000900  x10:00000015                            # bnez    a0, pc - 8
00000000 00000987 0000 800008f8  x10:00000015 x10=00000014               # addi    a0, a0, -1
00000000 00000988 0000 800008fc  f01:        5.656800 f00:        5.656800 f06:       27.999463 f06=       59.998849  # fmadd.d ft6, ft1, ft0, ft6
00000000 00000989 0000 80000900  x10:00000014                            # bnez    a0, pc - 8
00000000 00000990 0000 800008f8  x10:00000014 x10=00000013               # addi    a0, a0, -1
00000000 00000991 0000 800008fc  f01:        7.071000 f00:        7.071000 f06:       59.998849 f06=      109.997890  # fmadd.d ft6, ft1, ft0, ft6
00000000 00000992 0000 80000900  x10:00000013                            # bnez    a0, pc - 8
00000000 00000993 0000 800008f8  x10:00000013 x10=00000012               # addi    a0, a0, -1
00000000 00000994 0000 800008fc  f01:        8.485200 f00:        8.485200 f06:      109.997890 f06=      181.996509  # fmadd.d ft6, ft1, ft0, ft6
00000000 00000995 0000 80000900  x10:00000012                            # bnez    a0, pc - 8
00000000 00000996 0000 800008f8  x10:00000012 x10=00000011               # addi    a0, a0, -1
00000000 00000997 0000 800008fc  f01:        9.899400 f00:        9.899400 f06:      181.996509 f06=      279.994630  # fmadd.d ft6, ft1, ft0, ft6
00000000 00000998 0000 80000900  x10:00000011                            # bnez    a0, pc - 8
00000000 00000999 0000 800008f8  x10:00000011 x10=00000010               # addi    a0, a0, -1
00000000 00001000 0000 800008fc  f01:       11.313600 f00:       11.313600 f06:      279.994630 f06=      407.992175  # fmadd.d ft6, ft1, ft0, ft6
00000000 00001001 0000 80000900  x10:00000010                            # bnez    a0, pc - 8
00000000 00001002 0000 800008f8  x10:00000010 x10=0000000f               # addi    a0, a0, -1
00000000 00001003 0000 800008fc  f01:       12.727800 f00:       12.727800 f06:      407.992175 f06=      569.989067  # fmadd.d ft6, ft1, ft0, ft6
00000000 00001004 0000 80000900  x10:0000000f                            # bnez    a0, pc - 8
00000000 00001005 0000 800008f8  x10:0000000f x10=0000000e               # addi    a0, a0, -1
00000000 00001006 0000 800008fc  f01:       14.142000 f00:       14.142000 f06:      569.989067 f06=      769.985231  # fmadd.d ft6, ft1, ft0, ft6
00000000 00001007 0000 80000900  x10:0000000e                            # bnez    a0, pc - 8
00000000 00001008 0000 800008f8  x10:0000000e x10=0000000d               # addi    a0, a0, -1
00000000 00001009 0000 800008fc  f01:       15.556200 f00:       15.556200 f06:      769.985231 f06=     1011.980590  # fmadd.d ft6, ft1, ft0, ft6
00000000 00001010 0000 80000900  x10:0000000d                            # bnez    a0, pc - 8
00000000 00001011 0000 800008f8  x10:0000000d x10=0000000c               # addi    a0, a0, -1
00000000 00001012 0000 800008fc  f01:       16.970400 f00:       16.970400 f06:     1011.980590 f06=     1299.975066  # fmadd.d ft6, ft1, ft0, ft6
00000000 00001013 0000 80000900  x10:0000000c                            # bnez    a0, pc - 8
00000000 00001014 0000 800008f8  x10:0000000c x10=0000000b               # addi    a0, a0, -1
00000000 00001015 0000 800008fc  f01:       18.384600 f00:       18.384600 f06:     1299.975066 f06=     1637.968583  # fmadd.d ft6, ft1, ft0, ft6
00000000 00001016 0000 80000900  x10:0000000b                            # bnez    a0, pc - 8
00000000 00001017 0000 800008f8  x10:0000000b x10=0000000a               # addi    a0, a0, -1
00000000 00001018 0000 800008fc  f01:       19.798800 f00:       19.798800 f06:     1637.968583 f06=     2029.961065  # fmadd.d ft6, ft1, ft0, ft6
00000000 00001019 0000 80000900  x10:0000000a                            # bnez    a0, pc - 8
00000000 00001020 0000 800008f8  x10:0000000a x10=00000009               # addi    a0, a0, -1
00000000 00001021 0000 800008fc  f01:       21.213000 f00:       21.213000 f06:     2029.961065 f06=     2479.952434  # fmadd.d ft6, ft1, ft0, ft6
00000000 00001022 0000 80000900  x10:00000009                            # bnez    a0, pc - 8
00000000 00001023 0000 800008f8  x10:00000009 x10=00000008               # addi    a0, a0, -1
00000000 00001024 0000 800008fc  f01:       22.627200 f00:       22.627200 f06:     2479.952434 f06=     2991.942613  # fmadd.d ft6, ft1, ft0, ft6
00000000 00001025 0000 80000900  x10:00000008                            # bnez    a0, pc - 8
00000000 00001026 0000 800008f8  x10:00000008 x10=00000007               # addi    a0, a0, -1
00000000 00001027 0000 800008fc  f01:       24.041400 f00:       24.041400 f06:     2991.942613 f06=     3569.931527  # fmadd.d ft6, ft1, ft0, ft6
00000000 00001028 0000 80000900  x10:00000007                            # bnez    a0, pc - 8
00000000 00001029 0000 800008f8  x10:00000007 x10=00000006               # addi    a0, a0, -1
00000000 00001030 0000 800008fc  f01:       25.455600 f00:       25.455600 f06:     3569.931527 f06=     4217.919099  # fmadd.d ft6, ft1, ft0, ft6
00000000 00001031 0000 80000900  x10:00000006                            # bnez    a0, pc - 8
00000000 00001032 0000 800008f8  x10:00000006 x10=00000005               # addi    a0, a0, -1
00000000 00001033 0000 800008fc  f01:       26.869800 f00:       26.869800 f06:     4217.919099 f06=     4939.905251  # fmadd.d ft6, ft1, ft0, ft6
00000000 00001034 0000 80000900  x10:00000005                            # bnez    a0, pc - 8
00000000 00001035 0000 800008f8  x10:00000005 x10=00000004               # addi    a0, a0, -1
00000000 00001036 0000 800008fc  f01:       28.284000 f00:       28.284000 f06:     4939.905251 f06=     5739.889907  # fmadd.d ft6, ft1, ft0, ft6
00000000 00001037 0000 80000900  x10:00000004                            # bnez    a0, pc - 8
00000000 00001038 0000 800008f8  x10:00000004 x10=00000003               # addi    a0, a0, -1
00000000 00001039 0000 800008fc  f01:       29.698200 f00:       29.698200 f06:     5739.889907 f06=     6621.872990  # fmadd.d ft6, ft1, ft0, ft6
00000000 00001040 0000 80000900  x10:00000003                            # bnez    a0, pc - 8
00000000 00001041 0000 800008f8  x10:00000003 x10=00000002               # addi    a0, a0, -1
00000000 00001042 0000 800008fc  f01:       31.112400 f00:       31.112400 f06:     6621.872990 f06=     7589.854424  # fmadd.d ft6, ft1, ft0, ft6
00000000 00001043 0000 80000900  x10:00000002                            # bnez    a0, pc - 8
00000000 00001044 0000 800008f8  x10:00000002 x10=00000001               # addi    a0, a0, -1
00000000 00001045 0000 800008fc  f01:       32.526600 f00:       32.526600 f06:     7589.854424 f06=     8647.834131  # fmadd.d ft6, ft1, ft0, ft6
00000000 00001046 0000 80000900  x10:00000001                            # bnez    a0, pc - 8
00000000 00001047 0000 800008f8  x10:00000001 x10=00000000               # addi    a0, a0, -1
00000000 00001048 0000 800008fc  f01:       33.940800 f00:       33.940800 f06:     8647.834131 f06=     9799.812036  # fmadd.d ft6, ft1, ft0, ft6
00000000 00001049 0000 80000900  x10:00000000                            # bnez    a0, pc - 8
00000000 00001050 0000 80000904  x10=00000001                            # csrrci  a0, ssr, 1
00000000 00001051 0000 80000908                                          # j       pc + 0x70
00000000 00001052 0000 80000978  x10=80002978                            # auipc   a0, 0x2
00000000 00001053 0000 8000097c  x10:80002978 x10=80002ee8               # addi    a0, a0, 1392
00000000 00001054 0000 80000980  x10:80002ee8 RA:80002ee8 RA:80002eec f07=     -220.615200  # fld     ft7, 0(a0)
00000000 00001055 0000 80000984  x10=80002984                            # auipc   a0, 0x2
00000000 00001056 0000 80000988  x10:80002984 x10=80002ee0               # addi    a0, a0, 1372
00000000 00001057 0000 8000098c  x10:80002ee0 RA:80002ee0 RA:80002ee4 f10=    -9799.812036  # fld     fa0, 0(a0)
00000000 00001058 0000 80000990  f04:      220.615200 f07:     -220.615200 f04=        0.000000  # fadd.d  ft4, ft4, ft7
00000000 00001059 0000 80000994  x10=80002994                            # auipc   a0, 0x2
00000000 00001060 0000 80000998  x10:80002994 x10=80002ef0               # addi    a0, a0, 1372
00000000 00001061 0000 8000099c  x10:80002ef0 RA:80002ef0 RA:80002ef4 f07=      -77.781000  # fld     ft7, 0(a0)
00000000 00001062 0000 800009a0  f03:    14399.723808 f10:    -9799.812036 f03=     4599.911772  # fadd.d  ft3, ft3, fa0
00000000 00001063 0000 800009a4  f03:     4599.911772 f03:     4599.911772 f03=     4599.911772  # fsgnjx.d ft3, ft3, ft3
00000000 00001064 0000 800009a8  f04:        0.000000 f04:        0.000000 f04=        0.000000  # fsgnjx.d ft4, ft4, ft4
00000000 00001065 0000 800009ac  f05:       77.781000 f07:      -77.781000 f05=       -0.000000  # fadd.d  ft5, ft5, ft7
00000000 00001066 0000 800009b0  f05:       -0.000000 f05:       -0.000000 f05=        0.000000  # fsgnjx.d ft5, ft5, ft5
00000000 00001067 0000 800009b4  f06:     9799.812036 f10:    -9799.812036 f06=        0.000000  # fadd.d  ft6, ft6, fa0
00000000 00001068 0000 800009b8  f06:        0.000000 f06:        0.000000 f06=        0.000000  # fsgnjx.d ft6, ft6, ft6
00000000 00001069 0000 800009bc  f03:     4599.911772 f05:        0.000000 f03=     4599.911772  # fadd.d  ft3, ft3, ft5
00000000 00001070 0000 800009c0  f03:     4599.911772 f04:        0.000000 f03=     4599.911772  # fadd.d  ft3, ft3, ft4
00000000 00001071 0000 800009c4  f03:     4599.911772 f06:        0.000000 f08=     4599.911772  # fadd.d  fs0, ft3, ft6
00000000 00001072 0000 800009c8  x2:0011ff40 f08:     4599.911772 WA:0011ff48 WA:0011ff4c  # fsd     fs0, 8(sp)
00000000 00001073 0000 800009cc  x2:0011ff40 RA:0011ff48 x12=69e3c964    # lw      a2, 8(sp)
00000000 00001074 0000 800009d0  x2:0011ff40 RA:0011ff4c x13=40b1f7e9    # lw      a3, 12(sp)
00000000 00001075 0000 800009d4  x10=800029d4                            # auipc   a0, 0x2
00000000 00001076 0000 800009d8  x10:800029d4 x10=80002ca5               # addi    a0, a0, 721
00000000 00001077 0000 800009dc  x1=800009dc                             # auipc   ra, 0x0
00000000 00001078 0000 800009e0  x1:800009dc x1=800009e4                 # jalr    ra, ra, 40
00000000 00001079 0000 80000a04  x2:0011ff40 x2=0011ff10                 # addi    sp, sp, -48
00000000 00001080 0000 80000a08  x2:0011ff10 x1:800009e4 WA:0011ff1c     # sw      ra, 12(sp)
00000000 00001081 0000 80000a0c  x10:80002ca5 x5=80002ca5                # mv      t0, a0
00000000 00001082 0000 80000a10  x2:0011ff10 x17:00000001 WA:0011ff3c    # sw      a7, 44(sp)
00000000 00001083 0000 80000a14  x2:0011ff10 x16:00000001 WA:0011ff38    # sw      a6, 40(sp)
00000000 00001084 0000 80000a18  x2:0011ff10 x15:0000000a WA:0011ff34    # sw      a5, 36(sp)
00000000 00001085 0000 80000a1c  x2:0011ff10 x14:000000c1 WA:0011ff30    # sw      a4, 32(sp)
00000000 00001086 0000 80000a20  x2:0011ff10 x13:40b1f7e9 WA:0011ff2c    # sw      a3, 28(sp)
00000000 00001087 0000 80000a24  x2:0011ff10 x12:69e3c964 WA:0011ff28    # sw      a2, 24(sp)
00000000 00001088 0000 80000a28  x2:0011ff10 x11:00000000 WA:0011ff24    # sw      a1, 20(sp)
00000000 00001089 0000 80000a2c  x2:0011ff10 x10=0011ff24                # addi    a0, sp, 20
00000000 00001090 0000 80000a30  x2:0011ff10 x10:0011ff24 WA:0011ff18    # sw      a0, 8(sp)
00000000 00001091 0000 80000a34  x10=80001a34                            # auipc   a0, 0x1
00000000 00001092 0000 80000a38  x10:80001a34 x10=80001658               # addi    a0, a0, -988
00000000 00001093 0000 80000a3c  x2:0011ff10 x11=0011ff17                # addi    a1, sp, 7
00000000 00001094 0000 80000a40  x12=ffffffff                            # li      a2, -1
00000000 00001095 0000 80000a44  x2:0011ff10 x14=0011ff24                # addi    a4, sp, 20
00000000 00001096 0000 80000a48  x5:80002ca5 x13=80002ca5                # mv      a3, t0
00000000 00001097 0000 80000a4c  x1=80000a4c                             # auipc   ra, 0x0
00000000 00001098 0000 80000a50  x1:80000a4c x1=80000a54                 # jalr    ra, ra, 20
00000000 00001099 0000 80000a60  x2:0011ff10 x2=0011fea0                 # addi    sp, sp, -112
00000000 00001100 0000 80000a64  x2:0011fea0 x1:80000a54 WA:0011ff0c     # sw      ra, 108(sp)
00000000 00001101 0000 80000a68  x2:0011fea0 x8:00000000 WA:0011ff08     # sw      s0, 104(sp)
00000000 00001102 0000 80000a6c  x2:0011fea0 x9:00000000 WA:0011ff04     # sw      s1, 100(sp)
00000000 00001103 0000 80000a70  x2:0011fea0 x18:00000000 WA:0011ff00    # sw      s2, 96(sp)
00000000 00001104 0000 80000a74  x2:0011fea0 x19:00000000 WA:0011fefc    # sw      s3, 92(sp)
00000000 00001105 0000 80000a78  x2:0011fea0 x20:00000000 WA:0011fef8    # sw      s4, 88(sp)
00000000 00001106 0000 80000a7c  x2:0011fea0 x21:00000000 WA:0011fef4    # sw      s5, 84(sp)
00000000 00001107 0000 80000a80  x2:0011fea0 x22:00000000 WA:0011fef0    # sw      s6, 80(sp)
00000000 00001108 0000 80000a84  x2:0011fea0 x23:00000000 WA:0011feec    # sw      s7, 76(sp)
00000000 00001109 0000 80000a88  x2:0011fea0 x24:00000000 WA:0011fee8    # sw      s8, 72(sp)
00000000 00001110 0000 80000a8c  x2:0011fea0 x25:00000000 WA:0011fee4    # sw      s9, 68(sp)
00000000 00001111 0000 80000a90  x2:0011fea0 x26:00000000 WA:0011fee0    # sw      s10, 64(sp)
00000000 00001112 0000 80000a94  x2:0011fea0 x27:00000000 WA:0011fedc    # sw      s11, 60(sp)
00000000 00001113 0000 80000a98  x14:0011ff24 x19=0011ff24               # mv      s3, a4
00000000 00001114 0000 80000a9c  x13:80002ca5 x8=80002ca5                # mv      s0, a3
00000000 00001115 0000 80000aa0  x12:ffffffff x21=ffffffff               # mv      s5, a2
00000000 00001116 0000 80000aa4  x11:0011ff17 x20=0011ff17               # mv      s4, a1
00000000 00001117 0000 80000aa8  x11:0011ff17                            # beqz    a1, pc + 12
00000000 00001118 0000 80000aac  x10:80001658 x18=80001658               # mv      s2, a0
00000000 00001119 0000 80000ab0                                          # j       pc + 0xc
00000000 00001120 0000 80000abc  x24=00000000                            # li      s8, 0
00000000 00001121 0000 80000ac0  x22=00000025                            # li      s6, 37
00000000 00001122 0000 80000ac4  x27=00000010                            # li      s11, 16
00000000 00001123 0000 80000ac8  x23=0000002e                            # li      s7, 46
00000000 00001124 0000 80000acc  x10=00001000                            # lui     a0, 0x1
00000000 00001125 0000 80000ad0  x10:00001000 x10=00000800               # addi    a0, a0, -2048
00000000 00001126 0000 80000ad4  x2:0011fea0 x10:00000800 WA:0011feb8    # sw      a0, 24(sp)
00000000 00001127 0000 80000ad8  x10=00010000                            # lui     a0, 0x10
00000000 00001128 0000 80000adc  x10:00010000 x10=0000ffff               # addi    a0, a0, -1
00000000 00001129 0000 80000ae0  x2:0011fea0 x10:0000ffff WA:0011feb0    # sw      a0, 16(sp)
00000000 00001130 0000 80000ae4  x8:80002ca5 x26=80002ca7                # addi    s10, s0, 2
00000000 00001131 0000 80000ae8  x24:00000000 x25=00000000               # mv      s9, s8
00000000 00001132 0000 80000aec  x24=0000000a                            # li      s8, 10
00000000 00001133 0000 80000af0  x8:80002ca5 RA:80002ca5 x10=00000065    # lbu     a0, 0(s0)
00000000 00001134 0000 80000af4  x10:00000065                            # beqz    a0, pc + 2824
00000000 00001135 0000 80000af8  x10:00000065 x22:00000025               # beq     a0, s6, pc + 48
00000000 00001136 0000 80000afc  x25:00000000 x9=00000001                # addi    s1, s9, 1
00000000 00001137 0000 80000b00  x20:0011ff17 x11=0011ff17               # mv      a1, s4
00000000 00001138 0000 80000b04  x25:00000000 x12=00000000               # mv      a2, s9
00000000 00001139 0000 80000b08  x21:ffffffff x13=ffffffff               # mv      a3, s5
00000000 00001140 0000 80000b0c  x18:80001658 x1=80000b10                # jalr    s2
00000000 00001141 0000 80001658  x10:00000065                            # beqz    a0, pc + 12
00000000 00001142 0000 8000165c  x11=f00b8000                            # lui     a1, 0xf00b8
00000000 00001143 0000 80001660  x11:f00b8000 x10:00000065 WA:f00b8000   # sw      a0, 0(a1)
00000000 00001144 0000 80001664  x1:80000b10                             # ret
00000000 00001145 0000 80000b10  x8:80002ca5 x8=80002ca6                 # addi    s0, s0, 1
00000000 00001146 0000 80000b14  x26:80002ca7 x26=80002ca8               # addi    s10, s10, 1
00000000 00001147 0000 80000b18  x9:00000001 x25=00000001                # mv      s9, s1
00000000 00001148 0000 80000b1c  x8:80002ca6 RA:80002ca6 x10=00000072    # lbu     a0, 0(s0)
00000000 00001149 0000 80000b20  x10:00000072                            # bnez    a0, pc - 40
00000000 00001150 0000 80000af8  x10:00000072 x22:00000025               # beq     a0, s6, pc + 48
00000000 00001151 0000 80000afc  x25:00000001 x9=00000002                # addi    s1, s9, 1
00000000 00001152 0000 80000b00  x20:0011ff17 x11=0011ff17               # mv      a1, s4
00000000 00001153 0000 80000b04  x25:00000001 x12=00000001               # mv      a2, s9
00000000 00001154 0000 80000b08  x21:ffffffff x13=ffffffff               # mv      a3, s5
00000000 00001155 0000 80000b0c  x18:80001658 x1=80000b10                # jalr    s2
00000000 00001156 0000 80001658  x10:00000072                            # beqz    a0, pc + 12
00000000 00001157 0000 8000165c  x11=f00b8000                            # lui     a1, 0xf00b8
00000000 00001158 0000 80001660  x11:f00b8000 x10:00000072 WA:f00b8000   # sw      a0, 0(a1)
00000000 00001159 0000 80001664  x1:80000b10                             # ret
00000000 00001160 0000 80000b10  x8:80002ca6 x8=80002ca7                 # addi    s0, s0, 1
00000000 00001161 0000 80000b14  x26:80002ca8 x26=80002ca9               # addi    s10, s10, 1
00000000 00001162 0000 80000b18  x9:00000002 x25=00000002                # mv      s9, s1
00000000 00001163 0000 80000b1c  x8:80002ca7 RA:80002ca7 x10=00000072    # lbu     a0, 0(s0)
00000000 00001164 0000 80000b20  x10:00000072                            # bnez    a0, pc - 40
00000000 00001165 0000 80000af8  x10:00000072 x22:00000025               # beq     a0, s6, pc + 48
00000000 00001166 0000 80000afc  x25:00000002 x9=00000003                # addi    s1, s9, 1
00000000 00001167 0000 80000b00  x20:0011ff17 x11=0011ff17               # mv      a1, s4
00000000 00001168 0000 80000b04  x25:00000002 x12=00000002               # mv      a2, s9
00000000 00001169 0000 80000b08  x21:ffffffff x13=ffffffff               # mv      a3, s5
00000000 00001170 0000 80000b0c  x18:80001658 x1=80000b10                # jalr    s2
00000000 00001171 0000 80001658  x10:00000072                            # beqz    a0, pc + 12
00000000 00001172 0000 8000165c  x11=f00b8000                            # lui     a1, 0xf00b8
00000000 00001173 0000 80001660  x11:f00b8000 x10:00000072 WA:f00b8000   # sw      a0, 0(a1)
00000000 00001174 0000 80001664  x1:80000b10                             # ret
00000000 00001175 0000 80000b10  x8:80002ca7 x8=80002ca8                 # addi    s0, s0, 1
00000000 00001176 0000 80000b14  x26:80002ca9 x26=80002caa               # addi    s10, s10, 1
00000000 00001177 0000 80000b18  x9:00000003 x25=00000003                # mv      s9, s1
00000000 00001178 0000 80000b1c  x8:80002ca8 RA:80002ca8 x10=0000006f    # lbu     a0, 0(s0)
00000000 00001179 0000 80000b20  x10:0000006f                            # bnez    a0, pc - 40
00000000 00001180 0000 80000af8  x10:0000006f x22:00000025               # beq     a0, s6, pc + 48
00000000 00001181 0000 80000afc  x25:00000003 x9=00000004                # addi    s1, s9, 1
00000000 00001182 0000 80000b00  x20:0011ff17 x11=0011ff17               # mv      a1, s4
00000000 00001183 0000 80000b04  x25:00000003 x12=00000003               # mv      a2, s9
00000000 00001184 0000 80000b08  x21:ffffffff x13=ffffffff               # mv      a3, s5
00000000 00001185 0000 80000b0c  x18:80001658 x1=80000b10                # jalr    s2
00000000 00001186 0000 80001658  x10:0000006f                            # beqz    a0, pc + 12
00000000 00001187 0000 8000165c  x11=f00b8000                            # lui     a1, 0xf00b8
00000000 00001188 0000 80001660  x11:f00b8000 x10:0000006f WA:f00b8000   # sw      a0, 0(a1)
00000000 00001189 0000 80001664  x1:80000b10                             # ret
00000000 00001190 0000 80000b10  x8:80002ca8 x8=80002ca9                 # addi    s0, s0, 1
00000000 00001191 0000 80000b14  x26:80002caa x26=80002cab               # addi    s10, s10, 1
00000000 00001192 0000 80000b18  x9:00000004 x25=00000004                # mv      s9, s1
00000000 00001193 0000 80000b1c  x8:80002ca9 RA:80002ca9 x10=00000072    # lbu     a0, 0(s0)
00000000 00001194 0000 80000b20  x10:00000072                            # bnez    a0, pc - 40
00000000 00001195 0000 80000af8  x10:00000072 x22:00000025               # beq     a0, s6, pc + 48
00000000 00001196 0000 80000afc  x25:00000004 x9=00000005                # addi    s1, s9, 1
00000000 00001197 0000 80000b00  x20:0011ff17 x11=0011ff17               # mv      a1, s4
00000000 00001198 0000 80000b04  x25:00000004 x12=00000004               # mv      a2, s9
00000000 00001199 0000 80000b08  x21:ffffffff x13=ffffffff               # mv      a3, s5
00000000 00001200 0000 80000b0c  x18:80001658 x1=80000b10                # jalr    s2
00000000 00001201 0000 80001658  x10:00000072                            # beqz    a0, pc + 12
00000000 00001202 0000 8000165c  x11=f00b8000                            # lui     a1, 0xf00b8
00000000 00001203 0000 80001660  x11:f00b8000 x10:00000072 WA:f00b8000   # sw      a0, 0(a1)
00000000 00001204 0000 80001664  x1:80000b10                             # ret
00000000 00001205 0000 80000b10  x8:80002ca9 x8=80002caa                 # addi    s0, s0, 1
00000000 00001206 0000 80000b14  x26:80002cab x26=80002cac               # addi    s10, s10, 1
00000000 00001207 0000 80000b18  x9:00000005 x25=00000005                # mv      s9, s1
00000000 00001208 0000 80000b1c  x8:80002caa RA:80002caa x10=00000020    # lbu     a0, 0(s0)
00000000 00001209 0000 80000b20  x10:00000020                            # bnez    a0, pc - 40
00000000 00001210 0000 80000af8  x10:00000020 x22:00000025               # beq     a0, s6, pc + 48
00000000 00001211 0000 80000afc  x25:00000005 x9=00000006                # addi    s1, s9, 1
00000000 00001212 0000 80000b00  x20:0011ff17 x11=0011ff17               # mv      a1, s4
00000000 00001213 0000 80000b04  x25:00000005 x12=00000005               # mv      a2, s9
00000000 00001214 0000 80000b08  x21:ffffffff x13=ffffffff               # mv      a3, s5
00000000 00001215 0000 80000b0c  x18:80001658 x1=80000b10                # jalr    s2
00000000 00001216 0000 80001658  x10:00000020                            # beqz    a0, pc + 12
00000000 00001217 0000 8000165c  x11=f00b8000                            # lui     a1, 0xf00b8
00000000 00001218 0000 80001660  x11:f00b8000 x10:00000020 WA:f00b8000   # sw      a0, 0(a1)
00000000 00001219 0000 80001664  x1:80000b10                             # ret
00000000 00001220 0000 80000b10  x8:80002caa x8=80002cab                 # addi    s0, s0, 1
00000000 00001221 0000 80000b14  x26:80002cac x26=80002cad               # addi    s10, s10, 1
00000000 00001222 0000 80000b18  x9:00000006 x25=00000006                # mv      s9, s1
00000000 00001223 0000 80000b1c  x8:80002cab RA:80002cab x10=0000003d    # lbu     a0, 0(s0)
00000000 00001224 0000 80000b20  x10:0000003d                            # bnez    a0, pc - 40
00000000 00001225 0000 80000af8  x10:0000003d x22:00000025               # beq     a0, s6, pc + 48
00000000 00001226 0000 80000afc  x25:00000006 x9=00000007                # addi    s1, s9, 1
00000000 00001227 0000 80000b00  x20:0011ff17 x11=0011ff17               # mv      a1, s4
00000000 00001228 0000 80000b04  x25:00000006 x12=00000006               # mv      a2, s9
00000000 00001229 0000 80000b08  x21:ffffffff x13=ffffffff               # mv      a3, s5
00000000 00001230 0000 80000b0c  x18:80001658 x1=80000b10                # jalr    s2
00000000 00001231 0000 80001658  x10:0000003d                            # beqz    a0, pc + 12
00000000 00001232 0000 8000165c  x11=f00b8000                            # lui     a1, 0xf00b8
00000000 00001233 0000 80001660  x11:f00b8000 x10:0000003d WA:f00b8000   # sw      a0, 0(a1)
00000000 00001234 0000 80001664  x1:80000b10                             # ret
00000000 00001235 0000 80000b10  x8:80002cab x8=80002cac                 # addi    s0, s0, 1
00000000 00001236 0000 80000b14  x26:80002cad x26=80002cae               # addi    s10, s10, 1
00000000 00001237 0000 80000b18  x9:00000007 x25=00000007                # mv      s9, s1
00000000 00001238 0000 80000b1c  x8:80002cac RA:80002cac x10=00000020    # lbu     a0, 0(s0)
00000000 00001239 0000 80000b20  x10:00000020                            # bnez    a0, pc - 40
00000000 00001240 0000 80000af8  x10:00000020 x22:00000025               # beq     a0, s6, pc + 48
00000000 00001241 0000 80000afc  x25:00000007 x9=00000008                # addi    s1, s9, 1
00000000 00001242 0000 80000b00  x20:0011ff17 x11=0011ff17               # mv      a1, s4
00000000 00001243 0000 80000b04  x25:00000007 x12=00000007               # mv      a2, s9
00000000 00001244 0000 80000b08  x21:ffffffff x13=ffffffff               # mv      a3, s5
00000000 00001245 0000 80000b0c  x18:80001658 x1=80000b10                # jalr    s2
00000000 00001246 0000 80001658  x10:00000020                            # beqz    a0, pc + 12
00000000 00001247 0000 8000165c  x11=f00b8000                            # lui     a1, 0xf00b8
00000000 00001248 0000 80001660  x11:f00b8000 x10:00000020 WA:f00b8000   # sw      a0, 0(a1)
00000000 00001249 0000 80001664  x1:80000b10                             # ret
00000000 00001250 0000 80000b10  x8:80002cac x8=80002cad                 # addi    s0, s0, 1
00000000 00001251 0000 80000b14  x26:80002cae x26=80002caf               # addi    s10, s10, 1
00000000 00001252 0000 80000b18  x9:00000008 x25=00000008                # mv      s9, s1
00000000 00001253 0000 80000b1c  x8:80002cad RA:80002cad x10=00000025    # lbu     a0, 0(s0)
00000000 00001254 0000 80000b20  x10:00000025                            # bnez    a0, pc - 40
00000000 00001255 0000 80000af8  x10:00000025 x22:00000025               # beq     a0, s6, pc + 48
00000000 00001256 0000 80000b28  x8=00000000                             # li      s0, 0
00000000 00001257 0000 80000b2c                                          # j       pc + 0x10
00000000 00001258 0000 80000b3c  x26:80002caf RA:80002cae x10=00000066   # lbu     a0, -1(s10)
00000000 00001259 0000 80000b40  x10:00000066 x11=00000046               # addi    a1, a0, -32
00000000 00001260 0000 80000b44  x27:00000010 x11:00000046               # bltu    s11, a1, pc + 56
00000000 00001261 0000 80000b7c  x10:00000066 x11=00000036               # addi    a1, a0, -48
00000000 00001262 0000 80000b80  x11:00000036 x12=00000036               # andi    a2, a1, 255
00000000 00001263 0000 80000b84  x26:80002caf x11=80002cae               # addi    a1, s10, -1
00000000 00001264 0000 80000b88  x13=00000009                            # li      a3, 9
00000000 00001265 0000 80000b8c  x13:00000009 x12:00000036               # bltu    a3, a2, pc + 124
00000000 00001266 0000 80000c08  x12=0000002a                            # li      a2, 42
00000000 00001267 0000 80000c0c  x10:00000066 x12:0000002a               # bne     a0, a2, pc + 80
00000000 00001268 0000 80000c5c  x22=00000000                            # li      s6, 0
00000000 00001269 0000 80000c60  x11:80002cae x26=80002cae               # mv      s10, a1
00000000 00001270 0000 80000c64  x10:00000066 x23:0000002e               # beq     a0, s7, pc - 164
00000000 00001271 0000 80000c68  x23=00000000                            # li      s7, 0
00000000 00001272 0000 80000c6c                                          # j       pc + 0xc
00000000 00001273 0000 80000c78  x10:00000066 x11=fffffffe               # addi    a1, a0, -104
00000000 00001274 0000 80000c7c  x11:fffffffe x12=7fffffff               # srli    a2, a1, 1
00000000 00001275 0000 80000c80  x11:fffffffe x11=00000000               # slli    a1, a1, 31
00000000 00001276 0000 80000c84  x11:00000000 x12:7fffffff x11=7fffffff  # or      a1, a1, a2
00000000 00001277 0000 80000c88  x12=00000009                            # li      a2, 9
00000000 00001278 0000 80000c8c  x12:00000009 x11:7fffffff               # bltu    a2, a1, pc + 100
00000000 00001279 0000 80000cf0  x10:00000066 x11=00000041               # addi    a1, a0, -37
00000000 00001280 0000 80000cf4  x12=00000053                            # li      a2, 83
00000000 00001281 0000 80000cf8  x12:00000053 x11:00000041               # bltu    a2, a1, pc + 264
00000000 00001282 0000 80000cfc  x11:00000041 x11=00000104               # slli    a1, a1, 2
00000000 00001283 0000 80000d00  x12=80002d00                            # auipc   a2, 0x2
00000000 00001284 0000 80000d04  x12:80002d00 x12=80002d24               # addi    a2, a2, 36
00000000 00001285 0000 80000d08  x11:00000104 x12:80002d24 x11=80002e28  # add     a1, a1, a2
00000000 00001286 0000 80000d0c  x11:80002e28 RA:80002e28 x12=80000d48   # lw      a2, 0(a1)
00000000 00001287 0000 80000d10  x11=00000008                            # li      a1, 8
00000000 00001288 0000 80000d14  x24=00000010                            # li      s8, 16
00000000 00001289 0000 80000d18  x12:80000d48                            # jr      a2
00000000 00001290 0000 80000d48  x11=00000046                            # li      a1, 70
00000000 00001291 0000 80000d4c  x10:00000066 x11:00000046               # bne     a0, a1, pc + 8
00000000 00001292 0000 80000d54  x19:0011ff24 x10=0011ff2b               # addi    a0, s3, 7
00000000 00001293 0000 80000d58  x10:0011ff2b x10=0011ff28               # andi    a0, a0, -8
00000000 00001294 0000 80000d5c  x10:0011ff28 RA:0011ff28 RA:0011ff2c f10=     4599.911772  # fld     fa0, 0(a0)
00000000 00001295 0000 80000d60  x10:0011ff28 x19=0011ff30               # addi    s3, a0, 8
00000000 00001296 0000 80000d64  x18:80001658 x10=80001658               # mv      a0, s2
00000000 00001297 0000 80000d68  x20:0011ff17 x11=0011ff17               # mv      a1, s4
00000000 00001298 0000 80000d6c  x25:00000008 x12=00000008               # mv      a2, s9
00000000 00001299 0000 80000d70  x21:ffffffff x13=ffffffff               # mv      a3, s5
00000000 00001300 0000 80000d74  x23:00000000 x14=00000000               # mv      a4, s7
00000000 00001301 0000 80000d78  x22:00000000 x15=00000000               # mv      a5, s6
00000000 00001302 0000 80000d7c  x8:00000000 x16=00000000                # mv      a6, s0
00000000 00001303 0000 80000d80  x1=80001d80                             # auipc   ra, 0x1
00000000 00001304 0000 80000d84  x1:80001d80 x1=80000d88                 # jalr    ra, ra, -1812
00000000 00001305 0000 8000166c  x2:0011fea0 x2=0011fe30                 # addi    sp, sp, -112
00000000 00001306 0000 80001670  x2:0011fe30 x1:80000d88 WA:0011fe9c     # sw      ra, 108(sp)
00000000 00001307 0000 80001674  x2:0011fe30 x8:00000000 WA:0011fe98     # sw      s0, 104(sp)
00000000 00001308 0000 80001678  x2:0011fe30 x9:00000008 WA:0011fe94     # sw      s1, 100(sp)
00000000 00001309 0000 8000167c  x2:0011fe30 x18:80001658 WA:0011fe90    # sw      s2, 96(sp)
00000000 00001310 0000 80001680  x2:0011fe30 x19:0011ff30 WA:0011fe8c    # sw      s3, 92(sp)
00000000 00001311 0000 80001684  x2:0011fe30 x20:0011ff17 WA:0011fe88    # sw      s4, 88(sp)
00000000 00001312 0000 80001688  x2:0011fe30 x21:ffffffff WA:0011fe84    # sw      s5, 84(sp)
00000000 00001313 0000 8000168c  x2:0011fe30 x22:00000000 WA:0011fe80    # sw      s6, 80(sp)
00000000 00001314 0000 80001690  x2:0011fe30 x23:00000000 WA:0011fe7c    # sw      s7, 76(sp)
00000000 00001315 0000 80001694  x2:0011fe30 x24:00000010 WA:0011fe78    # sw      s8, 72(sp)
00000000 00001316 0000 80001698  x2:0011fe30 x25:00000008 WA:0011fe74    # sw      s9, 68(sp)
00000000 00001317 0000 8000169c  x2:0011fe30 x26:80002cae WA:0011fe70    # sw      s10, 64(sp)
00000000 00001318 0000 800016a0  x2:0011fe30 f08:     4599.911772 WA:0011fe68 WA:0011fe6c  # fsd     fs0, 56(sp)
00000000 00001319 0000 800016a4  x2:0011fe30 f09:        0.000000 WA:0011fe60 WA:0011fe64  # fsd     fs1, 48(sp)
00000000 00001320 0000 800016a8  x2:0011fe30 f18:        0.000000 WA:0011fe58 WA:0011fe5c  # fsd     fs2, 40(sp)
00000000 00001321 0000 800016ac  x9=800036ac                             # auipc   s1, 0x2
00000000 00001322 0000 800016b0  x9:800036ac x9=80002f00                 # addi    s1, s1, -1964
00000000 00001323 0000 800016b4  x9:80002f00 RA:80002f00 RA:80002f04 f00=-179769313486231570814527423731704356798070567525844996598917476803157260780028538760589558632766878171540458953514382464234321326889464182768467546703537516986049910576551282076245490090389328944075868508455133942304583236903222948165808559332123348274797826204144723168738177180919299881250404026184124858368.000000  # fld     ft0, 0(s1)
00000000 00001324 0000 800016b8  f00:-179769313486231570814527423731704356798070567525844996598917476803157260780028538760589558632766878171540458953514382464234321326889464182768467546703537516986049910576551282076245490090389328944075868508455133942304583236903222948165808559332123348274797826204144723168738177180919299881250404026184124858368.000000 f10:     4599.911772 x9=00000001  # fle.d   s1, ft0, fa0
00000000 00001325 0000 800016bc  x16:00000000 x21=00000000               # mv      s5, a6
00000000 00001326 0000 800016c0  x15:00000000 x18=00000000               # mv      s2, a5
00000000 00001327 0000 800016c4  x13:ffffffff x19=ffffffff               # mv      s3, a3
00000000 00001328 0000 800016c8  x12:00000008 x20=00000008               # mv      s4, a2
00000000 00001329 0000 800016cc  x11:0011ff17 x22=0011ff17               # mv      s6, a1
00000000 00001330 0000 800016d0  x10:80001658 x23=80001658               # mv      s7, a0
00000000 00001331 0000 800016d4  x9:00000001                             # bnez    s1, pc + 240
00000000 00001332 0000 800017c4  f10:     4599.911772 f10:     4599.911772 f08=     4599.911772  # fsgnj.d fs0, fa0, fa0
00000000 00001333 0000 800017c8  x10=800027c8                            # auipc   a0, 0x1
00000000 00001334 0000 800017cc  x10:800027c8 x10=80002f08               # addi    a0, a0, 1856
00000000 00001335 0000 800017d0  x10:80002f08 RA:80002f08 RA:80002f0c f00=179769313486231570814527423731704356798070567525844996598917476803157260780028538760589558632766878171540458953514382464234321326889464182768467546703537516986049910576551282076245490090389328944075868508455133942304583236903222948165808559332123348274797826204144723168738177180919299881250404026184124858368.000000  # fld     ft0, 0(a0)
00000000 00001336 0000 800017d4  f10:     4599.911772 f00:179769313486231570814527423731704356798070567525844996598917476803157260780028538760589558632766878171540458953514382464234321326889464182768467546703537516986049910576551282076245490090389328944075868508455133942304583236903222948165808559332123348274797826204144723168738177180919299881250404026184124858368.000000 x10=00000001  # fle.d   a0, fa0, ft0
00000000 00001337 0000 800017d8  x10:00000001                            # bnez    a0, pc + 28
00000000 00001338 0000 800017f4  x10=800027f4                            # auipc   a0, 0x1
00000000 00001339 0000 800017f8  x10:800027f4 x10=80002f10               # addi    a0, a0, 1820
00000000 00001340 0000 800017fc  x10:80002f10 RA:80002f10 RA:80002f14 f00=1000000000.000000  # fld     ft0, 0(a0)
00000000 00001341 0000 80001800  x10=80002800                            # auipc   a0, 0x1
00000000 00001342 0000 80001804  x10:80002800 x10=80002f18               # addi    a0, a0, 1816
00000000 00001343 0000 80001808  x10:80002f18 RA:80002f18 RA:80002f1c f01=-1000000000.000000  # fld     ft1, 0(a0)
00000000 00001344 0000 8000180c  f08:     4599.911772 f00:1000000000.000000 x10=00000001  # fle.d   a0, fs0, ft0
00000000 00001345 0000 80001810  f01:-1000000000.000000 f08:     4599.911772 x11=00000001  # fle.d   a1, ft1, fs0
00000000 00001346 0000 80001814  x10:00000001 x11:00000001 x10=00000001  # and     a0, a0, a1
00000000 00001347 0000 80001818  x10:00000001                            # bnez    a0, pc + 252
00000000 00001348 0000 80001914  x21:00000000 x10=00000000               # andi    a0, s5, 1024
00000000 00001349 0000 80001918  x24=00000006                            # li      s8, 6
00000000 00001350 0000 8000191c  x10:00000000                            # beqz    a0, pc + 8
00000000 00001351 0000 80001924  x10=0000000a                            # li      a0, 10
00000000 00001352 0000 80001928  f08:     4599.911772 f08:     4599.911772 f18=     4599.911772  # fsgnjx.d fs2, fs0, fs0
00000000 00001353 0000 8000192c  x24:00000006 x10:0000000a               # bltu    s8, a0, pc + 56
00000000 00001354 0000 80001964  x8=00000000                             # li      s0, 0
00000000 00001355 0000 80001968  x24:00000006 x10=00000030               # slli    a0, s8, 3
00000000 00001356 0000 8000196c  x11=8000296c                            # auipc   a1, 0x1
00000000 00001357 0000 80001970  x11:8000296c x11=80002e78               # addi    a1, a1, 1292
00000000 00001358 0000 80001974  x10:00000030 x11:80002e78 x10=80002ea8  # add     a0, a0, a1
00000000 00001359 0000 80001978  x10:80002ea8 RA:80002ea8 RA:80002eac f01=  1000000.000000  # fld     ft1, 0(a0)
00000000 00001360 0000 8000197c  f18:     4599.911772 x9=000011f7        # fcvt.w.d s1, fs2
00000000 00001361 0000 80001980  x9:000011f7 f00=     4599.000000        # fcvt.d.w ft0, s1
00000000 00001362 0000 80001984  f18:     4599.911772 f00:     4599.000000 f00=        0.911772  # fsub.d  ft0, fs2, ft0
00000000 00001363 0000 80001988  f01:  1000000.000000 f00:        0.911772 f02=   911771.999996  # fmul.d  ft2, ft1, ft0
00000000 00001364 0000 8000198c  x10=8000298c                            # auipc   a0, 0x1
00000000 00001365 0000 80001990  x10:8000298c x10=80002f20               # addi    a0, a0, 1428
00000000 00001366 0000 80001994  x10:80002f20 RA:80002f20 RA:80002f24 f00=        0.500000  # fld     ft0, 0(a0)
00000000 00001367 0000 80001998  f02:   911771.999996 x10=000de99b       # fcvt.wu.d a0, ft2
00000000 00001368 0000 8000199c  x10:000de99b f03=   911771.000000       # fcvt.d.wu ft3, a0
00000000 00001369 0000 800019a0  f02:   911771.999996 f03:   911771.000000 f02=        0.999996  # fsub.d  ft2, ft2, ft3
00000000 00001370 0000 800019a4  f02:        0.999996 f00:        0.500000 x11=00000000  # fle.d   a1, ft2, ft0
00000000 00001371 0000 800019a8  x11:00000000                            # bnez    a1, pc + 32
00000000 00001372 0000 800019ac  x10:000de99b x10=000de99c               # addi    a0, a0, 1
00000000 00001373 0000 800019b0  x10:000de99c f02=   911772.000000       # fcvt.d.wu ft2, a0
00000000 00001374 0000 800019b4  f02:   911772.000000 f01:  1000000.000000 x11=00000001  # flt.d   a1, ft2, ft1
00000000 00001375 0000 800019b8  x11:00000001                            # bnez    a1, pc + 40
00000000 00001376 0000 800019e0  f09=        0.000000                    # fcvt.d.w fs1, zero
00000000 00001377 0000 800019e4  x24:00000006                            # beqz    s8, pc + 216
00000000 00001378 0000 800019e8  x12=00000000                            # li      a2, 0
00000000 00001379 0000 800019ec  x2:0011fe30 x11=0011fe38                # addi    a1, sp, 8
00000000 00001380 0000 800019f0  x11:0011fe38 x8:00000000 x6=0011fe38    # add     t1, a1, s0
00000000 00001381 0000 800019f4  x5=00000020                             # li      t0, 32
00000000 00001382 0000 800019f8  x5:00000020 x8:00000000 x14=00000020    # sub     a4, t0, s0
00000000 00001383 0000 800019fc  x11=ccccd000                            # lui     a1, 0xccccd
00000000 00001384 0000 80001a00  x11:ccccd000 x7=cccccccd                # addi    t2, a1, -819
00000000 00001385 0000 80001a04  x16=0000000a                            # li      a6, 10
00000000 00001386 0000 80001a08  x17=00000009                            # li      a7, 9
00000000 00001387 0000 80001a0c  x14:00000020 x12:00000000               # beq     a4, a2, pc + 200
00000000 00001388 0000 80001a10  x10:000de99c x11=000de99c               # mv      a1, a0
00000000 00001389 0000 80001a14  x10:000de99c x7:cccccccd x10=000b2149   # mulhu   a0, a0, t2
00000000 00001390 0000 80001a18  x10:000b2149 x10=00016429               # srli    a0, a0, 3
00000000 00001391 0000 80001a1c  x10:00016429 x16:0000000a x13=000de99a  # mul     a3, a0, a6
00000000 00001392 0000 80001a20  x11:000de99c x13:000de99a x13=00000002  # sub     a3, a1, a3
00000000 00001393 0000 80001a24  x13:00000002 x13=00000032               # ori     a3, a3, 48
00000000 00001394 0000 80001a28  x6:0011fe38 x12:00000000 x15=0011fe38   # add     a5, t1, a2
00000000 00001395 0000 80001a2c  x15:0011fe38 x13:00000032 WA:0011fe38   # sb      a3, 0(a5)
00000000 00001396 0000 80001a30  x12:00000000 x12=00000001               # addi    a2, a2, 1
00000000 00001397 0000 80001a34  x17:00000009 x11:000de99c               # bltu    a7, a1, pc - 40
00000000 00001398 0000 80001a0c  x14:00000020 x12:00000001               # beq     a4, a2, pc + 200
00000000 00001399 0000 80001a10  x10:00016429 x11=00016429               # mv      a1, a0
00000000 00001400 0000 80001a14  x10:00016429 x7:cccccccd x10=00011ced   # mulhu   a0, a0, t2
00000000 00001401 0000 80001a18  x10:00011ced x10=0000239d               # srli    a0, a0, 3
00000000 00001402 0000 80001a1c  x10:0000239d x16:0000000a x13=00016422  # mul     a3, a0, a6
00000000 00001403 0000 80001a20  x11:00016429 x13:00016422 x13=00000007  # sub     a3, a1, a3
00000000 00001404 0000 80001a24  x13:00000007 x13=00000037               # ori     a3, a3, 48
00000000 00001405 0000 80001a28  x6:0011fe38 x12:00000001 x15=0011fe39   # add     a5, t1, a2
00000000 00001406 0000 80001a2c  x15:0011fe39 x13:00000037 WA:0011fe39   # sb      a3, 0(a5)
00000000 00001407 0000 80001a30  x12:00000001 x12=00000002               # addi    a2, a2, 1
00000000 00001408 0000 80001a34  x17:00000009 x11:00016429               # bltu    a7, a1, pc - 40
00000000 00001409 0000 80001a0c  x14:00000020 x12:00000002               # beq     a4, a2, pc + 200
00000000 00001410 0000 80001a10  x10:0000239d x11=0000239d               # mv      a1, a0
00000000 00001411 0000 80001a14  x10:0000239d x7:cccccccd x10=00001c7d   # mulhu   a0, a0, t2
00000000 00001412 0000 80001a18  x10:00001c7d x10=0000038f               # srli    a0, a0, 3
00000000 00001413 0000 80001a1c  x10:0000038f x16:0000000a x13=00002396  # mul     a3, a0, a6
00000000 00001414 0000 80001a20  x11:0000239d x13:00002396 x13=00000007  # sub     a3, a1, a3
00000000 00001415 0000 80001a24  x13:00000007 x13=00000037               # ori     a3, a3, 48
00000000 00001416 0000 80001a28  x6:0011fe38 x12:00000002 x15=0011fe3a   # add     a5, t1, a2
00000000 00001417 0000 80001a2c  x15:0011fe3a x13:00000037 WA:0011fe3a   # sb      a3, 0(a5)
00000000 00001418 0000 80001a30  x12:00000002 x12=00000003               # addi    a2, a2, 1
00000000 00001419 0000 80001a34  x17:00000009 x11:0000239d               # bltu    a7, a1, pc - 40
00000000 00001420 0000 80001a0c  x14:00000020 x12:00000003               # beq     a4, a2, pc + 200
00000000 00001421 0000 80001a10  x10:0000038f x11=0000038f               # mv      a1, a0
00000000 00001422 0000 80001a14  x10:0000038f x7:cccccccd x10=000002d8   # mulhu   a0, a0, t2
00000000 00001423 0000 80001a18  x10:000002d8 x10=0000005b               # srli    a0, a0, 3
00000000 00001424 0000 80001a1c  x10:0000005b x16:0000000a x13=0000038e  # mul     a3, a0, a6
00000000 00001425 0000 80001a20  x11:0000038f x13:0000038e x13=00000001  # sub     a3, a1, a3
00000000 00001426 0000 80001a24  x13:00000001 x13=00000031               # ori     a3, a3, 48
00000000 00001427 0000 80001a28  x6:0011fe38 x12:00000003 x15=0011fe3b   # add     a5, t1, a2
00000000 00001428 0000 80001a2c  x15:0011fe3b x13:00000031 WA:0011fe3b   # sb      a3, 0(a5)
00000000 00001429 0000 80001a30  x12:00000003 x12=00000004               # addi    a2, a2, 1
00000000 00001430 0000 80001a34  x17:00000009 x11:0000038f               # bltu    a7, a1, pc - 40
00000000 00001431 0000 80001a0c  x14:00000020 x12:00000004               # beq     a4, a2, pc + 200
00000000 00001432 0000 80001a10  x10:0000005b x11=0000005b               # mv      a1, a0
00000000 00001433 0000 80001a14  x10:0000005b x7:cccccccd x10=00000048   # mulhu   a0, a0, t2
00000000 00001434 0000 80001a18  x10:00000048 x10=00000009               # srli    a0, a0, 3
00000000 00001435 0000 80001a1c  x10:00000009 x16:0000000a x13=0000005a  # mul     a3, a0, a6
00000000 00001436 0000 80001a20  x11:0000005b x13:0000005a x13=00000001  # sub     a3, a1, a3
00000000 00001437 0000 80001a24  x13:00000001 x13=00000031               # ori     a3, a3, 48
00000000 00001438 0000 80001a28  x6:0011fe38 x12:00000004 x15=0011fe3c   # add     a5, t1, a2
00000000 00001439 0000 80001a2c  x15:0011fe3c x13:00000031 WA:0011fe3c   # sb      a3, 0(a5)
00000000 00001440 0000 80001a30  x12:00000004 x12=00000005               # addi    a2, a2, 1
00000000 00001441 0000 80001a34  x17:00000009 x11:0000005b               # bltu    a7, a1, pc - 40
00000000 00001442 0000 80001a0c  x14:00000020 x12:00000005               # beq     a4, a2, pc + 200
00000000 00001443 0000 80001a10  x10:00000009 x11=00000009               # mv      a1, a0
00000000 00001444 0000 80001a14  x10:00000009 x7:cccccccd x10=00000007   # mulhu   a0, a0, t2
00000000 00001445 0000 80001a18  x10:00000007 x10=00000000               # srli    a0, a0, 3
00000000 00001446 0000 80001a1c  x10:00000000 x16:0000000a x13=00000000  # mul     a3, a0, a6
00000000 00001447 0000 80001a20  x11:00000009 x13:00000000 x13=00000009  # sub     a3, a1, a3
00000000 00001448 0000 80001a24  x13:00000009 x13=00000039               # ori     a3, a3, 48
00000000 00001449 0000 80001a28  x6:0011fe38 x12:00000005 x15=0011fe3d   # add     a5, t1, a2
00000000 00001450 0000 80001a2c  x15:0011fe3d x13:00000039 WA:0011fe3d   # sb      a3, 0(a5)
00000000 00001451 0000 80001a30  x12:00000005 x12=00000006               # addi    a2, a2, 1
00000000 00001452 0000 80001a34  x17:00000009 x11:00000009               # bltu    a7, a1, pc - 40
00000000 00001453 0000 80001a38  x8:00000000 x12:00000006 x10=00000006   # add     a0, s0, a2
00000000 00001454 0000 80001a3c  x10:00000006 x11=00000005               # addi    a1, a0, -1
00000000 00001455 0000 80001a40  x13=0000001e                            # li      a3, 30
00000000 00001456 0000 80001a44  x13:0000001e x11:00000005 x13=00000000  # sltu    a3, a3, a1
00000000 00001457 0000 80001a48  x24:00000006 x12:00000006 x14=00000000  # xor     a4, s8, a2
00000000 00001458 0000 80001a4c  x14:00000000 x14=00000001               # seqz    a4, a4
00000000 00001459 0000 80001a50  x13:00000000 x14:00000001 x13=00000001  # or      a3, a3, a4
00000000 00001460 0000 80001a54  x13:00000001                            # bnez    a3, pc + 136
00000000 00001461 0000 80001adc  x11:00000005 x11=00000001               # sltiu   a1, a1, 31
00000000 00001462 0000 80001ae0  x11:00000001                            # beqz    a1, pc + 28
00000000 00001463 0000 80001ae4  x10:00000006 x8=00000007                # addi    s0, a0, 1
00000000 00001464 0000 80001ae8  x2:0011fe30 x11=0011fe38                # addi    a1, sp, 8
00000000 00001465 0000 80001aec  x11:0011fe38 x10:00000006 x10=0011fe3e  # add     a0, a1, a0
00000000 00001466 0000 80001af0  x11=0000002e                            # li      a1, 46
00000000 00001467 0000 80001af4  x10:0011fe3e x11:0000002e WA:0011fe3e   # sb      a1, 0(a0)
00000000 00001468 0000 80001af8                                          # j       pc + 0x8
00000000 00001469 0000 80001b00  x10=00000020                            # li      a0, 32
00000000 00001470 0000 80001b04  x8:00000007 x5=00000007                 # mv      t0, s0
00000000 00001471 0000 80001b08  x10:00000020 x8:00000007                # bltu    a0, s0, pc + 8
00000000 00001472 0000 80001b0c  x5=00000020                             # li      t0, 32
00000000 00001473 0000 80001b10  f08:     4599.911772 f09:        0.000000 x25=00000000  # flt.d   s9, fs0, fs1
00000000 00001474 0000 80001b14  x10=66666000                            # lui     a0, 0x66666
00000000 00001475 0000 80001b18  x10:66666000 x11=66666667               # addi    a1, a0, 1639
00000000 00001476 0000 80001b1c  x16=0000000a                            # li      a6, 10
00000000 00001477 0000 80001b20  x2:0011fe30 x13=0011fe38                # addi    a3, sp, 8
00000000 00001478 0000 80001b24  x14=00000012                            # li      a4, 18
00000000 00001479 0000 80001b28  x5:00000020 x8:00000007                 # beq     t0, s0, pc + 64
00000000 00001480 0000 80001b2c  x9:000011f7 x11:66666667 x10=0000072f   # mulh    a0, s1, a1
00000000 00001481 0000 80001b30  x10:0000072f x15=00000000               # srli    a5, a0, 31
00000000 00001482 0000 80001b34  x10:0000072f x10=000001cb               # srai    a0, a0, 2
00000000 00001483 0000 80001b38  x10:000001cb x15:00000000 x10=000001cb  # add     a0, a0, a5
00000000 00001484 0000 80001b3c  x10:000001cb x16:0000000a x15=000011ee  # mul     a5, a0, a6
00000000 00001485 0000 80001b40  x9:000011f7 x15:000011ee x15=00000009   # sub     a5, s1, a5
00000000 00001486 0000 80001b44  x15:00000009 x15=00000039               # addi    a5, a5, 48
00000000 00001487 0000 80001b48  x8:00000007 x24=00000008                # addi    s8, s0, 1
00000000 00001488 0000 80001b4c  x13:0011fe38 x8:00000007 x8=0011fe3f    # add     s0, a3, s0
00000000 00001489 0000 80001b50  x9:000011f7 x12=00001200                # addi    a2, s1, 9
00000000 00001490 0000 80001b54  x8:0011fe3f x15:00000039 WA:0011fe3f    # sb      a5, 0(s0)
00000000 00001491 0000 80001b58  x24:00000008 x8=00000008                # mv      s0, s8
00000000 00001492 0000 80001b5c  x10:000001cb x9=000001cb                # mv      s1, a0
00000000 00001493 0000 80001b60  x14:00000012 x12:00001200               # bltu    a4, a2, pc - 56
00000000 00001494 0000 80001b28  x5:00000020 x8:00000008                 # beq     t0, s0, pc + 64
00000000 00001495 0000 80001b2c  x9:000001cb x11:66666667 x10=000000b7   # mulh    a0, s1, a1
00000000 00001496 0000 80001b30  x10:000000b7 x15=00000000               # srli    a5, a0, 31
00000000 00001497 0000 80001b34  x10:000000b7 x10=0000002d               # srai    a0, a0, 2
00000000 00001498 0000 80001b38  x10:0000002d x15:00000000 x10=0000002d  # add     a0, a0, a5
00000000 00001499 0000 80001b3c  x10:0000002d x16:0000000a x15=000001c2  # mul     a5, a0, a6
00000000 00001500 0000 80001b40  x9:000001cb x15:000001c2 x15=00000009   # sub     a5, s1, a5
00000000 00001501 0000 80001b44  x15:00000009 x15=00000039               # addi    a5, a5, 48
00000000 00001502 0000 80001b48  x8:00000008 x24=00000009                # addi    s8, s0, 1
00000000 00001503 0000 80001b4c  x13:0011fe38 x8:00000008 x8=0011fe40    # add     s0, a3, s0
00000000 00001504 0000 80001b50  x9:000001cb x12=000001d4                # addi    a2, s1, 9
00000000 00001505 0000 80001b54  x8:0011fe40 x15:00000039 WA:0011fe40    # sb      a5, 0(s0)
00000000 00001506 0000 80001b58  x24:00000009 x8=00000009                # mv      s0, s8
00000000 00001507 0000 80001b5c  x10:0000002d x9=0000002d                # mv      s1, a0
00000000 00001508 0000 80001b60  x14:00000012 x12:000001d4               # bltu    a4, a2, pc - 56
00000000 00001509 0000 80001b28  x5:00000020 x8:00000009                 # beq     t0, s0, pc + 64
00000000 00001510 0000 80001b2c  x9:0000002d x11:66666667 x10=00000012   # mulh    a0, s1, a1
00000000 00001511 0000 80001b30  x10:00000012 x15=00000000               # srli    a5, a0, 31
00000000 00001512 0000 80001b34  x10:00000012 x10=00000004               # srai    a0, a0, 2
00000000 00001513 0000 80001b38  x10:00000004 x15:00000000 x10=00000004  # add     a0, a0, a5
00000000 00001514 0000 80001b3c  x10:00000004 x16:0000000a x15=00000028  # mul     a5, a0, a6
00000000 00001515 0000 80001b40  x9:0000002d x15:00000028 x15=00000005   # sub     a5, s1, a5
00000000 00001516 0000 80001b44  x15:00000005 x15=00000035               # addi    a5, a5, 48
00000000 00001517 0000 80001b48  x8:00000009 x24=0000000a                # addi    s8, s0, 1
00000000 00001518 0000 80001b4c  x13:0011fe38 x8:00000009 x8=0011fe41    # add     s0, a3, s0
00000000 00001519 0000 80001b50  x9:0000002d x12=00000036                # addi    a2, s1, 9
00000000 00001520 0000 80001b54  x8:0011fe41 x15:00000035 WA:0011fe41    # sb      a5, 0(s0)
00000000 00001521 0000 80001b58  x24:0000000a x8=0000000a                # mv      s0, s8
00000000 00001522 0000 80001b5c  x10:00000004 x9=00000004                # mv      s1, a0
00000000 00001523 0000 80001b60  x14:00000012 x12:00000036               # bltu    a4, a2, pc - 56
00000000 00001524 0000 80001b28  x5:00000020 x8:0000000a                 # beq     t0, s0, pc + 64
00000000 00001525 0000 80001b2c  x9:00000004 x11:66666667 x10=00000001   # mulh    a0, s1, a1
00000000 00001526 0000 80001b30  x10:00000001 x15=00000000               # srli    a5, a0, 31
00000000 00001527 0000 80001b34  x10:00000001 x10=00000000               # srai    a0, a0, 2
00000000 00001528 0000 80001b38  x10:00000000 x15:00000000 x10=00000000  # add     a0, a0, a5
00000000 00001529 0000 80001b3c  x10:00000000 x16:0000000a x15=00000000  # mul     a5, a0, a6
00000000 00001530 0000 80001b40  x9:00000004 x15:00000000 x15=00000004   # sub     a5, s1, a5
00000000 00001531 0000 80001b44  x15:00000004 x15=00000034               # addi    a5, a5, 48
00000000 00001532 0000 80001b48  x8:0000000a x24=0000000b                # addi    s8, s0, 1
00000000 00001533 0000 80001b4c  x13:0011fe38 x8:0000000a x8=0011fe42    # add     s0, a3, s0
00000000 00001534 0000 80001b50  x9:00000004 x12=0000000d                # addi    a2, s1, 9
00000000 00001535 0000 80001b54  x8:0011fe42 x15:00000034 WA:0011fe42    # sb      a5, 0(s0)
00000000 00001536 0000 80001b58  x24:0000000b x8=0000000b                # mv      s0, s8
00000000 00001537 0000 80001b5c  x10:00000000 x9=00000000                # mv      s1, a0
00000000 00001538 0000 80001b60  x14:00000012 x12:0000000d               # bltu    a4, a2, pc - 56
00000000 00001539 0000 80001b64                                          # j       pc + 0x8
00000000 00001540 0000 80001b6c  x21:00000000 x9=00000000                # andi    s1, s5, 3
00000000 00001541 0000 80001b70  x10=00000001                            # li      a0, 1
00000000 00001542 0000 80001b74  x9:00000000 x10:00000001                # bne     s1, a0, pc + 108
00000000 00001543 0000 80001be0  x10=0000001f                            # li      a0, 31
00000000 00001544 0000 80001be4  x10:0000001f x24:0000000b               # bltu    a0, s8, pc + 84
00000000 00001545 0000 80001be8  x25:00000000                            # beqz    s9, pc + 24
00000000 00001546 0000 80001c00  x21:00000000 x10=00000000               # andi    a0, s5, 4
00000000 00001547 0000 80001c04  x10:00000000                            # bnez    a0, pc + 32
00000000 00001548 0000 80001c08  x21:00000000 x10=00000000               # andi    a0, s5, 8
00000000 00001549 0000 80001c0c  x10:00000000                            # beqz    a0, pc + 44
00000000 00001550 0000 80001c38  x9:00000000 x10=00000000                # snez    a0, s1
00000000 00001551 0000 80001c3c  x24:0000000b x18:00000000 x11=00000000  # sltu    a1, s8, s2
00000000 00001552 0000 80001c40  x11:00000000 x11=00000001               # xori    a1, a1, 1
00000000 00001553 0000 80001c44  x10:00000000 x11:00000001 x10=00000001  # or      a0, a0, a1
00000000 00001554 0000 80001c48  x21:00000000 x21=00000000               # andi    s5, s5, 2
00000000 00001555 0000 80001c4c  x20:00000008 x8=00000008                # mv      s0, s4
00000000 00001556 0000 80001c50  x10:00000001                            # bnez    a0, pc + 44
00000000 00001557 0000 80001c7c  x21:00000000 x21=00000000               # srli    s5, s5, 1
00000000 00001558 0000 80001c80  x24:0000000b                            # beqz    s8, pc + 56
00000000 00001559 0000 80001c84  x2:0011fe30 x25=0011fe37                # addi    s9, sp, 7
00000000 00001560 0000 80001c88  x25:0011fe37 x24:0000000b x10=0011fe42  # add     a0, s9, s8
00000000 00001561 0000 80001c8c  x10:0011fe42 RA:0011fe42 x10=00000034   # lbu     a0, 0(a0)
00000000 00001562 0000 80001c90  x24:0000000b x26=0000000a               # addi    s10, s8, -1
00000000 00001563 0000 80001c94  x8:00000008 x9=00000009                 # addi    s1, s0, 1
00000000 00001564 0000 80001c98  x22:0011ff17 x11=0011ff17               # mv      a1, s6
00000000 00001565 0000 80001c9c  x8:00000008 x12=00000008                # mv      a2, s0
00000000 00001566 0000 80001ca0  x19:ffffffff x13=ffffffff               # mv      a3, s3
00000000 00001567 0000 80001ca4  x23:80001658 x1=80001ca8                # jalr    s7
00000000 00001568 0000 80001658  x10:00000034                            # beqz    a0, pc + 12
00000000 00001569 0000 8000165c  x11=f00b8000                            # lui     a1, 0xf00b8
00000000 00001570 0000 80001660  x11:f00b8000 x10:00000034 WA:f00b8000   # sw      a0, 0(a1)
00000000 00001571 0000 80001664  x1:80001ca8                             # ret
00000000 00001572 0000 80001ca8  x9:00000009 x8=00000009                 # mv      s0, s1
00000000 00001573 0000 80001cac  x26:0000000a x24=0000000a               # mv      s8, s10
00000000 00001574 0000 80001cb0  x26:0000000a                            # bnez    s10, pc - 40
00000000 00001575 0000 80001c88  x25:0011fe37 x24:0000000a x10=0011fe41  # add     a0, s9, s8
00000000 00001576 0000 80001c8c  x10:0011fe41 RA:0011fe41 x10=00000035   # lbu     a0, 0(a0)
00000000 00001577 0000 80001c90  x24:0000000a x26=00000009               # addi    s10, s8, -1
00000000 00001578 0000 80001c94  x8:00000009 x9=0000000a                 # addi    s1, s0, 1
00000000 00001579 0000 80001c98  x22:0011ff17 x11=0011ff17               # mv      a1, s6
00000000 00001580 0000 80001c9c  x8:00000009 x12=00000009                # mv      a2, s0
00000000 00001581 0000 80001ca0  x19:ffffffff x13=ffffffff               # mv      a3, s3
00000000 00001582 0000 80001ca4  x23:80001658 x1=80001ca8                # jalr    s7
00000000 00001583 0000 80001658  x10:00000035                            # beqz    a0, pc + 12
00000000 00001584 0000 8000165c  x11=f00b8000                            # lui     a1, 0xf00b8
00000000 00001585 0000 80001660  x11:f00b8000 x10:00000035 WA:f00b8000   # sw      a0, 0(a1)
00000000 00001586 0000 80001664  x1:80001ca8                             # ret
00000000 00001587 0000 80001ca8  x9:0000000a x8=0000000a                 # mv      s0, s1
00000000 00001588 0000 80001cac  x26:00000009 x24=00000009               # mv      s8, s10
00000000 00001589 0000 80001cb0  x26:00000009                            # bnez    s10, pc - 40
00000000 00001590 0000 80001c88  x25:0011fe37 x24:00000009 x10=0011fe40  # add     a0, s9, s8
00000000 00001591 0000 80001c8c  x10:0011fe40 RA:0011fe40 x10=00000039   # lbu     a0, 0(a0)
00000000 00001592 0000 80001c90  x24:00000009 x26=00000008               # addi    s10, s8, -1
00000000 00001593 0000 80001c94  x8:0000000a x9=0000000b                 # addi    s1, s0, 1
00000000 00001594 0000 80001c98  x22:0011ff17 x11=0011ff17               # mv      a1, s6
00000000 00001595 0000 80001c9c  x8:0000000a x12=0000000a                # mv      a2, s0
00000000 00001596 0000 80001ca0  x19:ffffffff x13=ffffffff               # mv      a3, s3
00000000 00001597 0000 80001ca4  x23:80001658 x1=80001ca8                # jalr    s7
00000000 00001598 0000 80001658  x10:00000039                            # beqz    a0, pc + 12
00000000 00001599 0000 8000165c  x11=f00b8000                            # lui     a1, 0xf00b8
00000000 00001600 0000 80001660  x11:f00b8000 x10:00000039 WA:f00b8000   # sw      a0, 0(a1)
00000000 00001601 0000 80001664  x1:80001ca8                             # ret
00000000 00001602 0000 80001ca8  x9:0000000b x8=0000000b                 # mv      s0, s1
00000000 00001603 0000 80001cac  x26:00000008 x24=00000008               # mv      s8, s10
00000000 00001604 0000 80001cb0  x26:00000008                            # bnez    s10, pc - 40
00000000 00001605 0000 80001c88  x25:0011fe37 x24:00000008 x10=0011fe3f  # add     a0, s9, s8
00000000 00001606 0000 80001c8c  x10:0011fe3f RA:0011fe3f x10=00000039   # lbu     a0, 0(a0)
00000000 00001607 0000 80001c90  x24:00000008 x26=00000007               # addi    s10, s8, -1
00000000 00001608 0000 80001c94  x8:0000000b x9=0000000c                 # addi    s1, s0, 1
00000000 00001609 0000 80001c98  x22:0011ff17 x11=0011ff17               # mv      a1, s6
00000000 00001610 0000 80001c9c  x8:0000000b x12=0000000b                # mv      a2, s0
00000000 00001611 0000 80001ca0  x19:ffffffff x13=ffffffff               # mv      a3, s3
00000000 00001612 0000 80001ca4  x23:80001658 x1=80001ca8                # jalr    s7
00000000 00001613 0000 80001658  x10:00000039                            # beqz    a0, pc + 12
00000000 00001614 0000 8000165c  x11=f00b8000                            # lui     a1, 0xf00b8
00000000 00001615 0000 80001660  x11:f00b8000 x10:00000039 WA:f00b8000   # sw      a0, 0(a1)
00000000 00001616 0000 80001664  x1:80001ca8                             # ret
00000000 00001617 0000 80001ca8  x9:0000000c x8=0000000c                 # mv      s0, s1
00000000 00001618 0000 80001cac  x26:00000007 x24=00000007               # mv      s8, s10
00000000 00001619 0000 80001cb0  x26:00000007                            # bnez    s10, pc - 40
00000000 00001620 0000 80001c88  x25:0011fe37 x24:00000007 x10=0011fe3e  # add     a0, s9, s8
00000000 00001621 0000 80001c8c  x10:0011fe3e RA:0011fe3e x10=0000002e   # lbu     a0, 0(a0)
00000000 00001622 0000 80001c90  x24:00000007 x26=00000006               # addi    s10, s8, -1
00000000 00001623 0000 80001c94  x8:0000000c x9=0000000d                 # addi    s1, s0, 1
00000000 00001624 0000 80001c98  x22:0011ff17 x11=0011ff17               # mv      a1, s6
00000000 00001625 0000 80001c9c  x8:0000000c x12=0000000c                # mv      a2, s0
00000000 00001626 0000 80001ca0  x19:ffffffff x13=ffffffff               # mv      a3, s3
00000000 00001627 0000 80001ca4  x23:80001658 x1=80001ca8                # jalr    s7
00000000 00001628 0000 80001658  x10:0000002e                            # beqz    a0, pc + 12
00000000 00001629 0000 8000165c  x11=f00b8000                            # lui     a1, 0xf00b8
00000000 00001630 0000 80001660  x11:f00b8000 x10:0000002e WA:f00b8000   # sw      a0, 0(a1)
00000000 00001631 0000 80001664  x1:80001ca8                             # ret
00000000 00001632 0000 80001ca8  x9:0000000d x8=0000000d                 # mv      s0, s1
00000000 00001633 0000 80001cac  x26:00000006 x24=00000006               # mv      s8, s10
00000000 00001634 0000 80001cb0  x26:00000006                            # bnez    s10, pc - 40
00000000 00001635 0000 80001c88  x25:0011fe37 x24:00000006 x10=0011fe3d  # add     a0, s9, s8
00000000 00001636 0000 80001c8c  x10:0011fe3d RA:0011fe3d x10=00000039   # lbu     a0, 0(a0)
00000000 00001637 0000 80001c90  x24:00000006 x26=00000005               # addi    s10, s8, -1
00000000 00001638 0000 80001c94  x8:0000000d x9=0000000e                 # addi    s1, s0, 1
00000000 00001639 0000 80001c98  x22:0011ff17 x11=0011ff17               # mv      a1, s6
00000000 00001640 0000 80001c9c  x8:0000000d x12=0000000d                # mv      a2, s0
00000000 00001641 0000 80001ca0  x19:ffffffff x13=ffffffff               # mv      a3, s3
00000000 00001642 0000 80001ca4  x23:80001658 x1=80001ca8                # jalr    s7
00000000 00001643 0000 80001658  x10:00000039                            # beqz    a0, pc + 12
00000000 00001644 0000 8000165c  x11=f00b8000                            # lui     a1, 0xf00b8
00000000 00001645 0000 80001660  x11:f00b8000 x10:00000039 WA:f00b8000   # sw      a0, 0(a1)
00000000 00001646 0000 80001664  x1:80001ca8                             # ret
00000000 00001647 0000 80001ca8  x9:0000000e x8=0000000e                 # mv      s0, s1
00000000 00001648 0000 80001cac  x26:00000005 x24=00000005               # mv      s8, s10
00000000 00001649 0000 80001cb0  x26:00000005                            # bnez    s10, pc - 40
00000000 00001650 0000 80001c88  x25:0011fe37 x24:00000005 x10=0011fe3c  # add     a0, s9, s8
00000000 00001651 0000 80001c8c  x10:0011fe3c RA:0011fe3c x10=00000031   # lbu     a0, 0(a0)
00000000 00001652 0000 80001c90  x24:00000005 x26=00000004               # addi    s10, s8, -1
00000000 00001653 0000 80001c94  x8:0000000e x9=0000000f                 # addi    s1, s0, 1
00000000 00001654 0000 80001c98  x22:0011ff17 x11=0011ff17               # mv      a1, s6
00000000 00001655 0000 80001c9c  x8:0000000e x12=0000000e                # mv      a2, s0
00000000 00001656 0000 80001ca0  x19:ffffffff x13=ffffffff               # mv      a3, s3
00000000 00001657 0000 80001ca4  x23:80001658 x1=80001ca8                # jalr    s7
00000000 00001658 0000 80001658  x10:00000031                            # beqz    a0, pc + 12
00000000 00001659 0000 8000165c  x11=f00b8000                            # lui     a1, 0xf00b8
00000000 00001660 0000 80001660  x11:f00b8000 x10:00000031 WA:f00b8000   # sw      a0, 0(a1)
00000000 00001661 0000 80001664  x1:80001ca8                             # ret
00000000 00001662 0000 80001ca8  x9:0000000f x8=0000000f                 # mv      s0, s1
00000000 00001663 0000 80001cac  x26:00000004 x24=00000004               # mv      s8, s10
00000000 00001664 0000 80001cb0  x26:00000004                            # bnez    s10, pc - 40
00000000 00001665 0000 80001c88  x25:0011fe37 x24:00000004 x10=0011fe3b  # add     a0, s9, s8
00000000 00001666 0000 80001c8c  x10:0011fe3b RA:0011fe3b x10=00000031   # lbu     a0, 0(a0)
00000000 00001667 0000 80001c90  x24:00000004 x26=00000003               # addi    s10, s8, -1
00000000 00001668 0000 80001c94  x8:0000000f x9=00000010                 # addi    s1, s0, 1
00000000 00001669 0000 80001c98  x22:0011ff17 x11=0011ff17               # mv      a1, s6
00000000 00001670 0000 80001c9c  x8:0000000f x12=0000000f                # mv      a2, s0
00000000 00001671 0000 80001ca0  x19:ffffffff x13=ffffffff               # mv      a3, s3
00000000 00001672 0000 80001ca4  x23:80001658 x1=80001ca8                # jalr    s7
00000000 00001673 0000 80001658  x10:00000031                            # beqz    a0, pc + 12
00000000 00001674 0000 8000165c  x11=f00b8000                            # lui     a1, 0xf00b8
00000000 00001675 0000 80001660  x11:f00b8000 x10:00000031 WA:f00b8000   # sw      a0, 0(a1)
00000000 00001676 0000 80001664  x1:80001ca8                             # ret
00000000 00001677 0000 80001ca8  x9:00000010 x8=00000010                 # mv      s0, s1
00000000 00001678 0000 80001cac  x26:00000003 x24=00000003               # mv      s8, s10
00000000 00001679 0000 80001cb0  x26:00000003                            # bnez    s10, pc - 40
00000000 00001680 0000 80001c88  x25:0011fe37 x24:00000003 x10=0011fe3a  # add     a0, s9, s8
00000000 00001681 0000 80001c8c  x10:0011fe3a RA:0011fe3a x10=00000037   # lbu     a0, 0(a0)
00000000 00001682 0000 80001c90  x24:00000003 x26=00000002               # addi    s10, s8, -1
00000000 00001683 0000 80001c94  x8:00000010 x9=00000011                 # addi    s1, s0, 1
00000000 00001684 0000 80001c98  x22:0011ff17 x11=0011ff17               # mv      a1, s6
00000000 00001685 0000 80001c9c  x8:00000010 x12=00000010                # mv      a2, s0
00000000 00001686 0000 80001ca0  x19:ffffffff x13=ffffffff               # mv      a3, s3
00000000 00001687 0000 80001ca4  x23:80001658 x1=80001ca8                # jalr    s7
00000000 00001688 0000 80001658  x10:00000037                            # beqz    a0, pc + 12
00000000 00001689 0000 8000165c  x11=f00b8000                            # lui     a1, 0xf00b8
00000000 00001690 0000 80001660  x11:f00b8000 x10:00000037 WA:f00b8000   # sw      a0, 0(a1)
00000000 00001691 0000 80001664  x1:80001ca8                             # ret
00000000 00001692 0000 80001ca8  x9:00000011 x8=00000011                 # mv      s0, s1
00000000 00001693 0000 80001cac  x26:00000002 x24=00000002               # mv      s8, s10
00000000 00001694 0000 80001cb0  x26:00000002                            # bnez    s10, pc - 40
00000000 00001695 0000 80001c88  x25:0011fe37 x24:00000002 x10=0011fe39  # add     a0, s9, s8
00000000 00001696 0000 80001c8c  x10:0011fe39 RA:0011fe39 x10=00000037   # lbu     a0, 0(a0)
00000000 00001697 0000 80001c90  x24:00000002 x26=00000001               # addi    s10, s8, -1
00000000 00001698 0000 80001c94  x8:00000011 x9=00000012                 # addi    s1, s0, 1
00000000 00001699 0000 80001c98  x22:0011ff17 x11=0011ff17               # mv      a1, s6
00000000 00001700 0000 80001c9c  x8:00000011 x12=00000011                # mv      a2, s0
00000000 00001701 0000 80001ca0  x19:ffffffff x13=ffffffff               # mv      a3, s3
00000000 00001702 0000 80001ca4  x23:80001658 x1=80001ca8                # jalr    s7
00000000 00001703 0000 80001658  x10:00000037                            # beqz    a0, pc + 12
00000000 00001704 0000 8000165c  x11=f00b8000                            # lui     a1, 0xf00b8
00000000 00001705 0000 80001660  x11:f00b8000 x10:00000037 WA:f00b8000   # sw      a0, 0(a1)
00000000 00001706 0000 80001664  x1:80001ca8                             # ret
00000000 00001707 0000 80001ca8  x9:00000012 x8=00000012                 # mv      s0, s1
00000000 00001708 0000 80001cac  x26:00000001 x24=00000001               # mv      s8, s10
00000000 00001709 0000 80001cb0  x26:00000001                            # bnez    s10, pc - 40
00000000 00001710 0000 80001c88  x25:0011fe37 x24:00000001 x10=0011fe38  # add     a0, s9, s8
00000000 00001711 0000 80001c8c  x10:0011fe38 RA:0011fe38 x10=00000032   # lbu     a0, 0(a0)
00000000 00001712 0000 80001c90  x24:00000001 x26=00000000               # addi    s10, s8, -1
00000000 00001713 0000 80001c94  x8:00000012 x9=00000013                 # addi    s1, s0, 1
00000000 00001714 0000 80001c98  x22:0011ff17 x11=0011ff17               # mv      a1, s6
00000000 00001715 0000 80001c9c  x8:00000012 x12=00000012                # mv      a2, s0
00000000 00001716 0000 80001ca0  x19:ffffffff x13=ffffffff               # mv      a3, s3
00000000 00001717 0000 80001ca4  x23:80001658 x1=80001ca8                # jalr    s7
00000000 00001718 0000 80001658  x10:00000032                            # beqz    a0, pc + 12
00000000 00001719 0000 8000165c  x11=f00b8000                            # lui     a1, 0xf00b8
00000000 00001720 0000 80001660  x11:f00b8000 x10:00000032 WA:f00b8000   # sw      a0, 0(a1)
00000000 00001721 0000 80001664  x1:80001ca8                             # ret
00000000 00001722 0000 80001ca8  x9:00000013 x8=00000013                 # mv      s0, s1
00000000 00001723 0000 80001cac  x26:00000000 x24=00000000               # mv      s8, s10
00000000 00001724 0000 80001cb0  x26:00000000                            # bnez    s10, pc - 40
00000000 00001725 0000 80001cb4                                          # j       pc + 0x8
00000000 00001726 0000 80001cbc  x9:00000013 x20:00000008 x10=0000000b   # sub     a0, s1, s4
00000000 00001727 0000 80001cc0  x10:0000000b x18:00000000 x10=00000000  # sltu    a0, a0, s2
00000000 00001728 0000 80001cc4  x10:00000000 x10=00000001               # xori    a0, a0, 1
00000000 00001729 0000 80001cc8  x21:00000000 x11=00000001               # xori    a1, s5, 1
00000000 00001730 0000 80001ccc  x11:00000001 x10:00000001 x10=00000001  # or      a0, a1, a0
00000000 00001731 0000 80001cd0  x10:00000001                            # bnez    a0, pc + 48
00000000 00001732 0000 80001d00  x9:00000013 x8=00000013                 # mv      s0, s1
00000000 00001733 0000 80001d04  x8:00000013 x10=00000013                # mv      a0, s0
00000000 00001734 0000 80001d08  x2:0011fe30 RA:0011fe58 RA:0011fe5c f18=        0.000000  # fld     fs2, 40(sp)
00000000 00001735 0000 80001d0c  x2:0011fe30 RA:0011fe60 RA:0011fe64 f09=        0.000000  # fld     fs1, 48(sp)
00000000 00001736 0000 80001d10  x2:0011fe30 RA:0011fe68 RA:0011fe6c f08=     4599.911772  # fld     fs0, 56(sp)
00000000 00001737 0000 80001d14  x2:0011fe30 RA:0011fe70 x26=80002cae    # lw      s10, 64(sp)
00000000 00001738 0000 80001d18  x2:0011fe30 RA:0011fe74 x25=00000008    # lw      s9, 68(sp)
00000000 00001739 0000 80001d1c  x2:0011fe30 RA:0011fe78 x24=00000010    # lw      s8, 72(sp)
00000000 00001740 0000 80001d20  x2:0011fe30 RA:0011fe7c x23=00000000    # lw      s7, 76(sp)
00000000 00001741 0000 80001d24  x2:0011fe30 RA:0011fe80 x22=00000000    # lw      s6, 80(sp)
00000000 00001742 0000 80001d28  x2:0011fe30 RA:0011fe84 x21=ffffffff    # lw      s5, 84(sp)
00000000 00001743 0000 80001d2c  x2:0011fe30 RA:0011fe88 x20=0011ff17    # lw      s4, 88(sp)
00000000 00001744 0000 80001d30  x2:0011fe30 RA:0011fe8c x19=0011ff30    # lw      s3, 92(sp)
00000000 00001745 0000 80001d34  x2:0011fe30 RA:0011fe90 x18=80001658    # lw      s2, 96(sp)
00000000 00001746 0000 80001d38  x2:0011fe30 RA:0011fe94 x9=00000008     # lw      s1, 100(sp)
00000000 00001747 0000 80001d3c  x2:0011fe30 RA:0011fe98 x8=00000000     # lw      s0, 104(sp)
00000000 00001748 0000 80001d40  x2:0011fe30 RA:0011fe9c x1=80000d88     # lw      ra, 108(sp)
00000000 00001749 0000 80001d44  x2:0011fe30 x2=0011fea0                 # addi    sp, sp, 112
00000000 00001750 0000 80001d48  x1:80000d88                             # ret
00000000 00001751 0000 80000d88                                          # j       pc + 0x7c0
00000000 00001752 0000 80001548  x10:00000013 x24=00000013               # mv      s8, a0
00000000 00001753 0000 8000154c  x22=00000025                            # li      s6, 37
00000000 00001754 0000 80001550  x23=0000002e                            # li      s7, 46
00000000 00001755 0000 80001554  x26:80002cae x8=80002caf                # addi    s0, s10, 1
00000000 00001756 0000 80001558                                          # j       pc - 0xa74
00000000 00001757 0000 80000ae4  x8:80002caf x26=80002cb1                # addi    s10, s0, 2
00000000 00001758 0000 80000ae8  x24:00000013 x25=00000013               # mv      s9, s8
00000000 00001759 0000 80000aec  x24=0000000a                            # li      s8, 10
00000000 00001760 0000 80000af0  x8:80002caf RA:80002caf x10=0000000a    # lbu     a0, 0(s0)
00000000 00001761 0000 80000af4  x10:0000000a                            # beqz    a0, pc + 2824
00000000 00001762 0000 80000af8  x10:0000000a x22:00000025               # beq     a0, s6, pc + 48
00000000 00001763 0000 80000afc  x25:00000013 x9=00000014                # addi    s1, s9, 1
00000000 00001764 0000 80000b00  x20:0011ff17 x11=0011ff17               # mv      a1, s4
00000000 00001765 0000 80000b04  x25:00000013 x12=00000013               # mv      a2, s9
00000000 00001766 0000 80000b08  x21:ffffffff x13=ffffffff               # mv      a3, s5
00000000 00001767 0000 80000b0c  x18:80001658 x1=80000b10                # jalr    s2
00000000 00001768 0000 80001658  x10:0000000a                            # beqz    a0, pc + 12
00000000 00001769 0000 8000165c  x11=f00b8000                            # lui     a1, 0xf00b8
00000000 00001770 0000 80001660  x11:f00b8000 x10:0000000a WA:f00b8000   # sw      a0, 0(a1)
00000000 00001771 0000 80001664  x1:80000b10                             # ret
00000000 00001772 0000 80000b10  x8:80002caf x8=80002cb0                 # addi    s0, s0, 1
00000000 00001773 0000 80000b14  x26:80002cb1 x26=80002cb2               # addi    s10, s10, 1
00000000 00001774 0000 80000b18  x9:00000014 x25=00000014                # mv      s9, s1
00000000 00001775 0000 80000b1c  x8:80002cb0 RA:80002cb0 x10=00000000    # lbu     a0, 0(s0)
00000000 00001776 0000 80000b20  x10:00000000                            # bnez    a0, pc - 40
00000000 00001777 0000 80000b24                                          # j       pc + 0xad8
00000000 00001778 0000 800015fc  x25:00000014 x12=00000014               # mv      a2, s9
00000000 00001779 0000 80001600  x25:00000014 x21:ffffffff               # bltu    s9, s5, pc + 8
00000000 00001780 0000 80001608  x10=00000000                            # li      a0, 0
00000000 00001781 0000 8000160c  x20:0011ff17 x11=0011ff17               # mv      a1, s4
00000000 00001782 0000 80001610  x21:ffffffff x13=ffffffff               # mv      a3, s5
00000000 00001783 0000 80001614  x18:80001658 x1=80001618                # jalr    s2
00000000 00001784 0000 80001658  x10:00000000                            # beqz    a0, pc + 12
00000000 00001785 0000 80001664  x1:80001618                             # ret
00000000 00001786 0000 80001618  x25:00000014 x10=00000014               # mv      a0, s9
00000000 00001787 0000 8000161c  x2:0011fea0 RA:0011fedc x27=00000000    # lw      s11, 60(sp)
00000000 00001788 0000 80001620  x2:0011fea0 RA:0011fee0 x26=00000000    # lw      s10, 64(sp)
00000000 00001789 0000 80001624  x2:0011fea0 RA:0011fee4 x25=00000000    # lw      s9, 68(sp)
00000000 00001790 0000 80001628  x2:0011fea0 RA:0011fee8 x24=00000000    # lw      s8, 72(sp)
00000000 00001791 0000 8000162c  x2:0011fea0 RA:0011feec x23=00000000    # lw      s7, 76(sp)
00000000 00001792 0000 80001630  x2:0011fea0 RA:0011fef0 x22=00000000    # lw      s6, 80(sp)
00000000 00001793 0000 80001634  x2:0011fea0 RA:0011fef4 x21=00000000    # lw      s5, 84(sp)
00000000 00001794 0000 80001638  x2:0011fea0 RA:0011fef8 x20=00000000    # lw      s4, 88(sp)
00000000 00001795 0000 8000163c  x2:0011fea0 RA:0011fefc x19=00000000    # lw      s3, 92(sp)
00000000 00001796 0000 80001640  x2:0011fea0 RA:0011ff00 x18=00000000    # lw      s2, 96(sp)
00000000 00001797 0000 80001644  x2:0011fea0 RA:0011ff04 x9=00000000     # lw      s1, 100(sp)
00000000 00001798 0000 80001648  x2:0011fea0 RA:0011ff08 x8=00000000     # lw      s0, 104(sp)
00000000 00001799 0000 8000164c  x2:0011fea0 RA:0011ff0c x1=80000a54     # lw      ra, 108(sp)
00000000 00001800 0000 80001650  x2:0011fea0 x2=0011ff10                 # addi    sp, sp, 112
00000000 00001801 0000 80001654  x1:80000a54                             # ret
00000000 00001802 0000 80000a54  x2:0011ff10 RA:0011ff1c x1=800009e4     # lw      ra, 12(sp)
00000000 00001803 0000 80000a58  x2:0011ff10 x2=0011ff40                 # addi    sp, sp, 48
00000000 00001804 0000 80000a5c  x1:800009e4                             # ret
00000000 00001805 0000 800009e4  x10=800029e4                            # auipc   a0, 0x2
00000000 00001806 0000 800009e8  x10:800029e4 x10=80002ef8               # addi    a0, a0, 1300
00000000 00001807 0000 800009ec  x10:80002ef8 RA:80002ef8 RA:80002efc f03=        0.000100  # fld     ft3, 0(a0)
00000000 00001808 0000 800009f0  f03:        0.000100 f08:     4599.911772 x10=00000001  # flt.d   a0, ft3, fs0
00000000 00001809 0000 800009f4  x2:0011ff40 RA:0011ff50 RA:0011ff54 f08=        0.000000  # fld     fs0, 16(sp)
00000000 00001810 0000 800009f8  x2:0011ff40 RA:0011ff5c x1=80002a20     # lw      ra, 28(sp)
00000000 00001811 0000 800009fc  x2:0011ff40 x2=0011ff60                 # addi    sp, sp, 32
00000000 00001812 0000 80000a00  x1:80002a20                             # ret
00000000 00001813 0000 80002a20  x10:00000001 x8=00000001                # mv      s0, a0
00000000 00001814 0000 80002a24  x1=80002a24                             # auipc   ra, 0x0
00000000 00001815 0000 80002a28  x1:80002a24 x1=80002a2c                 # jalr    ra, ra, 524
00000000 00001816 0000 80002c30  x2:0011ff60 x2=0011ff5c                 # addi    sp, sp, -4
00000000 00001817 0000 80002c34  x2:0011ff5c x1:80002a2c WA:0011ff5c     # sw      ra, 0(sp)
00000000 00001818 0000 80002c38  x1=80002c38                             # auipc   ra, 0x0
00000000 00001819 0000 80002c3c  x1:80002c38 x1=80002c40                 # jalr    ra, ra, -1628
00000000 00001820 0000 800025dc  x10=00000000                            # lui     a0, 0x0
00000000 00001821 0000 800025e0  x10:00000000 x4:0011ff60 x10=0011ff60   # add     a0, a0, tp
00000000 00001822 0000 800025e4  x10:0011ff60 RA:0011ff60 x10=0011ff70   # lw      a0, 0(a0)
00000000 00001823 0000 800025e8  x10:0011ff70 RA:0011ff70 x10=0011ff70   # lw      a0, 0(a0)
00000000 00001824 0000 800025ec  x10:0011ff70 RA:0011ffe0 x10=00120190   # lw      a0, 112(a0)
00000000 00001825 0000 800025f0  x1:80002c40                             # ret
00000000 00000229 0004 80002c50  x1:80002a18                             # ret
00000000 00000230 0004 80002a18  x1=80000a18                             # auipc   ra, 0xffffe
00000000 00000231 0004 80002a1c  x1:80000a18 x1=80002a20                 # jalr    ra, ra, -996
00000000 00000232 0004 80000634  x10=00000000                            # lui     a0, 0x0
00000000 00000233 0004 80000638  x10:00000000 x4:0011ef40 x10=0011ef40   # add     a0, a0, tp
00000000 00000234 0004 8000063c  x10:0011ef40 RA:0011ef44 x10=00000004   # lw      a0, 4(a0)
00000000 00000235 0004 80000640  x10:00000004                            # beqz    a0, pc + 12
00000000 00000236 0004 80000644  x10=00000000                            # li      a0, 0
00000000 00000237 0004 80000648  x1:80002a20                             # ret
00000000 00000238 0004 80002a20  x10:00000000 x8=00000000                # mv      s0, a0
00000000 00000239 0004 80002a24  x1=80002a24                             # auipc   ra, 0x0
00000000 00000240 0004 80002a28  x1:80002a24 x1=80002a2c                 # jalr    ra, ra, 524
00000000 00000241 0004 80002c30  x2:0011ef40 x2=0011ef3c                 # addi    sp, sp, -4
00000000 00000242 0004 80002c34  x2:0011ef3c x1:80002a2c WA:0011ef3c     # sw      ra, 0(sp)
00000000 00000243 0004 80002c38  x1=80002c38                             # auipc   ra, 0x0
00000000 00000244 0004 80002c3c  x1:80002c38 x1=80002c40                 # jalr    ra, ra, -1628
00000000 00000245 0004 800025dc  x10=00000000                            # lui     a0, 0x0
00000000 00000246 0004 800025e0  x10:00000000 x4:0011ef40 x10=0011ef40   # add     a0, a0, tp
00000000 00000247 0004 800025e4  x10:0011ef40 RA:0011ef40 x10=0011ff70   # lw      a0, 0(a0)
00000000 00000248 0004 800025e8  x10:0011ff70 RA:0011ff70 x10=0011ff70   # lw      a0, 0(a0)
00000000 00000249 0004 800025ec  x10:0011ff70 RA:0011ffe0 x10=00120190   # lw      a0, 112(a0)
00000000 00000250 0004 800025f0  x1:80002c40                             # ret
00000000 00000251 0004 80002c40  x10:00120190 RA:00120190 x10=00000000   # lw      a0, 0(a0)
00000000 00000251 0003 80002c40  x10:00120190 RA:00120190 x10=00000000   # lw      a0, 0(a0)
00000000 00000251 0002 80002c40  x10:00120190 RA:00120190 x10=00000000   # lw      a0, 0(a0)
00000000 00000252 0002 80002c44  x10:00000000                            # mv      zero, a0
00000000 00000251 0001 80002c40  x10:00120190 RA:00120190 x10=00000000   # lw      a0, 0(a0)
00000000 00000252 0001 80002c44  x10:00000000                            # mv      zero, a0
00000000 00000253 0001 80002c48  x2:0011fb54 RA:0011fb54 x1=80002a2c     # lw      ra, 0(sp)
00000000 00000254 0001 80002c4c  x2:0011fb54 x2=0011fb58                 # addi    sp, sp, 4
00000000 00000251 0005 80002c40  x10:00120190 RA:00120190 x10=00000000   # lw      a0, 0(a0)
00000000 00000252 0003 80002c44  x10:00000000                            # mv      zero, a0
00000000 00000251 0008 80002c40  x10:00120190 RA:00120190 x10=00000000   # lw      a0, 0(a0)
00000000 00000252 0008 80002c44  x10:00000000                            # mv      zero, a0
00000000 00000251 0007 80002c40  x10:00120190 RA:00120190 x10=00000000   # lw      a0, 0(a0)
00000000 00001826 0000 80002c40  x10:00120190 RA:00120190 x10=00000000   # lw      a0, 0(a0)
00000000 00001827 0000 80002c44  x10:00000000                            # mv      zero, a0
00000000 00001828 0000 80002c48  x2:0011ff5c RA:0011ff5c x1=80002a2c     # lw      ra, 0(sp)
00000000 00001829 0000 80002c4c  x2:0011ff5c x2=0011ff60                 # addi    sp, sp, 4
00000000 00001830 0000 80002c50  x1:80002a2c                             # ret
00000000 00000253 0003 80002c48  x2:0011f344 RA:0011f344 x1=80002a2c     # lw      ra, 0(sp)
00000000 00000253 0002 80002c48  x2:0011f74c RA:0011f74c x1=80002a2c     # lw      ra, 0(sp)
00000000 00000254 0002 80002c4c  x2:0011f74c x2=0011f750                 # addi    sp, sp, 4
00000000 00000252 0007 80002c44  x10:00000000                            # mv      zero, a0
00000000 00000255 0001 80002c50  x1:80002a2c                             # ret
00000000 00000252 0004 80002c44  x10:00000000                            # mv      zero, a0
00000000 00000251 0006 80002c40  x10:00120190 RA:00120190 x10=00000000   # lw      a0, 0(a0)
00000000 00000252 0005 80002c44  x10:00000000                            # mv      zero, a0
00000000 00001831 0000 80002a2c  x8:00000001 x10=00000001                # mv      a0, s0
00000000 00000254 0003 80002c4c  x2:0011f344 x2=0011f348                 # addi    sp, sp, 4
00000000 00000255 0003 80002c50  x1:80002a2c                             # ret
00000000 00000256 0003 80002a2c  x8:00000000 x10=00000000                # mv      a0, s0
00000000 00000257 0003 80002a30  x1=80002a30                             # auipc   ra, 0x0
00000000 00000258 0003 80002a34  x1:80002a30 x1=80002a38                 # jalr    ra, ra, 556
00000000 00000253 0004 80002c48  x2:0011ef3c RA:0011ef3c x1=80002a2c     # lw      ra, 0(sp)
00000000 00000254 0004 80002c4c  x2:0011ef3c x2=0011ef40                 # addi    sp, sp, 4
00000000 00000255 0004 80002c50  x1:80002a2c                             # ret
00000000 00000256 0004 80002a2c  x8:00000000 x10=00000000                # mv      a0, s0
00000000 00000257 0004 80002a30  x1=80002a30                             # auipc   ra, 0x0
00000000 00000258 0004 80002a34  x1:80002a30 x1=80002a38                 # jalr    ra, ra, 556
00000000 00000259 0004 80002c5c  x2:0011ef40 x2=0011ef38                 # addi    sp, sp, -8
00000000 00000253 0007 80002c48  x2:0011e324 RA:0011e324 x1=80002a2c     # lw      ra, 0(sp)
00000000 00000254 0007 80002c4c  x2:0011e324 x2=0011e328                 # addi    sp, sp, 4
00000000 00000255 0007 80002c50  x1:80002a2c                             # ret
00000000 00000256 0007 80002a2c  x8:00000000 x10=00000000                # mv      a0, s0
00000000 00000257 0007 80002a30  x1=80002a30                             # auipc   ra, 0x0
00000000 00000258 0007 80002a34  x1:80002a30 x1=80002a38                 # jalr    ra, ra, 556
00000000 00001832 0000 80002a30  x1=80002a30                             # auipc   ra, 0x0
00000000 00000253 0008 80002c48  x2:0011df1c RA:0011df1c x1=80002a2c     # lw      ra, 0(sp)
00000000 00000255 0002 80002c50  x1:80002a2c                             # ret
00000000 00000260 0004 80002c60  x2:0011ef38 x10:00000000 WA:0011ef38    # sw      a0, 0(sp)
00000000 00000256 0001 80002a2c  x8:00000000 x10=00000000                # mv      a0, s0
00000000 00000259 0003 80002c5c  x2:0011f348 x2=0011f340                 # addi    sp, sp, -8
00000000 00000252 0006 80002c44  x10:00000000                            # mv      zero, a0
00000000 00000253 0005 80002c48  x2:0011eb34 RA:0011eb34 x1=80002a2c     # lw      ra, 0(sp)
00000000 00000259 0007 80002c5c  x2:0011e328 x2=0011e320                 # addi    sp, sp, -8
00000000 00001833 0000 80002a34  x1:80002a30 x1=80002a38                 # jalr    ra, ra, 556
00000000 00000254 0008 80002c4c  x2:0011df1c x2=0011df20                 # addi    sp, sp, 4
00000000 00000256 0002 80002a2c  x8:00000000 x10=00000000                # mv      a0, s0
00000000 00000257 0002 80002a30  x1=80002a30                             # auipc   ra, 0x0
00000000 00000257 0001 80002a30  x1=80002a30                             # auipc   ra, 0x0
00000000 00000260 0003 80002c60  x2:0011f340 x10:00000000 WA:0011f340    # sw      a0, 0(sp)
00000000 00000253 0006 80002c48  x2:0011e72c RA:0011e72c x1=80002a2c     # lw      ra, 0(sp)
00000000 00000254 0006 80002c4c  x2:0011e72c x2=0011e730                 # addi    sp, sp, 4
00000000 00000255 0006 80002c50  x1:80002a2c                             # ret
00000000 00000256 0006 80002a2c  x8:00000000 x10=00000000                # mv      a0, s0
00000000 00000257 0006 80002a30  x1=80002a30                             # auipc   ra, 0x0
00000000 00000261 0004 80002c64  x2:0011ef38 x1:80002a38 WA:0011ef3c     # sw      ra, 4(sp)
00000000 00000258 0002 80002a34  x1:80002a30 x1=80002a38                 # jalr    ra, ra, 556
00000000 00000259 0002 80002c5c  x2:0011f750 x2=0011f748                 # addi    sp, sp, -8
00000000 00000261 0003 80002c64  x2:0011f340 x1:80002a38 WA:0011f344     # sw      ra, 4(sp)
00000000 00000262 0003 80002c68  x1=80002c68                             # auipc   ra, 0x0
00000000 00000254 0005 80002c4c  x2:0011eb34 x2=0011eb38                 # addi    sp, sp, 4
00000000 00000260 0007 80002c60  x2:0011e320 x10:00000000 WA:0011e320    # sw      a0, 0(sp)
00000000 00001834 0000 80002c5c  x2:0011ff60 x2=0011ff58                 # addi    sp, sp, -8
00000000 00000255 0008 80002c50  x1:80002a2c                             # ret
00000000 00001835 0000 80002c60  x2:0011ff58 x10:00000001 WA:0011ff58    # sw      a0, 0(sp)
00000000 00000256 0008 80002a2c  x8:00000000 x10=00000000                # mv      a0, s0
00000000 00000262 0004 80002c68  x1=80002c68                             # auipc   ra, 0x0
00000000 00000258 0001 80002a34  x1:80002a30 x1=80002a38                 # jalr    ra, ra, 556
00000000 00000263 0003 80002c6c  x1:80002c68 x1=80002c70                 # jalr    ra, ra, -1708
00000000 00000264 0003 800025bc  x10=00000000                            # lui     a0, 0x0
00000000 00000261 0007 80002c64  x2:0011e320 x1:80002a38 WA:0011e324     # sw      ra, 4(sp)
00000000 00000262 0007 80002c68  x1=80002c68                             # auipc   ra, 0x0
00000000 00000263 0007 80002c6c  x1:80002c68 x1=80002c70                 # jalr    ra, ra, -1708
00000000 00000264 0007 800025bc  x10=00000000                            # lui     a0, 0x0
00000000 00000260 0002 80002c60  x2:0011f748 x10:00000000 WA:0011f748    # sw      a0, 0(sp)
00000000 00000263 0004 80002c6c  x1:80002c68 x1=80002c70                 # jalr    ra, ra, -1708
00000000 00000264 0004 800025bc  x10=00000000                            # lui     a0, 0x0
00000000 00000265 0004 800025c0  x10:00000000 x4:0011ef40 x10=0011ef40   # add     a0, a0, tp
00000000 00000265 0003 800025c0  x10:00000000 x4:0011f348 x10=0011f348   # add     a0, a0, tp
00000000 00000266 0003 800025c4  x10:0011f348 RA:0011f348 x10=0011ff70   # lw      a0, 0(a0)
00000000 00000267 0003 800025c8  x10:0011ff70 RA:0011ff70 x10=0011ff70   # lw      a0, 0(a0)
00000000 00000257 0008 80002a30  x1=80002a30                             # auipc   ra, 0x0
00000000 00000265 0007 800025c0  x10:00000000 x4:0011e328 x10=0011e328   # add     a0, a0, tp
00000000 00000261 0002 80002c64  x2:0011f748 x1:80002a38 WA:0011f74c     # sw      ra, 4(sp)
00000000 00000262 0002 80002c68  x1=80002c68                             # auipc   ra, 0x0
00000000 00000263 0002 80002c6c  x1:80002c68 x1=80002c70                 # jalr    ra, ra, -1708
00000000 00000264 0002 800025bc  x10=00000000                            # lui     a0, 0x0
00000000 00000265 0002 800025c0  x10:00000000 x4:0011f750 x10=0011f750   # add     a0, a0, tp
00000000 00000266 0002 800025c4  x10:0011f750 RA:0011f750 x10=0011ff70   # lw      a0, 0(a0)
00000000 00000268 0003 800025cc  x10:0011ff70 RA:0011ff78 x10=00000000   # lw      a0, 8(a0)
00000000 00000258 0008 80002a34  x1:80002a30 x1=80002a38                 # jalr    ra, ra, 556
00000000 00000266 0007 800025c4  x10:0011e328 RA:0011e328 x10=0011ff70   # lw      a0, 0(a0)
00000000 00000267 0007 800025c8  x10:0011ff70 RA:0011ff70 x10=0011ff70   # lw      a0, 0(a0)
00000000 00000268 0007 800025cc  x10:0011ff70 RA:0011ff78 x10=00000000   # lw      a0, 8(a0)
00000000 00000269 0007 800025d0  x11=00000007                            # csrr    a1, mhartid
00000000 00000270 0007 800025d4  x11:00000007 x10:00000000 x10=00000007  # sub     a0, a1, a0
00000000 00000271 0007 800025d8  x1:80002c70                             # ret
00000000 00000267 0002 800025c8  x10:0011ff70 RA:0011ff70 x10=0011ff70   # lw      a0, 0(a0)
00000000 00000269 0003 800025d0  x11=00000003                            # csrr    a1, mhartid
00000000 00000259 0008 80002c5c  x2:0011df20 x2=0011df18                 # addi    sp, sp, -8
00000000 00000259 0001 80002c5c  x2:0011fb58 x2=0011fb50                 # addi    sp, sp, -8
00000000 00000255 0005 80002c50  x1:80002a2c                             # ret
00000000 00000260 0001 80002c60  x2:0011fb50 x10:00000000 WA:0011fb50    # sw      a0, 0(sp)
00000000 00000266 0004 800025c4  x10:0011ef40 RA:0011ef40 x10=0011ff70   # lw      a0, 0(a0)
00000000 00000261 0001 80002c64  x2:0011fb50 x1:80002a38 WA:0011fb54     # sw      ra, 4(sp)
00000000 00001836 0000 80002c64  x2:0011ff58 x1:80002a38 WA:0011ff5c     # sw      ra, 4(sp)
00000000 00000272 0007 80002c70  x2:0011e320 RA:0011e320 x5=00000000     # lw      t0, 0(sp)
00000000 00000268 0002 800025cc  x10:0011ff70 RA:0011ff78 x10=00000000   # lw      a0, 8(a0)
00000000 00000270 0003 800025d4  x11:00000003 x10:00000000 x10=00000003  # sub     a0, a1, a0
00000000 00000260 0008 80002c60  x2:0011df18 x10:00000000 WA:0011df18    # sw      a0, 0(sp)
00000000 00000256 0005 80002a2c  x8:00000000 x10=00000000                # mv      a0, s0
00000000 00000257 0005 80002a30  x1=80002a30                             # auipc   ra, 0x0
00000000 00000267 0004 800025c8  x10:0011ff70 RA:0011ff70 x10=0011ff70   # lw      a0, 0(a0)
00000000 00000268 0004 800025cc  x10:0011ff70 RA:0011ff78 x10=00000000   # lw      a0, 8(a0)
00000000 00000269 0004 800025d0  x11=00000004                            # csrr    a1, mhartid
00000000 00000273 0007 80002c74  x2:0011e320 RA:0011e324 x1=80002a38     # lw      ra, 4(sp)
00000000 00000269 0002 800025d0  x11=00000002                            # csrr    a1, mhartid
00000000 00000271 0003 800025d8  x1:80002c70                             # ret
00000000 00000261 0008 80002c64  x2:0011df18 x1:80002a38 WA:0011df1c     # sw      ra, 4(sp)
00000000 00000262 0008 80002c68  x1=80002c68                             # auipc   ra, 0x0
00000000 00000258 0005 80002a34  x1:80002a30 x1=80002a38                 # jalr    ra, ra, 556
00000000 00000259 0005 80002c5c  x2:0011eb38 x2=0011eb30                 # addi    sp, sp, -8
00000000 00000260 0005 80002c60  x2:0011eb30 x10:00000000 WA:0011eb30    # sw      a0, 0(sp)
00000000 00000270 0004 800025d4  x11:00000004 x10:00000000 x10=00000004  # sub     a0, a1, a0
00000000 00000274 0007 80002c78  x2:0011e320 x2=0011e328                 # addi    sp, sp, 8
00000000 00000270 0002 800025d4  x11:00000002 x10:00000000 x10=00000002  # sub     a0, a1, a0
00000000 00000272 0003 80002c70  x2:0011f340 RA:0011f340 x5=00000000     # lw      t0, 0(sp)
00000000 00000258 0006 80002a34  x1:80002a30 x1=80002a38                 # jalr    ra, ra, 556
00000000 00000263 0008 80002c6c  x1:80002c68 x1=80002c70                 # jalr    ra, ra, -1708
00000000 00000264 0008 800025bc  x10=00000000                            # lui     a0, 0x0
00000000 00000265 0008 800025c0  x10:00000000 x4:0011df20 x10=0011df20   # add     a0, a0, tp
00000000 00000261 0005 80002c64  x2:0011eb30 x1:80002a38 WA:0011eb34     # sw      ra, 4(sp)
00000000 00000271 0004 800025d8  x1:80002c70                             # ret
00000000 00000275 0007 80002c7c  x10:00000007                            # bnez    a0, pc + 24
00000000 00000271 0002 800025d8  x1:80002c70                             # ret
00000000 00000273 0003 80002c74  x2:0011f340 RA:0011f344 x1=80002a38     # lw      ra, 4(sp)
00000000 00000259 0006 80002c5c  x2:0011e730 x2=0011e728                 # addi    sp, sp, -8
00000000 00000262 0001 80002c68  x1=80002c68                             # auipc   ra, 0x0
00000000 00001837 0000 80002c68  x1=80002c68                             # auipc   ra, 0x0
00000000 00000266 0008 800025c4  x10:0011df20 RA:0011df20 x10=0011ff70   # lw      a0, 0(a0)
00000000 00000262 0005 80002c68  x1=80002c68                             # auipc   ra, 0x0
00000000 00000272 0004 80002c70  x2:0011ef38 RA:0011ef38 x5=00000000     # lw      t0, 0(sp)
00000000 00000276 0007 80002c94  x1:80002a38                             # ret
00000000 00000272 0002 80002c70  x2:0011f748 RA:0011f748 x5=00000000     # lw      t0, 0(sp)
00000000 00000274 0003 80002c78  x2:0011f340 x2=0011f348                 # addi    sp, sp, 8
00000000 00000260 0006 80002c60  x2:0011e728 x10:00000000 WA:0011e728    # sw      a0, 0(sp)
00000000 00000263 0001 80002c6c  x1:80002c68 x1=80002c70                 # jalr    ra, ra, -1708
00000000 00001838 0000 80002c6c  x1:80002c68 x1=80002c70                 # jalr    ra, ra, -1708
00000000 00000267 0008 800025c8  x10:0011ff70 RA:0011ff70 x10=0011ff70   # lw      a0, 0(a0)
00000000 00000263 0005 80002c6c  x1:80002c68 x1=80002c70                 # jalr    ra, ra, -1708
00000000 00000273 0004 80002c74  x2:0011ef38 RA:0011ef3c x1=80002a38     # lw      ra, 4(sp)
00000000 00000277 0007 80002a38                                          # wfi
00000000 00000273 0002 80002c74  x2:0011f748 RA:0011f74c x1=80002a38     # lw      ra, 4(sp)
00000000 00000275 0003 80002c7c  x10:00000003                            # bnez    a0, pc + 24
00000000 00000261 0006 80002c64  x2:0011e728 x1:80002a38 WA:0011e72c     # sw      ra, 4(sp)
00000000 00000264 0001 800025bc  x10=00000000                            # lui     a0, 0x0
00000000 00001839 0000 800025bc  x10=00000000                            # lui     a0, 0x0
00000000 00000268 0008 800025cc  x10:0011ff70 RA:0011ff78 x10=00000000   # lw      a0, 8(a0)
00000000 00000264 0005 800025bc  x10=00000000                            # lui     a0, 0x0
00000000 00000274 0004 80002c78  x2:0011ef38 x2=0011ef40                 # addi    sp, sp, 8
00000000 00000275 0004 80002c7c  x10:00000004                            # bnez    a0, pc + 24
00000000 00000276 0004 80002c94  x1:80002a38                             # ret
00000000 00000277 0004 80002a38                                          # wfi
00000000 00000274 0002 80002c78  x2:0011f748 x2=0011f750                 # addi    sp, sp, 8
00000000 00000276 0003 80002c94  x1:80002a38                             # ret
00000000 00000277 0003 80002a38                                          # wfi
00000000 00000265 0001 800025c0  x10:00000000 x4:0011fb58 x10=0011fb58   # add     a0, a0, tp
00000000 00001840 0000 800025c0  x10:00000000 x4:0011ff60 x10=0011ff60   # add     a0, a0, tp
00000000 00000269 0008 800025d0  x11=00000008                            # csrr    a1, mhartid
00000000 00000265 0005 800025c0  x10:00000000 x4:0011eb38 x10=0011eb38   # add     a0, a0, tp
00000000 00000275 0002 80002c7c  x10:00000002                            # bnez    a0, pc + 24
00000000 00000276 0002 80002c94  x1:80002a38                             # ret
00000000 00000277 0002 80002a38                                          # wfi
00000000 00000262 0006 80002c68  x1=80002c68                             # auipc   ra, 0x0
00000000 00000263 0006 80002c6c  x1:80002c68 x1=80002c70                 # jalr    ra, ra, -1708
00000000 00000266 0001 800025c4  x10:0011fb58 RA:0011fb58 x10=0011ff70   # lw      a0, 0(a0)
00000000 00001841 0000 800025c4  x10:0011ff60 RA:0011ff60 x10=0011ff70   # lw      a0, 0(a0)
00000000 00000270 0008 800025d4  x11:00000008 x10:00000000 x10=00000008  # sub     a0, a1, a0
00000000 00000266 0005 800025c4  x10:0011eb38 RA:0011eb38 x10=0011ff70   # lw      a0, 0(a0)
00000000 00000264 0006 800025bc  x10=00000000                            # lui     a0, 0x0
00000000 00000265 0006 800025c0  x10:00000000 x4:0011e730 x10=0011e730   # add     a0, a0, tp
00000000 00001842 0000 800025c8  x10:0011ff70 RA:0011ff70 x10=0011ff70   # lw      a0, 0(a0)
00000000 00000271 0008 800025d8  x1:80002c70                             # ret
00000000 00000267 0005 800025c8  x10:0011ff70 RA:0011ff70 x10=0011ff70   # lw      a0, 0(a0)
00000000 00000268 0005 800025cc  x10:0011ff70 RA:0011ff78 x10=00000000   # lw      a0, 8(a0)
00000000 00000269 0005 800025d0  x11=00000005                            # csrr    a1, mhartid
00000000 00000270 0005 800025d4  x11:00000005 x10:00000000 x10=00000005  # sub     a0, a1, a0
00000000 00000271 0005 800025d8  x1:80002c70                             # ret
00000000 00000272 0005 80002c70  x2:0011eb30 RA:0011eb30 x5=00000000     # lw      t0, 0(sp)
00000000 00000273 0005 80002c74  x2:0011eb30 RA:0011eb34 x1=80002a38     # lw      ra, 4(sp)
00000000 00000274 0005 80002c78  x2:0011eb30 x2=0011eb38                 # addi    sp, sp, 8
00000000 00000275 0005 80002c7c  x10:00000005                            # bnez    a0, pc + 24
00000000 00000276 0005 80002c94  x1:80002a38                             # ret
00000000 00000277 0005 80002a38                                          # wfi
00000000 00000267 0001 800025c8  x10:0011ff70 RA:0011ff70 x10=0011ff70   # lw      a0, 0(a0)
00000000 00000266 0006 800025c4  x10:0011e730 RA:0011e730 x10=0011ff70   # lw      a0, 0(a0)
00000000 00001843 0000 800025cc  x10:0011ff70 RA:0011ff78 x10=00000000   # lw      a0, 8(a0)
00000000 00000272 0008 80002c70  x2:0011df18 RA:0011df18 x5=00000000     # lw      t0, 0(sp)
00000000 00000268 0001 800025cc  x10:0011ff70 RA:0011ff78 x10=00000000   # lw      a0, 8(a0)
00000000 00000267 0006 800025c8  x10:0011ff70 RA:0011ff70 x10=0011ff70   # lw      a0, 0(a0)
00000000 00001844 0000 800025d0  x11=00000000                            # csrr    a1, mhartid
00000000 00000273 0008 80002c74  x2:0011df18 RA:0011df1c x1=80002a38     # lw      ra, 4(sp)
00000000 00000269 0001 800025d0  x11=00000001                            # csrr    a1, mhartid
00000000 00000268 0006 800025cc  x10:0011ff70 RA:0011ff78 x10=00000000   # lw      a0, 8(a0)
00000000 00001845 0000 800025d4  x11:00000000 x10:00000000 x10=00000000  # sub     a0, a1, a0
00000000 00000274 0008 80002c78  x2:0011df18 x2=0011df20                 # addi    sp, sp, 8
00000000 00000270 0001 800025d4  x11:00000001 x10:00000000 x10=00000001  # sub     a0, a1, a0
00000000 00000269 0006 800025d0  x11=00000006                            # csrr    a1, mhartid
00000000 00001846 0000 800025d8  x1:80002c70                             # ret
00000000 00000275 0008 80002c7c  x10:00000008                            # bnez    a0, pc + 24
00000000 00000271 0001 800025d8  x1:80002c70                             # ret
00000000 00000270 0006 800025d4  x11:00000006 x10:00000000 x10=00000006  # sub     a0, a1, a0
00000000 00001847 0000 80002c70  x2:0011ff58 RA:0011ff58 x5=00000001     # lw      t0, 0(sp)
00000000 00000276 0008 80002c94  x1:80002a38                             # ret
00000000 00000272 0001 80002c70  x2:0011fb50 RA:0011fb50 x5=00000000     # lw      t0, 0(sp)
00000000 00000271 0006 800025d8  x1:80002c70                             # ret
00000000 00001848 0000 80002c74  x2:0011ff58 RA:0011ff5c x1=80002a38     # lw      ra, 4(sp)
00000000 00000277 0008 80002a38                                          # wfi
00000000 00000273 0001 80002c74  x2:0011fb50 RA:0011fb54 x1=80002a38     # lw      ra, 4(sp)
00000000 00000272 0006 80002c70  x2:0011e728 RA:0011e728 x5=00000000     # lw      t0, 0(sp)
00000000 00001849 0000 80002c78  x2:0011ff58 x2=0011ff60                 # addi    sp, sp, 8
00000000 00000274 0001 80002c78  x2:0011fb50 x2=0011fb58                 # addi    sp, sp, 8
00000000 00000273 0006 80002c74  x2:0011e728 RA:0011e72c x1=80002a38     # lw      ra, 4(sp)
00000000 00001850 0000 80002c7c  x10:00000000                            # bnez    a0, pc + 24
00000000 00000275 0001 80002c7c  x10:00000001                            # bnez    a0, pc + 24
00000000 00000274 0006 80002c78  x2:0011e728 x2=0011e730                 # addi    sp, sp, 8
00000000 00001851 0000 80002c80  x5:00000001 x5=00000002                 # slli    t0, t0, 1
00000000 00000276 0001 80002c94  x1:80002a38                             # ret
00000000 00000275 0006 80002c7c  x10:00000006                            # bnez    a0, pc + 24
00000000 00001852 0000 80002c84  x5:00000002 x5=00000003                 # ori     t0, t0, 1
00000000 00000277 0001 80002a38                                          # wfi
00000000 00000276 0006 80002c94  x1:80002a38                             # ret
00000000 00001853 0000 80002c88  x6=01fffc88                             # auipc   t1, 0x81ffd
00000000 00000277 0006 80002a38                                          # wfi
00000000 00001854 0000 80002c8c  x6:01fffc88 x6=02000014                 # addi    t1, t1, 908
00000000 00001855 0000 80002c90  x6:02000014 x5:00000003 WA:02000014     # sw      t0, 0(t1)
00000000 00001856 0000 80002c94  x1:80002a38                             # ret
00000000 00001857 0000 80002a38                                          # wfi
