00000000 00000001 0002 80002740  x3=80003740                             # auipc   gp, 0x1
00000000 00000001 0000 80002740  x3=80003740                             # auipc   gp, 0x1
00000000 00000001 0001 80002740  x3=80003740                             # auipc   gp, 0x1
00000000 00000002 0002 80002744  x3:80003740 x3=800035d8                 # addi    gp, gp, -360
00000000 00000003 0002 80002748  x1=80002748                             # auipc   ra, 0x0
00000000 00000001 0005 80002740  x3=80003740                             # auipc   gp, 0x1
00000000 00000002 0005 80002744  x3:80003740 x3=800035d8                 # addi    gp, gp, -360
00000000 00000003 0005 80002748  x1=80002748                             # auipc   ra, 0x0
00000000 00000004 0005 8000274c  x1:80002748 x1=80002750                 # jalr    ra, ra, 964
00000000 00000002 0000 80002744  x3:80003740 x3=800035d8                 # addi    gp, gp, -360
00000000 00000004 0002 8000274c  x1:80002748 x1=80002750                 # jalr    ra, ra, 964
00000000 00000002 0001 80002744  x3:80003740 x3=800035d8                 # addi    gp, gp, -360
00000000 00000001 0003 80002740  x3=80003740                             # auipc   gp, 0x1
00000000 00000001 0007 80002740  x3=80003740                             # auipc   gp, 0x1
00000000 00000002 0007 80002744  x3:80003740 x3=800035d8                 # addi    gp, gp, -360
00000000 00000003 0007 80002748  x1=80002748                             # auipc   ra, 0x0
00000000 00000004 0007 8000274c  x1:80002748 x1=80002750                 # jalr    ra, ra, 964
00000000 00000005 0002 80002b0c  x11:01000000 x14=01000000               # mv      a4, a1
00000000 00000006 0002 80002b10  x14:01000000 RA:01000004 x11=00000009   # lw      a1, 4(a4)
00000000 00000007 0002 80002b14  x14:01000000 RA:01000008 x5=00000000    # lw      t0, 8(a4)
00000000 00000008 0002 80002b18  x14:01000000 RA:0100000c x12=00100000   # lw      a2, 12(a4)
00000000 00000009 0002 80002b1c  x14:01000000 RA:01000010 x6=00020000    # lw      t1, 16(a4)
00000000 00000010 0002 80002b20  x14:01000000 RA:01000014 x7=00000000    # lw      t2, 20(a4)
00000000 00000011 0002 80002b24  x10:00000002 x5:00000000 x10=00000002   # sub     a0, a0, t0
00000000 00000012 0002 80002b28  x10:00000002 x11:00000009 x28=00000000  # div     t3, a0, a1
00000000 00000013 0002 80002b2c  x28:00000000 x7:00000000 x29=00000000   # mul     t4, t3, t2
00000000 00000014 0002 80002b30  x12:00100000 x29:00000000 x12=00100000  # add     a2, a2, t4
00000000 00000003 0001 80002748  x1=80002748                             # auipc   ra, 0x0
00000000 00000001 0004 80002740  x3=80003740                             # auipc   gp, 0x1
00000000 00000004 0001 8000274c  x1:80002748 x1=80002750                 # jalr    ra, ra, 964
00000000 00000002 0004 80002744  x3:80003740 x3=800035d8                 # addi    gp, gp, -360
00000000 00000003 0004 80002748  x1=80002748                             # auipc   ra, 0x0
00000000 00000005 0005 80002b0c  x11:01000000 x14=01000000               # mv      a4, a1
00000000 00000001 0006 80002740  x3=80003740                             # auipc   gp, 0x1
00000000 00000006 0005 80002b10  x14:01000000 RA:01000004 x11=00000009   # lw      a1, 4(a4)
00000000 00000002 0006 80002744  x3:80003740 x3=800035d8                 # addi    gp, gp, -360
00000000 00000003 0006 80002748  x1=80002748                             # auipc   ra, 0x0
00000000 00000002 0003 80002744  x3:80003740 x3=800035d8                 # addi    gp, gp, -360
00000000 00000005 0001 80002b0c  x11:01000000 x14=01000000               # mv      a4, a1
00000000 00000004 0004 8000274c  x1:80002748 x1=80002750                 # jalr    ra, ra, 964
00000000 00000006 0001 80002b10  x14:01000000 RA:01000004 x11=00000009   # lw      a1, 4(a4)
00000000 00000003 0000 80002748  x1=80002748                             # auipc   ra, 0x0
00000000 00000001 0008 80002740  x3=80003740                             # auipc   gp, 0x1
00000000 00000005 0007 80002b0c  x11:01000000 x14=01000000               # mv      a4, a1
00000000 00000002 0008 80002744  x3:80003740 x3=800035d8                 # addi    gp, gp, -360
00000000 00000003 0008 80002748  x1=80002748                             # auipc   ra, 0x0
00000000 00000004 0008 8000274c  x1:80002748 x1=80002750                 # jalr    ra, ra, 964
00000000 00000005 0004 80002b0c  x11:01000000 x14=01000000               # mv      a4, a1
00000000 00000007 0001 80002b14  x14:01000000 RA:01000008 x5=00000000    # lw      t0, 8(a4)
00000000 00000004 0000 8000274c  x1:80002748 x1=80002750                 # jalr    ra, ra, 964
00000000 00000007 0005 80002b14  x14:01000000 RA:01000008 x5=00000000    # lw      t0, 8(a4)
00000000 00000005 0000 80002b0c  x11:01000000 x14=01000000               # mv      a4, a1
00000000 00000004 0006 8000274c  x1:80002748 x1=80002750                 # jalr    ra, ra, 964
00000000 00000006 0000 80002b10  x14:01000000 RA:01000004 x11=00000009   # lw      a1, 4(a4)
00000000 00000003 0003 80002748  x1=80002748                             # auipc   ra, 0x0
00000000 00000004 0003 8000274c  x1:80002748 x1=80002750                 # jalr    ra, ra, 964
00000000 00000006 0004 80002b10  x14:01000000 RA:01000004 x11=00000009   # lw      a1, 4(a4)
00000000 00000008 0001 80002b18  x14:01000000 RA:0100000c x12=00100000   # lw      a2, 12(a4)
00000000 00000015 0002 80002b34  x12:00100000 x6:00020000 x13=00120000   # add     a3, a2, t1
00000000 00000008 0005 80002b18  x14:01000000 RA:0100000c x12=00100000   # lw      a2, 12(a4)
00000000 00000006 0007 80002b10  x14:01000000 RA:01000004 x11=00000009   # lw      a1, 4(a4)
00000000 00000005 0006 80002b0c  x11:01000000 x14=01000000               # mv      a4, a1
00000000 00000007 0000 80002b14  x14:01000000 RA:01000008 x5=00000000    # lw      t0, 8(a4)
00000000 00000005 0008 80002b0c  x11:01000000 x14=01000000               # mv      a4, a1
00000000 00000005 0003 80002b0c  x11:01000000 x14=01000000               # mv      a4, a1
00000000 00000006 0008 80002b10  x14:01000000 RA:01000004 x11=00000009   # lw      a1, 4(a4)
00000000 00000007 0004 80002b14  x14:01000000 RA:01000008 x5=00000000    # lw      t0, 8(a4)
00000000 00000007 0008 80002b14  x14:01000000 RA:01000008 x5=00000000    # lw      t0, 8(a4)
00000000 00000016 0002 80002b38  x10:00000002 x11:00000009 x10=00000002  # remu    a0, a0, a1
00000000 00000007 0007 80002b14  x14:01000000 RA:01000008 x5=00000000    # lw      t0, 8(a4)
00000000 00000006 0006 80002b10  x14:01000000 RA:01000004 x11=00000009   # lw      a1, 4(a4)
00000000 00000008 0000 80002b18  x14:01000000 RA:0100000c x12=00100000   # lw      a2, 12(a4)
00000000 00000006 0003 80002b10  x14:01000000 RA:01000004 x11=00000009   # lw      a1, 4(a4)
00000000 00000009 0001 80002b1c  x14:01000000 RA:01000010 x6=00020000    # lw      t1, 16(a4)
00000000 00000008 0004 80002b18  x14:01000000 RA:0100000c x12=00100000   # lw      a2, 12(a4)
00000000 00000010 0001 80002b20  x14:01000000 RA:01000014 x7=00000000    # lw      t2, 20(a4)
00000000 00000009 0005 80002b1c  x14:01000000 RA:01000010 x6=00020000    # lw      t1, 16(a4)
00000000 00000011 0001 80002b24  x10:00000001 x5:00000000 x10=00000001   # sub     a0, a0, t0
00000000 00000008 0008 80002b18  x14:01000000 RA:0100000c x12=00100000   # lw      a2, 12(a4)
00000000 00000017 0002 80002b3c  x1:80002750                             # ret
00000000 00000009 0008 80002b1c  x14:01000000 RA:01000010 x6=00020000    # lw      t1, 16(a4)
00000000 00000007 0006 80002b14  x14:01000000 RA:01000008 x5=00000000    # lw      t0, 8(a4)
00000000 00000007 0003 80002b14  x14:01000000 RA:01000008 x5=00000000    # lw      t0, 8(a4)
00000000 00000009 0004 80002b1c  x14:01000000 RA:01000010 x6=00020000    # lw      t1, 16(a4)
00000000 00000010 0004 80002b20  x14:01000000 RA:01000014 x7=00000000    # lw      t2, 20(a4)
00000000 00000011 0004 80002b24  x10:00000004 x5:00000000 x10=00000004   # sub     a0, a0, t0
00000000 00000008 0007 80002b18  x14:01000000 RA:0100000c x12=00100000   # lw      a2, 12(a4)
00000000 00000018 0002 80002750  x10:00000002 x8=00000002                # mv      s0, a0
00000000 00000019 0002 80002754  x14:01000000 x10=01000000               # mv      a0, a4
00000000 00000010 0008 80002b20  x14:01000000 RA:01000014 x7=00000000    # lw      t2, 20(a4)
00000000 00000011 0008 80002b24  x10:00000008 x5:00000000 x10=00000008   # sub     a0, a0, t0
00000000 00000008 0003 80002b18  x14:01000000 RA:0100000c x12=00100000   # lw      a2, 12(a4)
00000000 00000010 0005 80002b20  x14:01000000 RA:01000014 x7=00000000    # lw      t2, 20(a4)
00000000 00000012 0001 80002b28  x10:00000001 x11:00000009 x28=00000000  # div     t3, a0, a1
00000000 00000012 0004 80002b28  x10:00000004 x11:00000009 x28=00000000  # div     t3, a0, a1
00000000 00000013 0004 80002b2c  x28:00000000 x7:00000000 x29=00000000   # mul     t4, t3, t2
00000000 00000014 0004 80002b30  x12:00100000 x29:00000000 x12=00100000  # add     a2, a2, t4
00000000 00000015 0004 80002b34  x12:00100000 x6:00020000 x13=00120000   # add     a3, a2, t1
00000000 00000016 0004 80002b38  x10:00000004 x11:00000009 x10=00000004  # remu    a0, a0, a1
00000000 00000012 0008 80002b28  x10:00000008 x11:00000009 x28=00000000  # div     t3, a0, a1
00000000 00000009 0003 80002b1c  x14:01000000 RA:01000010 x6=00020000    # lw      t1, 16(a4)
00000000 00000010 0003 80002b20  x14:01000000 RA:01000014 x7=00000000    # lw      t2, 20(a4)
00000000 00000011 0003 80002b24  x10:00000003 x5:00000000 x10=00000003   # sub     a0, a0, t0
00000000 00000013 0001 80002b2c  x28:00000000 x7:00000000 x29=00000000   # mul     t4, t3, t2
00000000 00000009 0007 80002b1c  x14:01000000 RA:01000010 x6=00020000    # lw      t1, 16(a4)
00000000 00000009 0000 80002b1c  x14:01000000 RA:01000010 x6=00020000    # lw      t1, 16(a4)
00000000 00000020 0002 80002758  x1=80002758                             # auipc   ra, 0x0
00000000 00000010 0000 80002b20  x14:01000000 RA:01000014 x7=00000000    # lw      t2, 20(a4)
00000000 00000017 0004 80002b3c  x1:80002750                             # ret
00000000 00000013 0008 80002b2c  x28:00000000 x7:00000000 x29=00000000   # mul     t4, t3, t2
00000000 00000014 0008 80002b30  x12:00100000 x29:00000000 x12=00100000  # add     a2, a2, t4
00000000 00000012 0003 80002b28  x10:00000003 x11:00000009 x28=00000000  # div     t3, a0, a1
00000000 00000013 0003 80002b2c  x28:00000000 x7:00000000 x29=00000000   # mul     t4, t3, t2
00000000 00000014 0003 80002b30  x12:00100000 x29:00000000 x12=00100000  # add     a2, a2, t4
00000000 00000021 0002 8000275c  x1:80002758 x1=80002760                 # jalr    ra, ra, 1036
00000000 00000008 0006 80002b18  x14:01000000 RA:0100000c x12=00100000   # lw      a2, 12(a4)
00000000 00000009 0006 80002b1c  x14:01000000 RA:01000010 x6=00020000    # lw      t1, 16(a4)
00000000 00000010 0006 80002b20  x14:01000000 RA:01000014 x7=00000000    # lw      t2, 20(a4)
00000000 00000011 0005 80002b24  x10:00000005 x5:00000000 x10=00000005   # sub     a0, a0, t0
00000000 00000015 0008 80002b34  x12:00100000 x6:00020000 x13=00120000   # add     a3, a2, t1
00000000 00000016 0008 80002b38  x10:00000008 x11:00000009 x10=00000008  # remu    a0, a0, a1
00000000 00000017 0008 80002b3c  x1:80002750                             # ret
00000000 00000015 0003 80002b34  x12:00100000 x6:00020000 x13=00120000   # add     a3, a2, t1
00000000 00000022 0002 80002b64  x10:01000000 RA:01000008 x10=00000000   # lw      a0, 8(a0)
00000000 00000023 0002 80002b68  x1:80002760                             # ret
00000000 00000018 0004 80002750  x10:00000004 x8=00000004                # mv      s0, a0
00000000 00000019 0004 80002754  x14:01000000 x10=01000000               # mv      a0, a4
00000000 00000020 0004 80002758  x1=80002758                             # auipc   ra, 0x0
00000000 00000021 0004 8000275c  x1:80002758 x1=80002760                 # jalr    ra, ra, 1036
00000000 00000010 0007 80002b20  x14:01000000 RA:01000014 x7=00000000    # lw      t2, 20(a4)
00000000 00000018 0008 80002750  x10:00000008 x8=00000008                # mv      s0, a0
00000000 00000016 0003 80002b38  x10:00000003 x11:00000009 x10=00000003  # remu    a0, a0, a1
00000000 00000017 0003 80002b3c  x1:80002750                             # ret
00000000 00000024 0002 80002760  x10:00000000 x5=00000000                # mv      t0, a0
00000000 00000011 0006 80002b24  x10:00000006 x5:00000000 x10=00000006   # sub     a0, a0, t0
00000000 00000012 0005 80002b28  x10:00000005 x11:00000009 x28=00000000  # div     t3, a0, a1
00000000 00000014 0001 80002b30  x12:00100000 x29:00000000 x12=00100000  # add     a2, a2, t4
00000000 00000022 0004 80002b64  x10:01000000 RA:01000008 x10=00000000   # lw      a0, 8(a0)
00000000 00000011 0007 80002b24  x10:00000007 x5:00000000 x10=00000007   # sub     a0, a0, t0
00000000 00000019 0008 80002754  x14:01000000 x10=01000000               # mv      a0, a4
00000000 00000020 0008 80002758  x1=80002758                             # auipc   ra, 0x0
00000000 00000018 0003 80002750  x10:00000003 x8=00000003                # mv      s0, a0
00000000 00000025 0002 80002764  x8:00000002 x10=00000002                # mv      a0, s0
00000000 00000026 0002 80002768  x6=00000002                             # csrr    t1, mhartid
00000000 00000013 0005 80002b2c  x28:00000000 x7:00000000 x29=00000000   # mul     t4, t3, t2
00000000 00000015 0001 80002b34  x12:00100000 x6:00020000 x13=00120000   # add     a3, a2, t1
00000000 00000023 0004 80002b68  x1:80002760                             # ret
00000000 00000012 0007 80002b28  x10:00000007 x11:00000009 x28=00000000  # div     t3, a0, a1
00000000 00000013 0007 80002b2c  x28:00000000 x7:00000000 x29=00000000   # mul     t4, t3, t2
00000000 00000014 0007 80002b30  x12:00100000 x29:00000000 x12=00100000  # add     a2, a2, t4
00000000 00000015 0007 80002b34  x12:00100000 x6:00020000 x13=00120000   # add     a3, a2, t1
00000000 00000016 0007 80002b38  x10:00000007 x11:00000009 x10=00000007  # remu    a0, a0, a1
00000000 00000017 0007 80002b3c  x1:80002750                             # ret
00000000 00000014 0005 80002b30  x12:00100000 x29:00000000 x12=00100000  # add     a2, a2, t4
00000000 00000016 0001 80002b38  x10:00000001 x11:00000009 x10=00000001  # remu    a0, a0, a1
00000000 00000017 0001 80002b3c  x1:80002750                             # ret
00000000 00000018 0001 80002750  x10:00000001 x8=00000001                # mv      s0, a0
00000000 00000019 0001 80002754  x14:01000000 x10=01000000               # mv      a0, a4
00000000 00000020 0001 80002758  x1=80002758                             # auipc   ra, 0x0
00000000 00000021 0001 8000275c  x1:80002758 x1=80002760                 # jalr    ra, ra, 1036
00000000 00000027 0002 8000276c  x6:00000002 x5:00000000 x5=00000002     # sub     t0, t1, t0
00000000 00000018 0007 80002750  x10:00000007 x8=00000007                # mv      s0, a0
00000000 00000015 0005 80002b34  x12:00100000 x6:00020000 x13=00120000   # add     a3, a2, t1
00000000 00000024 0004 80002760  x10:00000000 x5=00000000                # mv      t0, a0
00000000 00000025 0004 80002764  x8:00000004 x10=00000004                # mv      a0, s0
00000000 00000026 0004 80002768  x6=00000004                             # csrr    t1, mhartid
00000000 00000019 0003 80002754  x14:01000000 x10=01000000               # mv      a0, a4
00000000 00000012 0006 80002b28  x10:00000006 x11:00000009 x28=00000000  # div     t3, a0, a1
00000000 00000022 0001 80002b64  x10:01000000 RA:01000008 x10=00000000   # lw      a0, 8(a0)
00000000 00000028 0002 80002770  x5:00000002                             # bnez    t0, pc + 36
00000000 00000019 0007 80002754  x14:01000000 x10=01000000               # mv      a0, a4
00000000 00000016 0005 80002b38  x10:00000005 x11:00000009 x10=00000005  # remu    a0, a0, a1
00000000 00000017 0005 80002b3c  x1:80002750                             # ret
00000000 00000018 0005 80002750  x10:00000005 x8=00000005                # mv      s0, a0
00000000 00000019 0005 80002754  x14:01000000 x10=01000000               # mv      a0, a4
00000000 00000020 0005 80002758  x1=80002758                             # auipc   ra, 0x0
00000000 00000021 0005 8000275c  x1:80002758 x1=80002760                 # jalr    ra, ra, 1036
00000000 00000023 0001 80002b68  x1:80002760                             # ret
00000000 00000029 0002 80002794  x5=40801129                             # csrr    t0, misa
00000000 00000020 0007 80002758  x1=80002758                             # auipc   ra, 0x0
00000000 00000021 0007 8000275c  x1:80002758 x1=80002760                 # jalr    ra, ra, 1036
00000000 00000021 0008 8000275c  x1:80002758 x1=80002760                 # jalr    ra, ra, 1036
00000000 00000027 0004 8000276c  x6:00000004 x5:00000000 x5=00000004     # sub     t0, t1, t0
00000000 00000020 0003 80002758  x1=80002758                             # auipc   ra, 0x0
00000000 00000013 0006 80002b2c  x28:00000000 x7:00000000 x29=00000000   # mul     t4, t3, t2
00000000 00000022 0005 80002b64  x10:01000000 RA:01000008 x10=00000000   # lw      a0, 8(a0)
00000000 00000024 0001 80002760  x10:00000000 x5=00000000                # mv      t0, a0
00000000 00000030 0002 80002798  x5:40801129 x5=00000028                 # andi    t0, t0, 40
00000000 00000031 0002 8000279c  x5:00000028                             # beqz    t0, pc + 132
00000000 00000022 0007 80002b64  x10:01000000 RA:01000008 x10=00000000   # lw      a0, 8(a0)
00000000 00000023 0007 80002b68  x1:80002760                             # ret
00000000 00000024 0007 80002760  x10:00000000 x5=00000000                # mv      t0, a0
00000000 00000025 0007 80002764  x8:00000007 x10=00000007                # mv      a0, s0
00000000 00000026 0007 80002768  x6=00000007                             # csrr    t1, mhartid
00000000 00000023 0005 80002b68  x1:80002760                             # ret
00000000 00000025 0001 80002764  x8:00000001 x10=00000001                # mv      a0, s0
00000000 00000026 0001 80002768  x6=00000001                             # csrr    t1, mhartid
00000000 00000027 0001 8000276c  x6:00000001 x5:00000000 x5=00000001     # sub     t0, t1, t0
00000000 00000028 0001 80002770  x5:00000001                             # bnez    t0, pc + 36
00000000 00000029 0001 80002794  x5=40801129                             # csrr    t0, misa
00000000 00000030 0001 80002798  x5:40801129 x5=00000028                 # andi    t0, t0, 40
00000000 00000031 0001 8000279c  x5:00000028                             # beqz    t0, pc + 132
00000000 00000027 0007 8000276c  x6:00000007 x5:00000000 x5=00000007     # sub     t0, t1, t0
00000000 00000024 0005 80002760  x10:00000000 x5=00000000                # mv      t0, a0
00000000 00000011 0000 80002b24  x10:00000000 x5:00000000 x10=00000000   # sub     a0, a0, t0
00000000 00000032 0002 800027a0  f00=        0.000000                    # fcvt.d.w ft0, zero
00000000 00000022 0008 80002b64  x10:01000000 RA:01000008 x10=00000000   # lw      a0, 8(a0)
00000000 00000028 0004 80002770  x5:00000004                             # bnez    t0, pc + 36
00000000 00000021 0003 8000275c  x1:80002758 x1=80002760                 # jalr    ra, ra, 1036
00000000 00000014 0006 80002b30  x12:00100000 x29:00000000 x12=00100000  # add     a2, a2, t4
00000000 00000032 0001 800027a0  f00=        0.000000                    # fcvt.d.w ft0, zero
00000000 00000028 0007 80002770  x5:00000007                             # bnez    t0, pc + 36
00000000 00000029 0007 80002794  x5=40801129                             # csrr    t0, misa
00000000 00000030 0007 80002798  x5:40801129 x5=00000028                 # andi    t0, t0, 40
00000000 00000031 0007 8000279c  x5:00000028                             # beqz    t0, pc + 132
00000000 00000032 0007 800027a0  f00=        0.000000                    # fcvt.d.w ft0, zero
00000000 00000033 0007 800027a4  f01=        0.000000                    # fcvt.d.w ft1, zero
00000000 00000022 0003 80002b64  x10:01000000 RA:01000008 x10=00000000   # lw      a0, 8(a0)
00000000 00000015 0006 80002b34  x12:00100000 x6:00020000 x13=00120000   # add     a3, a2, t1
00000000 00000033 0001 800027a4  f01=        0.000000                    # fcvt.d.w ft1, zero
00000000 00000025 0005 80002764  x8:00000005 x10=00000005                # mv      a0, s0
00000000 00000026 0005 80002768  x6=00000005                             # csrr    t1, mhartid
00000000 00000027 0005 8000276c  x6:00000005 x5:00000000 x5=00000005     # sub     t0, t1, t0
00000000 00000023 0008 80002b68  x1:80002760                             # ret
00000000 00000029 0004 80002794  x5=40801129                             # csrr    t0, misa
00000000 00000034 0007 800027a8  f02=        0.000000                    # fcvt.d.w ft2, zero
00000000 00000023 0003 80002b68  x1:80002760                             # ret
00000000 00000016 0006 80002b38  x10:00000006 x11:00000009 x10=00000006  # remu    a0, a0, a1
00000000 00000017 0006 80002b3c  x1:80002750                             # ret
00000000 00000018 0006 80002750  x10:00000006 x8=00000006                # mv      s0, a0
00000000 00000033 0002 800027a4  f01=        0.000000                    # fcvt.d.w ft1, zero
00000000 00000028 0005 80002770  x5:00000005                             # bnez    t0, pc + 36
00000000 00000029 0005 80002794  x5=40801129                             # csrr    t0, misa
00000000 00000030 0005 80002798  x5:40801129 x5=00000028                 # andi    t0, t0, 40
00000000 00000031 0005 8000279c  x5:00000028                             # beqz    t0, pc + 132
00000000 00000032 0005 800027a0  f00=        0.000000                    # fcvt.d.w ft0, zero
00000000 00000034 0001 800027a8  f02=        0.000000                    # fcvt.d.w ft2, zero
00000000 00000012 0000 80002b28  x10:00000000 x11:00000009 x28=00000000  # div     t3, a0, a1
00000000 00000019 0006 80002754  x14:01000000 x10=01000000               # mv      a0, a4
00000000 00000034 0002 800027a8  f02=        0.000000                    # fcvt.d.w ft2, zero
00000000 00000024 0008 80002760  x10:00000000 x5=00000000                # mv      t0, a0
00000000 00000030 0004 80002798  x5:40801129 x5=00000028                 # andi    t0, t0, 40
00000000 00000035 0007 800027ac  f03=        0.000000                    # fcvt.d.w ft3, zero
00000000 00000024 0003 80002760  x10:00000000 x5=00000000                # mv      t0, a0
00000000 00000025 0003 80002764  x8:00000003 x10=00000003                # mv      a0, s0
00000000 00000026 0003 80002768  x6=00000003                             # csrr    t1, mhartid
00000000 00000027 0003 8000276c  x6:00000003 x5:00000000 x5=00000003     # sub     t0, t1, t0
00000000 00000028 0003 80002770  x5:00000003                             # bnez    t0, pc + 36
00000000 00000029 0003 80002794  x5=40801129                             # csrr    t0, misa
00000000 00000025 0008 80002764  x8:00000008 x10=00000008                # mv      a0, s0
00000000 00000031 0004 8000279c  x5:00000028                             # beqz    t0, pc + 132
00000000 00000036 0007 800027b0  f04=        0.000000                    # fcvt.d.w ft4, zero
00000000 00000033 0005 800027a4  f01=        0.000000                    # fcvt.d.w ft1, zero
00000000 00000035 0001 800027ac  f03=        0.000000                    # fcvt.d.w ft3, zero
00000000 00000036 0001 800027b0  f04=        0.000000                    # fcvt.d.w ft4, zero
00000000 00000037 0001 800027b4  f05=        0.000000                    # fcvt.d.w ft5, zero
00000000 00000038 0001 800027b8  f06=        0.000000                    # fcvt.d.w ft6, zero
00000000 00000039 0001 800027bc  f07=        0.000000                    # fcvt.d.w ft7, zero
00000000 00000040 0001 800027c0  f08=        0.000000                    # fcvt.d.w fs0, zero
00000000 00000041 0001 800027c4  f09=        0.000000                    # fcvt.d.w fs1, zero
00000000 00000042 0001 800027c8  f10=        0.000000                    # fcvt.d.w fa0, zero
00000000 00000034 0005 800027a8  f02=        0.000000                    # fcvt.d.w ft2, zero
00000000 00000013 0000 80002b2c  x28:00000000 x7:00000000 x29=00000000   # mul     t4, t3, t2
00000000 00000020 0006 80002758  x1=80002758                             # auipc   ra, 0x0
00000000 00000014 0000 80002b30  x12:00100000 x29:00000000 x12=00100000  # add     a2, a2, t4
00000000 00000021 0006 8000275c  x1:80002758 x1=80002760                 # jalr    ra, ra, 1036
00000000 00000030 0003 80002798  x5:40801129 x5=00000028                 # andi    t0, t0, 40
00000000 00000026 0008 80002768  x6=00000008                             # csrr    t1, mhartid
00000000 00000032 0004 800027a0  f00=        0.000000                    # fcvt.d.w ft0, zero
00000000 00000037 0007 800027b4  f05=        0.000000                    # fcvt.d.w ft5, zero
00000000 00000043 0001 800027cc  f11=        0.000000                    # fcvt.d.w fa1, zero
00000000 00000035 0005 800027ac  f03=        0.000000                    # fcvt.d.w ft3, zero
00000000 00000036 0005 800027b0  f04=        0.000000                    # fcvt.d.w ft4, zero
00000000 00000037 0005 800027b4  f05=        0.000000                    # fcvt.d.w ft5, zero
00000000 00000038 0005 800027b8  f06=        0.000000                    # fcvt.d.w ft6, zero
00000000 00000039 0005 800027bc  f07=        0.000000                    # fcvt.d.w ft7, zero
00000000 00000040 0005 800027c0  f08=        0.000000                    # fcvt.d.w fs0, zero
00000000 00000041 0005 800027c4  f09=        0.000000                    # fcvt.d.w fs1, zero
00000000 00000042 0005 800027c8  f10=        0.000000                    # fcvt.d.w fa0, zero
00000000 00000044 0001 800027d0  f12=        0.000000                    # fcvt.d.w fa2, zero
00000000 00000035 0002 800027ac  f03=        0.000000                    # fcvt.d.w ft3, zero
00000000 00000036 0002 800027b0  f04=        0.000000                    # fcvt.d.w ft4, zero
00000000 00000022 0006 80002b64  x10:01000000 RA:01000008 x10=00000000   # lw      a0, 8(a0)
00000000 00000031 0003 8000279c  x5:00000028                             # beqz    t0, pc + 132
00000000 00000027 0008 8000276c  x6:00000008 x5:00000000 x5=00000008     # sub     t0, t1, t0
00000000 00000033 0004 800027a4  f01=        0.000000                    # fcvt.d.w ft1, zero
00000000 00000038 0007 800027b8  f06=        0.000000                    # fcvt.d.w ft6, zero
00000000 00000043 0005 800027cc  f11=        0.000000                    # fcvt.d.w fa1, zero
00000000 00000045 0001 800027d4  f13=        0.000000                    # fcvt.d.w fa3, zero
00000000 00000046 0001 800027d8  f14=        0.000000                    # fcvt.d.w fa4, zero
00000000 00000047 0001 800027dc  f15=        0.000000                    # fcvt.d.w fa5, zero
00000000 00000048 0001 800027e0  f16=        0.000000                    # fcvt.d.w fa6, zero
00000000 00000049 0001 800027e4  f17=        0.000000                    # fcvt.d.w fa7, zero
00000000 00000050 0001 800027e8  f18=        0.000000                    # fcvt.d.w fs2, zero
00000000 00000051 0001 800027ec  f19=        0.000000                    # fcvt.d.w fs3, zero
00000000 00000052 0001 800027f0  f20=        0.000000                    # fcvt.d.w fs4, zero
00000000 00000044 0005 800027d0  f12=        0.000000                    # fcvt.d.w fa2, zero
00000000 00000045 0005 800027d4  f13=        0.000000                    # fcvt.d.w fa3, zero
00000000 00000046 0005 800027d8  f14=        0.000000                    # fcvt.d.w fa4, zero
00000000 00000047 0005 800027dc  f15=        0.000000                    # fcvt.d.w fa5, zero
00000000 00000048 0005 800027e0  f16=        0.000000                    # fcvt.d.w fa6, zero
00000000 00000049 0005 800027e4  f17=        0.000000                    # fcvt.d.w fa7, zero
00000000 00000050 0005 800027e8  f18=        0.000000                    # fcvt.d.w fs2, zero
00000000 00000051 0005 800027ec  f19=        0.000000                    # fcvt.d.w fs3, zero
00000000 00000052 0005 800027f0  f20=        0.000000                    # fcvt.d.w fs4, zero
00000000 00000053 0005 800027f4  f21=        0.000000                    # fcvt.d.w fs5, zero
00000000 00000054 0005 800027f8  f22=        0.000000                    # fcvt.d.w fs6, zero
00000000 00000055 0005 800027fc  f23=        0.000000                    # fcvt.d.w fs7, zero
00000000 00000056 0005 80002800  f24=        0.000000                    # fcvt.d.w fs8, zero
00000000 00000057 0005 80002804  f25=        0.000000                    # fcvt.d.w fs9, zero
00000000 00000058 0005 80002808  f26=        0.000000                    # fcvt.d.w fs10, zero
00000000 00000059 0005 8000280c  f27=        0.000000                    # fcvt.d.w fs11, zero
00000000 00000053 0001 800027f4  f21=        0.000000                    # fcvt.d.w fs5, zero
00000000 00000054 0001 800027f8  f22=        0.000000                    # fcvt.d.w fs6, zero
00000000 00000055 0001 800027fc  f23=        0.000000                    # fcvt.d.w fs7, zero
00000000 00000056 0001 80002800  f24=        0.000000                    # fcvt.d.w fs8, zero
00000000 00000057 0001 80002804  f25=        0.000000                    # fcvt.d.w fs9, zero
00000000 00000058 0001 80002808  f26=        0.000000                    # fcvt.d.w fs10, zero
00000000 00000059 0001 8000280c  f27=        0.000000                    # fcvt.d.w fs11, zero
00000000 00000060 0001 80002810  f28=        0.000000                    # fcvt.d.w ft8, zero
00000000 00000061 0001 80002814  f29=        0.000000                    # fcvt.d.w ft9, zero
00000000 00000062 0001 80002818  f30=        0.000000                    # fcvt.d.w ft10, zero
00000000 00000063 0001 8000281c  f31=        0.000000                    # fcvt.d.w ft11, zero
00000000 00000023 0006 80002b68  x1:80002760                             # ret
00000000 00000032 0003 800027a0  f00=        0.000000                    # fcvt.d.w ft0, zero
00000000 00000028 0008 80002770  x5:00000008                             # bnez    t0, pc + 36
00000000 00000034 0004 800027a8  f02=        0.000000                    # fcvt.d.w ft2, zero
00000000 00000039 0007 800027bc  f07=        0.000000                    # fcvt.d.w ft7, zero
00000000 00000060 0005 80002810  f28=        0.000000                    # fcvt.d.w ft8, zero
00000000 00000061 0005 80002814  f29=        0.000000                    # fcvt.d.w ft9, zero
00000000 00000062 0005 80002818  f30=        0.000000                    # fcvt.d.w ft10, zero
00000000 00000064 0001 80002820  x13:00120000 x13=0011fff8               # addi    a3, a3, -8
00000000 00000024 0006 80002760  x10:00000000 x5=00000000                # mv      t0, a0
00000000 00000033 0003 800027a4  f01=        0.000000                    # fcvt.d.w ft1, zero
00000000 00000029 0008 80002794  x5=40801129                             # csrr    t0, misa
00000000 00000035 0004 800027ac  f03=        0.000000                    # fcvt.d.w ft3, zero
00000000 00000040 0007 800027c0  f08=        0.000000                    # fcvt.d.w fs0, zero
00000000 00000041 0007 800027c4  f09=        0.000000                    # fcvt.d.w fs1, zero
00000000 00000037 0002 800027b4  f05=        0.000000                    # fcvt.d.w ft5, zero
00000000 00000038 0002 800027b8  f06=        0.000000                    # fcvt.d.w ft6, zero
00000000 00000039 0002 800027bc  f07=        0.000000                    # fcvt.d.w ft7, zero
00000000 00000040 0002 800027c0  f08=        0.000000                    # fcvt.d.w fs0, zero
00000000 00000041 0002 800027c4  f09=        0.000000                    # fcvt.d.w fs1, zero
00000000 00000030 0008 80002798  x5:40801129 x5=00000028                 # andi    t0, t0, 40
00000000 00000036 0004 800027b0  f04=        0.000000                    # fcvt.d.w ft4, zero
00000000 00000037 0004 800027b4  f05=        0.000000                    # fcvt.d.w ft5, zero
00000000 00000038 0004 800027b8  f06=        0.000000                    # fcvt.d.w ft6, zero
00000000 00000039 0004 800027bc  f07=        0.000000                    # fcvt.d.w ft7, zero
00000000 00000040 0004 800027c0  f08=        0.000000                    # fcvt.d.w fs0, zero
00000000 00000025 0006 80002764  x8:00000006 x10=00000006                # mv      a0, s0
00000000 00000026 0006 80002768  x6=00000006                             # csrr    t1, mhartid
00000000 00000042 0002 800027c8  f10=        0.000000                    # fcvt.d.w fa0, zero
00000000 00000031 0008 8000279c  x5:00000028                             # beqz    t0, pc + 132
00000000 00000043 0002 800027cc  f11=        0.000000                    # fcvt.d.w fa1, zero
00000000 00000032 0008 800027a0  f00=        0.000000                    # fcvt.d.w ft0, zero
00000000 00000042 0007 800027c8  f10=        0.000000                    # fcvt.d.w fa0, zero
00000000 00000065 0001 80002824  x13:0011fff8 WA:0011fff8                # sw      zero, 0(a3)
00000000 00000041 0004 800027c4  f09=        0.000000                    # fcvt.d.w fs1, zero
00000000 00000042 0004 800027c8  f10=        0.000000                    # fcvt.d.w fa0, zero
00000000 00000027 0006 8000276c  x6:00000006 x5:00000000 x5=00000006     # sub     t0, t1, t0
00000000 00000028 0006 80002770  x5:00000006                             # bnez    t0, pc + 36
00000000 00000029 0006 80002794  x5=40801129                             # csrr    t0, misa
00000000 00000030 0006 80002798  x5:40801129 x5=00000028                 # andi    t0, t0, 40
00000000 00000031 0006 8000279c  x5:00000028                             # beqz    t0, pc + 132
00000000 00000032 0006 800027a0  f00=        0.000000                    # fcvt.d.w ft0, zero
00000000 00000033 0006 800027a4  f01=        0.000000                    # fcvt.d.w ft1, zero
00000000 00000034 0006 800027a8  f02=        0.000000                    # fcvt.d.w ft2, zero
00000000 00000035 0006 800027ac  f03=        0.000000                    # fcvt.d.w ft3, zero
00000000 00000036 0006 800027b0  f04=        0.000000                    # fcvt.d.w ft4, zero
00000000 00000044 0002 800027d0  f12=        0.000000                    # fcvt.d.w fa2, zero
00000000 00000033 0008 800027a4  f01=        0.000000                    # fcvt.d.w ft1, zero
00000000 00000063 0005 8000281c  f31=        0.000000                    # fcvt.d.w ft11, zero
00000000 00000043 0007 800027cc  f11=        0.000000                    # fcvt.d.w fa1, zero
00000000 00000066 0001 80002828  x5=80002828                             # auipc   t0, 0x0
00000000 00000034 0003 800027a8  f02=        0.000000                    # fcvt.d.w ft2, zero
00000000 00000043 0004 800027cc  f11=        0.000000                    # fcvt.d.w fa1, zero
00000000 00000044 0004 800027d0  f12=        0.000000                    # fcvt.d.w fa2, zero
00000000 00000037 0006 800027b4  f05=        0.000000                    # fcvt.d.w ft5, zero
00000000 00000045 0002 800027d4  f13=        0.000000                    # fcvt.d.w fa3, zero
00000000 00000046 0002 800027d8  f14=        0.000000                    # fcvt.d.w fa4, zero
00000000 00000047 0002 800027dc  f15=        0.000000                    # fcvt.d.w fa5, zero
00000000 00000048 0002 800027e0  f16=        0.000000                    # fcvt.d.w fa6, zero
00000000 00000049 0002 800027e4  f17=        0.000000                    # fcvt.d.w fa7, zero
00000000 00000050 0002 800027e8  f18=        0.000000                    # fcvt.d.w fs2, zero
00000000 00000051 0002 800027ec  f19=        0.000000                    # fcvt.d.w fs3, zero
00000000 00000052 0002 800027f0  f20=        0.000000                    # fcvt.d.w fs4, zero
00000000 00000053 0002 800027f4  f21=        0.000000                    # fcvt.d.w fs5, zero
00000000 00000054 0002 800027f8  f22=        0.000000                    # fcvt.d.w fs6, zero
00000000 00000055 0002 800027fc  f23=        0.000000                    # fcvt.d.w fs7, zero
00000000 00000056 0002 80002800  f24=        0.000000                    # fcvt.d.w fs8, zero
00000000 00000057 0002 80002804  f25=        0.000000                    # fcvt.d.w fs9, zero
00000000 00000058 0002 80002808  f26=        0.000000                    # fcvt.d.w fs10, zero
00000000 00000059 0002 8000280c  f27=        0.000000                    # fcvt.d.w fs11, zero
00000000 00000060 0002 80002810  f28=        0.000000                    # fcvt.d.w ft8, zero
00000000 00000038 0006 800027b8  f06=        0.000000                    # fcvt.d.w ft6, zero
00000000 00000034 0008 800027a8  f02=        0.000000                    # fcvt.d.w ft2, zero
00000000 00000064 0005 80002820  x13:00120000 x13=0011fff8               # addi    a3, a3, -8
00000000 00000044 0007 800027d0  f12=        0.000000                    # fcvt.d.w fa2, zero
00000000 00000045 0007 800027d4  f13=        0.000000                    # fcvt.d.w fa3, zero
00000000 00000046 0007 800027d8  f14=        0.000000                    # fcvt.d.w fa4, zero
00000000 00000047 0007 800027dc  f15=        0.000000                    # fcvt.d.w fa5, zero
00000000 00000048 0007 800027e0  f16=        0.000000                    # fcvt.d.w fa6, zero
00000000 00000061 0002 80002814  f29=        0.000000                    # fcvt.d.w ft9, zero
00000000 00000039 0006 800027bc  f07=        0.000000                    # fcvt.d.w ft7, zero
00000000 00000035 0008 800027ac  f03=        0.000000                    # fcvt.d.w ft3, zero
00000000 00000065 0005 80002824  x13:0011fff8 WA:0011fff8                # sw      zero, 0(a3)
00000000 00000067 0001 8000282c  x5:80002828 RA:80002ba8 x5=00000088     # lw      t0, 896(t0)
00000000 00000035 0003 800027ac  f03=        0.000000                    # fcvt.d.w ft3, zero
00000000 00000036 0003 800027b0  f04=        0.000000                    # fcvt.d.w ft4, zero
00000000 00000037 0003 800027b4  f05=        0.000000                    # fcvt.d.w ft5, zero
00000000 00000038 0003 800027b8  f06=        0.000000                    # fcvt.d.w ft6, zero
00000000 00000039 0003 800027bc  f07=        0.000000                    # fcvt.d.w ft7, zero
00000000 00000040 0003 800027c0  f08=        0.000000                    # fcvt.d.w fs0, zero
00000000 00000041 0003 800027c4  f09=        0.000000                    # fcvt.d.w fs1, zero
00000000 00000042 0003 800027c8  f10=        0.000000                    # fcvt.d.w fa0, zero
00000000 00000068 0001 80002830  x13:0011fff8 x5:00000088 x13=0011ff70   # sub     a3, a3, t0
00000000 00000069 0001 80002834  x13:0011ff70 x15=0011ff70               # mv      a5, a3
00000000 00000070 0001 80002838  x7=80002838                             # auipc   t2, 0x0
00000000 00000049 0007 800027e4  f17=        0.000000                    # fcvt.d.w fa7, zero
00000000 00000062 0002 80002818  f30=        0.000000                    # fcvt.d.w ft10, zero
00000000 00000040 0006 800027c0  f08=        0.000000                    # fcvt.d.w fs0, zero
00000000 00000041 0006 800027c4  f09=        0.000000                    # fcvt.d.w fs1, zero
00000000 00000042 0006 800027c8  f10=        0.000000                    # fcvt.d.w fa0, zero
00000000 00000043 0003 800027cc  f11=        0.000000                    # fcvt.d.w fa1, zero
00000000 00000044 0003 800027d0  f12=        0.000000                    # fcvt.d.w fa2, zero
00000000 00000045 0003 800027d4  f13=        0.000000                    # fcvt.d.w fa3, zero
00000000 00000071 0001 8000283c  x7:80002838 RA:80002bac x7=0000000a     # lw      t2, 884(t2)
00000000 00000050 0007 800027e8  f18=        0.000000                    # fcvt.d.w fs2, zero
00000000 00000063 0002 8000281c  f31=        0.000000                    # fcvt.d.w ft11, zero
00000000 00000036 0008 800027b0  f04=        0.000000                    # fcvt.d.w ft4, zero
00000000 00000066 0005 80002828  x5=80002828                             # auipc   t0, 0x0
00000000 00000043 0006 800027cc  f11=        0.000000                    # fcvt.d.w fa1, zero
00000000 00000044 0006 800027d0  f12=        0.000000                    # fcvt.d.w fa2, zero
00000000 00000045 0004 800027d4  f13=        0.000000                    # fcvt.d.w fa3, zero
00000000 00000046 0004 800027d8  f14=        0.000000                    # fcvt.d.w fa4, zero
00000000 00000047 0004 800027dc  f15=        0.000000                    # fcvt.d.w fa5, zero
00000000 00000048 0004 800027e0  f16=        0.000000                    # fcvt.d.w fa6, zero
00000000 00000049 0004 800027e4  f17=        0.000000                    # fcvt.d.w fa7, zero
00000000 00000050 0004 800027e8  f18=        0.000000                    # fcvt.d.w fs2, zero
00000000 00000051 0004 800027ec  f19=        0.000000                    # fcvt.d.w fs3, zero
00000000 00000052 0004 800027f0  f20=        0.000000                    # fcvt.d.w fs4, zero
00000000 00000045 0006 800027d4  f13=        0.000000                    # fcvt.d.w fa3, zero
00000000 00000046 0003 800027d8  f14=        0.000000                    # fcvt.d.w fa4, zero
00000000 00000072 0001 80002840  x10:00000001 x7:0000000a x5=00000400    # sll     t0, a0, t2
00000000 00000051 0007 800027ec  f19=        0.000000                    # fcvt.d.w fs3, zero
00000000 00000052 0007 800027f0  f20=        0.000000                    # fcvt.d.w fs4, zero
00000000 00000053 0007 800027f4  f21=        0.000000                    # fcvt.d.w fs5, zero
00000000 00000054 0007 800027f8  f22=        0.000000                    # fcvt.d.w fs6, zero
00000000 00000055 0007 800027fc  f23=        0.000000                    # fcvt.d.w fs7, zero
00000000 00000053 0004 800027f4  f21=        0.000000                    # fcvt.d.w fs5, zero
00000000 00000046 0006 800027d8  f14=        0.000000                    # fcvt.d.w fa4, zero
00000000 00000047 0003 800027dc  f15=        0.000000                    # fcvt.d.w fa5, zero
00000000 00000073 0001 80002844  x11:00000009 x7:0000000a x6=00002400    # sll     t1, a1, t2
00000000 00000064 0002 80002820  x13:00120000 x13=0011fff8               # addi    a3, a3, -8
00000000 00000037 0008 800027b4  f05=        0.000000                    # fcvt.d.w ft5, zero
00000000 00000067 0005 8000282c  x5:80002828 RA:80002ba8 x5=00000088     # lw      t0, 896(t0)
00000000 00000015 0000 80002b34  x12:00100000 x6:00020000 x13=00120000   # add     a3, a2, t1
00000000 00000056 0007 80002800  f24=        0.000000                    # fcvt.d.w fs8, zero
00000000 00000054 0004 800027f8  f22=        0.000000                    # fcvt.d.w fs6, zero
00000000 00000047 0006 800027dc  f15=        0.000000                    # fcvt.d.w fa5, zero
00000000 00000048 0006 800027e0  f16=        0.000000                    # fcvt.d.w fa6, zero
00000000 00000049 0006 800027e4  f17=        0.000000                    # fcvt.d.w fa7, zero
00000000 00000050 0006 800027e8  f18=        0.000000                    # fcvt.d.w fs2, zero
00000000 00000051 0006 800027ec  f19=        0.000000                    # fcvt.d.w fs3, zero
00000000 00000052 0006 800027f0  f20=        0.000000                    # fcvt.d.w fs4, zero
00000000 00000053 0006 800027f4  f21=        0.000000                    # fcvt.d.w fs5, zero
00000000 00000054 0006 800027f8  f22=        0.000000                    # fcvt.d.w fs6, zero
00000000 00000055 0006 800027fc  f23=        0.000000                    # fcvt.d.w fs7, zero
00000000 00000056 0006 80002800  f24=        0.000000                    # fcvt.d.w fs8, zero
00000000 00000057 0006 80002804  f25=        0.000000                    # fcvt.d.w fs9, zero
00000000 00000058 0006 80002808  f26=        0.000000                    # fcvt.d.w fs10, zero
00000000 00000059 0006 8000280c  f27=        0.000000                    # fcvt.d.w fs11, zero
00000000 00000060 0006 80002810  f28=        0.000000                    # fcvt.d.w ft8, zero
00000000 00000061 0006 80002814  f29=        0.000000                    # fcvt.d.w ft9, zero
00000000 00000062 0006 80002818  f30=        0.000000                    # fcvt.d.w ft10, zero
00000000 00000055 0004 800027fc  f23=        0.000000                    # fcvt.d.w fs7, zero
00000000 00000048 0003 800027e0  f16=        0.000000                    # fcvt.d.w fa6, zero
00000000 00000074 0001 80002848  x13:0011ff70 x5:00000400 x2=0011fb70    # sub     sp, a3, t0
00000000 00000065 0002 80002824  x13:0011fff8 WA:0011fff8                # sw      zero, 0(a3)
00000000 00000038 0008 800027b8  f06=        0.000000                    # fcvt.d.w ft6, zero
00000000 00000068 0005 80002830  x13:0011fff8 x5:00000088 x13=0011ff70   # sub     a3, a3, t0
00000000 00000069 0005 80002834  x13:0011ff70 x15=0011ff70               # mv      a5, a3
00000000 00000070 0005 80002838  x7=80002838                             # auipc   t2, 0x0
00000000 00000063 0006 8000281c  f31=        0.000000                    # fcvt.d.w ft11, zero
00000000 00000056 0004 80002800  f24=        0.000000                    # fcvt.d.w fs8, zero
00000000 00000057 0004 80002804  f25=        0.000000                    # fcvt.d.w fs9, zero
00000000 00000058 0004 80002808  f26=        0.000000                    # fcvt.d.w fs10, zero
00000000 00000059 0004 8000280c  f27=        0.000000                    # fcvt.d.w fs11, zero
00000000 00000060 0004 80002810  f28=        0.000000                    # fcvt.d.w ft8, zero
00000000 00000061 0004 80002814  f29=        0.000000                    # fcvt.d.w ft9, zero
00000000 00000062 0004 80002818  f30=        0.000000                    # fcvt.d.w ft10, zero
00000000 00000063 0004 8000281c  f31=        0.000000                    # fcvt.d.w ft11, zero
00000000 00000064 0006 80002820  x13:00120000 x13=0011fff8               # addi    a3, a3, -8
00000000 00000049 0003 800027e4  f17=        0.000000                    # fcvt.d.w fa7, zero
00000000 00000075 0001 8000284c  x13:0011ff70 x6:00002400 x13=0011db70   # sub     a3, a3, t1
00000000 00000066 0002 80002828  x5=80002828                             # auipc   t0, 0x0
00000000 00000039 0008 800027bc  f07=        0.000000                    # fcvt.d.w ft7, zero
00000000 00000040 0008 800027c0  f08=        0.000000                    # fcvt.d.w fs0, zero
00000000 00000041 0008 800027c4  f09=        0.000000                    # fcvt.d.w fs1, zero
00000000 00000071 0005 8000283c  x7:80002838 RA:80002bac x7=0000000a     # lw      t2, 884(t2)
00000000 00000064 0004 80002820  x13:00120000 x13=0011fff8               # addi    a3, a3, -8
00000000 00000065 0006 80002824  x13:0011fff8 WA:0011fff8                # sw      zero, 0(a3)
00000000 00000066 0006 80002828  x5=80002828                             # auipc   t0, 0x0
00000000 00000076 0001 80002850  x10:00000001 x5=00000008                # slli    t0, a0, 3
00000000 00000067 0002 8000282c  x5:80002828 RA:80002ba8 x5=00000088     # lw      t0, 896(t0)
00000000 00000068 0002 80002830  x13:0011fff8 x5:00000088 x13=0011ff70   # sub     a3, a3, t0
00000000 00000069 0002 80002834  x13:0011ff70 x15=0011ff70               # mv      a5, a3
00000000 00000070 0002 80002838  x7=80002838                             # auipc   t2, 0x0
00000000 00000072 0005 80002840  x10:00000005 x7:0000000a x5=00001400    # sll     t0, a0, t2
00000000 00000065 0004 80002824  x13:0011fff8 WA:0011fff8                # sw      zero, 0(a3)
00000000 00000066 0004 80002828  x5=80002828                             # auipc   t0, 0x0
00000000 00000067 0006 8000282c  x5:80002828 RA:80002ba8 x5=00000088     # lw      t0, 896(t0)
00000000 00000077 0001 80002854  x11:00000009 x6=00000048                # slli    t1, a1, 3
00000000 00000016 0000 80002b38  x10:00000000 x11:00000009 x10=00000000  # remu    a0, a0, a1
00000000 00000057 0007 80002804  f25=        0.000000                    # fcvt.d.w fs9, zero
00000000 00000042 0008 800027c8  f10=        0.000000                    # fcvt.d.w fa0, zero
00000000 00000071 0002 8000283c  x7:80002838 RA:80002bac x7=0000000a     # lw      t2, 884(t2)
00000000 00000043 0008 800027cc  f11=        0.000000                    # fcvt.d.w fa1, zero
00000000 00000072 0002 80002840  x10:00000002 x7:0000000a x5=00000800    # sll     t0, a0, t2
00000000 00000050 0003 800027e8  f18=        0.000000                    # fcvt.d.w fs2, zero
00000000 00000067 0004 8000282c  x5:80002828 RA:80002ba8 x5=00000088     # lw      t0, 896(t0)
00000000 00000068 0006 80002830  x13:0011fff8 x5:00000088 x13=0011ff70   # sub     a3, a3, t0
00000000 00000017 0000 80002b3c  x1:80002750                             # ret
00000000 00000058 0007 80002808  f26=        0.000000                    # fcvt.d.w fs10, zero
00000000 00000073 0005 80002844  x11:00000009 x7:0000000a x6=00002400    # sll     t1, a1, t2
00000000 00000044 0008 800027d0  f12=        0.000000                    # fcvt.d.w fa2, zero
00000000 00000073 0002 80002844  x11:00000009 x7:0000000a x6=00002400    # sll     t1, a1, t2
00000000 00000051 0003 800027ec  f19=        0.000000                    # fcvt.d.w fs3, zero
00000000 00000078 0001 80002858  x2:0011fb70 x5:00000008 x2=0011fb68     # sub     sp, sp, t0
00000000 00000068 0004 80002830  x13:0011fff8 x5:00000088 x13=0011ff70   # sub     a3, a3, t0
00000000 00000069 0004 80002834  x13:0011ff70 x15=0011ff70               # mv      a5, a3
00000000 00000070 0004 80002838  x7=80002838                             # auipc   t2, 0x0
00000000 00000059 0007 8000280c  f27=        0.000000                    # fcvt.d.w fs11, zero
00000000 00000074 0005 80002848  x13:0011ff70 x5:00001400 x2=0011eb70    # sub     sp, a3, t0
00000000 00000045 0008 800027d4  f13=        0.000000                    # fcvt.d.w fa3, zero
00000000 00000074 0002 80002848  x13:0011ff70 x5:00000800 x2=0011f770    # sub     sp, a3, t0
00000000 00000052 0003 800027f0  f20=        0.000000                    # fcvt.d.w fs4, zero
00000000 00000079 0001 8000285c  x13:0011db70 x6:00000048 x13=0011db28   # sub     a3, a3, t1
00000000 00000080 0001 80002860  x5=80002860                             # auipc   t0, 0x0
00000000 00000081 0001 80002864  x5:80002860 x5=80002dd8                 # addi    t0, t0, 1400
00000000 00000082 0001 80002868  x6=80002868                             # auipc   t1, 0x0
00000000 00000083 0001 8000286c  x6:80002868 x6=80002dd8                 # addi    t1, t1, 1392
00000000 00000084 0001 80002870  x7=80002870                             # auipc   t2, 0x0
00000000 00000085 0001 80002874  x7:80002870 x7=80002dd8                 # addi    t2, t2, 1384
00000000 00000086 0001 80002878  x28=80002878                            # auipc   t3, 0x0
00000000 00000053 0003 800027f4  f21=        0.000000                    # fcvt.d.w fs5, zero
00000000 00000054 0003 800027f8  f22=        0.000000                    # fcvt.d.w fs6, zero
00000000 00000018 0000 80002750  x10:00000000 x8=00000000                # mv      s0, a0
00000000 00000071 0004 8000283c  x7:80002838 RA:80002bac x7=0000000a     # lw      t2, 884(t2)
00000000 00000060 0007 80002810  f28=        0.000000                    # fcvt.d.w ft8, zero
00000000 00000075 0005 8000284c  x13:0011ff70 x6:00002400 x13=0011db70   # sub     a3, a3, t1
00000000 00000046 0008 800027d8  f14=        0.000000                    # fcvt.d.w fa4, zero
00000000 00000075 0002 8000284c  x13:0011ff70 x6:00002400 x13=0011db70   # sub     a3, a3, t1
00000000 00000087 0001 8000287c  x28:80002878 x28=80002de8               # addi    t3, t3, 1392
00000000 00000069 0006 80002834  x13:0011ff70 x15=0011ff70               # mv      a5, a3
00000000 00000055 0003 800027fc  f23=        0.000000                    # fcvt.d.w fs7, zero
00000000 00000019 0000 80002754  x14:01000000 x10=01000000               # mv      a0, a4
00000000 00000020 0000 80002758  x1=80002758                             # auipc   ra, 0x0
00000000 00000061 0007 80002814  f29=        0.000000                    # fcvt.d.w ft9, zero
00000000 00000076 0005 80002850  x10:00000005 x5=00000028                # slli    t0, a0, 3
00000000 00000047 0008 800027dc  f15=        0.000000                    # fcvt.d.w fa5, zero
00000000 00000076 0002 80002850  x10:00000002 x5=00000010                # slli    t0, a0, 3
00000000 00000088 0001 80002880  x2:0011fb68 x5:80002dd8 x2=80122940     # add     sp, sp, t0
00000000 00000070 0006 80002838  x7=80002838                             # auipc   t2, 0x0
00000000 00000056 0003 80002800  f24=        0.000000                    # fcvt.d.w fs8, zero
00000000 00000071 0006 8000283c  x7:80002838 RA:80002bac x7=0000000a     # lw      t2, 884(t2)
00000000 00000021 0000 8000275c  x1:80002758 x1=80002760                 # jalr    ra, ra, 1036
00000000 00000062 0007 80002818  f30=        0.000000                    # fcvt.d.w ft10, zero
00000000 00000077 0005 80002854  x11:00000009 x6=00000048                # slli    t1, a1, 3
00000000 00000048 0008 800027e0  f16=        0.000000                    # fcvt.d.w fa6, zero
00000000 00000077 0002 80002854  x11:00000009 x6=00000048                # slli    t1, a1, 3
00000000 00000089 0001 80002884  x2:80122940 x6:80002dd8 x2=0011fb68     # sub     sp, sp, t1
00000000 00000072 0004 80002840  x10:00000004 x7:0000000a x5=00001000    # sll     t0, a0, t2
00000000 00000057 0003 80002804  f25=        0.000000                    # fcvt.d.w fs9, zero
00000000 00000058 0003 80002808  f26=        0.000000                    # fcvt.d.w fs10, zero
00000000 00000022 0000 80002b64  x10:01000000 RA:01000008 x10=00000000   # lw      a0, 8(a0)
00000000 00000063 0007 8000281c  f31=        0.000000                    # fcvt.d.w ft11, zero
00000000 00000078 0005 80002858  x2:0011eb70 x5:00000028 x2=0011eb48     # sub     sp, sp, t0
00000000 00000049 0008 800027e4  f17=        0.000000                    # fcvt.d.w fa7, zero
00000000 00000078 0002 80002858  x2:0011f770 x5:00000010 x2=0011f760     # sub     sp, sp, t0
00000000 00000090 0001 80002888  x2:0011fb68 x7:80002dd8 x2=80122940     # add     sp, sp, t2
00000000 00000073 0004 80002844  x11:00000009 x7:0000000a x6=00002400    # sll     t1, a1, t2
00000000 00000074 0004 80002848  x13:0011ff70 x5:00001000 x2=0011ef70    # sub     sp, a3, t0
00000000 00000059 0003 8000280c  f27=        0.000000                    # fcvt.d.w fs11, zero
00000000 00000023 0000 80002b68  x1:80002760                             # ret
00000000 00000064 0007 80002820  x13:00120000 x13=0011fff8               # addi    a3, a3, -8
00000000 00000079 0005 8000285c  x13:0011db70 x6:00000048 x13=0011db28   # sub     a3, a3, t1
00000000 00000080 0005 80002860  x5=80002860                             # auipc   t0, 0x0
00000000 00000079 0002 8000285c  x13:0011db70 x6:00000048 x13=0011db28   # sub     a3, a3, t1
00000000 00000080 0002 80002860  x5=80002860                             # auipc   t0, 0x0
00000000 00000081 0002 80002864  x5:80002860 x5=80002dd8                 # addi    t0, t0, 1400
00000000 00000082 0002 80002868  x6=80002868                             # auipc   t1, 0x0
00000000 00000083 0002 8000286c  x6:80002868 x6=80002dd8                 # addi    t1, t1, 1392
00000000 00000084 0002 80002870  x7=80002870                             # auipc   t2, 0x0
00000000 00000085 0002 80002874  x7:80002870 x7=80002dd8                 # addi    t2, t2, 1384
00000000 00000086 0002 80002878  x28=80002878                            # auipc   t3, 0x0
00000000 00000087 0002 8000287c  x28:80002878 x28=80002de8               # addi    t3, t3, 1392
00000000 00000088 0002 80002880  x2:0011f760 x5:80002dd8 x2=80122538     # add     sp, sp, t0
00000000 00000089 0002 80002884  x2:80122538 x6:80002dd8 x2=0011f760     # sub     sp, sp, t1
00000000 00000090 0002 80002888  x2:0011f760 x7:80002dd8 x2=80122538     # add     sp, sp, t2
00000000 00000091 0002 8000288c  x2:80122538 x28:80002de8 x2=0011f750    # sub     sp, sp, t3
00000000 00000092 0002 80002890  x2:0011f750 x2=0011f750                 # andi    sp, sp, -8
00000000 00000093 0002 80002894  x2:0011f750 x4=0011f750                 # mv      tp, sp
00000000 00000094 0002 80002898  x2:0011f750 x2=0011f750                 # andi    sp, sp, -8
00000000 00000095 0002 8000289c  x4:0011f750 x29=0011f750                # mv      t4, tp
00000000 00000075 0004 8000284c  x13:0011ff70 x6:00002400 x13=0011db70   # sub     a3, a3, t1
00000000 00000060 0003 80002810  f28=        0.000000                    # fcvt.d.w ft8, zero
00000000 00000024 0000 80002760  x10:00000000 x5=00000000                # mv      t0, a0
00000000 00000065 0007 80002824  x13:0011fff8 WA:0011fff8                # sw      zero, 0(a3)
00000000 00000066 0007 80002828  x5=80002828                             # auipc   t0, 0x0
00000000 00000081 0005 80002864  x5:80002860 x5=80002dd8                 # addi    t0, t0, 1400
00000000 00000091 0001 8000288c  x2:80122940 x28:80002de8 x2=0011fb58    # sub     sp, sp, t3
00000000 00000072 0006 80002840  x10:00000006 x7:0000000a x5=00001800    # sll     t0, a0, t2
00000000 00000096 0002 800028a0  x5:80002dd8 x6:80002dd8                 # bge     t0, t1, pc + 24
00000000 00000076 0004 80002850  x10:00000004 x5=00000020                # slli    t0, a0, 3
00000000 00000061 0003 80002814  f29=        0.000000                    # fcvt.d.w ft9, zero
00000000 00000025 0000 80002764  x8:00000000 x10=00000000                # mv      a0, s0
00000000 00000026 0000 80002768  x6=00000000                             # csrr    t1, mhartid
00000000 00000067 0007 8000282c  x5:80002828 RA:80002ba8 x5=00000088     # lw      t0, 896(t0)
00000000 00000082 0005 80002868  x6=80002868                             # auipc   t1, 0x0
00000000 00000092 0001 80002890  x2:0011fb58 x2=0011fb58                 # andi    sp, sp, -8
00000000 00000093 0001 80002894  x2:0011fb58 x4=0011fb58                 # mv      tp, sp
00000000 00000094 0001 80002898  x2:0011fb58 x2=0011fb58                 # andi    sp, sp, -8
00000000 00000095 0001 8000289c  x4:0011fb58 x29=0011fb58                # mv      t4, tp
00000000 00000096 0001 800028a0  x5:80002dd8 x6:80002dd8                 # bge     t0, t1, pc + 24
00000000 00000097 0001 800028b8  x5=800028b8                             # auipc   t0, 0x0
00000000 00000098 0001 800028bc  x5:800028b8 x5=80002dd8                 # addi    t0, t0, 1312
00000000 00000099 0001 800028c0  x6=800028c0                             # auipc   t1, 0x0
00000000 00000100 0001 800028c4  x6:800028c0 x6=80002de8                 # addi    t1, t1, 1320
00000000 00000101 0001 800028c8  x5:80002dd8 x6:80002de8                 # bge     t0, t1, pc + 20
00000000 00000102 0001 800028cc  x29:0011fb58 WA:0011fb58                # sw      zero, 0(t4)
00000000 00000103 0001 800028d0  x5:80002dd8 x5=80002ddc                 # addi    t0, t0, 4
00000000 00000104 0001 800028d4  x29:0011fb58 x29=0011fb5c               # addi    t4, t4, 4
00000000 00000105 0001 800028d8  x5:80002ddc x7:80002dd8                 # blt     t0, t2, pc - 12
00000000 00000106 0001 800028dc  x2:0011fb58 x2=0011fb44                 # addi    sp, sp, -20
00000000 00000068 0007 80002830  x13:0011fff8 x5:00000088 x13=0011ff70   # sub     a3, a3, t0
00000000 00000083 0005 8000286c  x6:80002868 x6=80002dd8                 # addi    t1, t1, 1392
00000000 00000084 0005 80002870  x7=80002870                             # auipc   t2, 0x0
00000000 00000097 0002 800028b8  x5=800028b8                             # auipc   t0, 0x0
00000000 00000077 0004 80002854  x11:00000009 x6=00000048                # slli    t1, a1, 3
00000000 00000062 0003 80002818  f30=        0.000000                    # fcvt.d.w ft10, zero
00000000 00000050 0008 800027e8  f18=        0.000000                    # fcvt.d.w fs2, zero
00000000 00000051 0008 800027ec  f19=        0.000000                    # fcvt.d.w fs3, zero
00000000 00000052 0008 800027f0  f20=        0.000000                    # fcvt.d.w fs4, zero
00000000 00000053 0008 800027f4  f21=        0.000000                    # fcvt.d.w fs5, zero
00000000 00000054 0008 800027f8  f22=        0.000000                    # fcvt.d.w fs6, zero
00000000 00000055 0008 800027fc  f23=        0.000000                    # fcvt.d.w fs7, zero
00000000 00000098 0002 800028bc  x5:800028b8 x5=80002dd8                 # addi    t0, t0, 1312
00000000 00000078 0004 80002858  x2:0011ef70 x5:00000020 x2=0011ef50     # sub     sp, sp, t0
00000000 00000063 0003 8000281c  f31=        0.000000                    # fcvt.d.w ft11, zero
00000000 00000027 0000 8000276c  x6:00000000 x5:00000000 x5=00000000     # sub     t0, t1, t0
00000000 00000107 0001 800028e0  x2:0011fb44 x10:00000001 WA:0011fb44    # sw      a0, 0(sp)
00000000 00000069 0007 80002834  x13:0011ff70 x15=0011ff70               # mv      a5, a3
00000000 00000070 0007 80002838  x7=80002838                             # auipc   t2, 0x0
00000000 00000085 0005 80002874  x7:80002870 x7=80002dd8                 # addi    t2, t2, 1384
00000000 00000056 0008 80002800  f24=        0.000000                    # fcvt.d.w fs8, zero
00000000 00000099 0002 800028c0  x6=800028c0                             # auipc   t1, 0x0
00000000 00000079 0004 8000285c  x13:0011db70 x6:00000048 x13=0011db28   # sub     a3, a3, t1
00000000 00000064 0003 80002820  x13:00120000 x13=0011fff8               # addi    a3, a3, -8
00000000 00000028 0000 80002770  x5:00000000                             # bnez    t0, pc + 36
00000000 00000108 0001 800028e4  x2:0011fb44 x11:00000009 WA:0011fb48    # sw      a1, 4(sp)
00000000 00000073 0006 80002844  x11:00000009 x7:0000000a x6=00002400    # sll     t1, a1, t2
00000000 00000071 0007 8000283c  x7:80002838 RA:80002bac x7=0000000a     # lw      t2, 884(t2)
00000000 00000074 0006 80002848  x13:0011ff70 x5:00001800 x2=0011e770    # sub     sp, a3, t0
00000000 00000057 0008 80002804  f25=        0.000000                    # fcvt.d.w fs9, zero
00000000 00000100 0002 800028c4  x6:800028c0 x6=80002de8                 # addi    t1, t1, 1320
00000000 00000080 0004 80002860  x5=80002860                             # auipc   t0, 0x0
00000000 00000065 0003 80002824  x13:0011fff8 WA:0011fff8                # sw      zero, 0(a3)
00000000 00000029 0000 80002774  x5=80002774                             # auipc   t0, 0x0
00000000 00000109 0001 800028e8  x2:0011fb44 x12:00100000 WA:0011fb4c    # sw      a2, 8(sp)
00000000 00000086 0005 80002878  x28=80002878                            # auipc   t3, 0x0
00000000 00000072 0007 80002840  x10:00000007 x7:0000000a x5=00001c00    # sll     t0, a0, t2
00000000 00000087 0005 8000287c  x28:80002878 x28=80002de8               # addi    t3, t3, 1392
00000000 00000073 0007 80002844  x11:00000009 x7:0000000a x6=00002400    # sll     t1, a1, t2
00000000 00000058 0008 80002808  f26=        0.000000                    # fcvt.d.w fs10, zero
00000000 00000101 0002 800028c8  x5:80002dd8 x6:80002de8                 # bge     t0, t1, pc + 20
00000000 00000081 0004 80002864  x5:80002860 x5=80002dd8                 # addi    t0, t0, 1400
00000000 00000066 0003 80002828  x5=80002828                             # auipc   t0, 0x0
00000000 00000030 0000 80002778  x5:80002774 x5=80002ed0                 # addi    t0, t0, 1884
00000000 00000110 0001 800028ec  x2:0011fb44 x13:0011db28 WA:0011fb50    # sw      a3, 12(sp)
00000000 00000111 0001 800028f0  x2:0011fb44 x14:01000000 WA:0011fb54    # sw      a4, 16(sp)
00000000 00000088 0005 80002880  x2:0011eb48 x5:80002dd8 x2=80121920     # add     sp, sp, t0
00000000 00000074 0007 80002848  x13:0011ff70 x5:00001c00 x2=0011e370    # sub     sp, a3, t0
00000000 00000059 0008 8000280c  f27=        0.000000                    # fcvt.d.w fs11, zero
00000000 00000102 0002 800028cc  x29:0011f750 WA:0011f750                # sw      zero, 0(t4)
00000000 00000082 0004 80002868  x6=80002868                             # auipc   t1, 0x0
00000000 00000067 0003 8000282c  x5:80002828 RA:80002ba8 x5=00000088     # lw      t0, 896(t0)
00000000 00000031 0000 8000277c  x6=8000277c                             # auipc   t1, 0x0
00000000 00000032 0000 80002780  x6:8000277c x6=80002ed4                 # addi    t1, t1, 1880
00000000 00000112 0001 800028f4  x1=800028f4                             # auipc   ra, 0x0
00000000 00000089 0005 80002884  x2:80121920 x6:80002dd8 x2=0011eb48     # sub     sp, sp, t1
00000000 00000075 0007 8000284c  x13:0011ff70 x6:00002400 x13=0011db70   # sub     a3, a3, t1
00000000 00000060 0008 80002810  f28=        0.000000                    # fcvt.d.w ft8, zero
00000000 00000103 0002 800028d0  x5:80002dd8 x5=80002ddc                 # addi    t0, t0, 4
00000000 00000083 0004 8000286c  x6:80002868 x6=80002dd8                 # addi    t1, t1, 1392
00000000 00000068 0003 80002830  x13:0011fff8 x5:00000088 x13=0011ff70   # sub     a3, a3, t0
00000000 00000069 0003 80002834  x13:0011ff70 x15=0011ff70               # mv      a5, a3
00000000 00000070 0003 80002838  x7=80002838                             # auipc   t2, 0x0
00000000 00000113 0001 800028f8  x1:800028f4 x1=800028fc                 # jalr    ra, ra, -800
00000000 00000090 0005 80002888  x2:0011eb48 x7:80002dd8 x2=80121920     # add     sp, sp, t2
00000000 00000114 0001 800025d4  x15:0011ff70 x15:0011ff70 WA:0011ff70   # sw      a5, 0(a5)
00000000 00000091 0005 8000288c  x2:80121920 x28:80002de8 x2=0011eb38    # sub     sp, sp, t3
00000000 00000115 0001 800025d8  x15:0011ff70 x14:01000000 WA:0011ff74   # sw      a4, 4(a5)
00000000 00000104 0002 800028d4  x29:0011f750 x29=0011f754               # addi    t4, t4, 4
00000000 00000116 0001 800025dc  x14:01000000 RA:01000008 x6=00000000    # lw      t1, 8(a4)
00000000 00000105 0002 800028d8  x5:80002ddc x7:80002dd8                 # blt     t0, t2, pc - 12
00000000 00000075 0006 8000284c  x13:0011ff70 x6:00002400 x13=0011db70   # sub     a3, a3, t1
00000000 00000071 0003 8000283c  x7:80002838 RA:80002bac x7=0000000a     # lw      t2, 884(t2)
00000000 00000076 0006 80002850  x10:00000006 x5=00000030                # slli    t0, a0, 3
00000000 00000072 0003 80002840  x10:00000003 x7:0000000a x5=00000c00    # sll     t0, a0, t2
00000000 00000061 0008 80002814  f29=        0.000000                    # fcvt.d.w ft9, zero
00000000 00000092 0005 80002890  x2:0011eb38 x2=0011eb38                 # andi    sp, sp, -8
00000000 00000084 0004 80002870  x7=80002870                             # auipc   t2, 0x0
00000000 00000117 0001 800025e0  x15:0011ff70 x6:00000000 WA:0011ff78    # sw      t1, 8(a5)
00000000 00000106 0002 800028dc  x2:0011f750 x2=0011f73c                 # addi    sp, sp, -20
00000000 00000033 0000 80002784  x5:80002ed0 x6:80002ed4                 # bge     t0, t1, pc + 16
00000000 00000076 0007 80002850  x10:00000007 x5=00000038                # slli    t0, a0, 3
00000000 00000077 0007 80002854  x11:00000009 x6=00000048                # slli    t1, a1, 3
00000000 00000073 0003 80002844  x11:00000009 x7:0000000a x6=00002400    # sll     t1, a1, t2
00000000 00000062 0008 80002818  f30=        0.000000                    # fcvt.d.w ft10, zero
00000000 00000063 0008 8000281c  f31=        0.000000                    # fcvt.d.w ft11, zero
00000000 00000064 0008 80002820  x13:00120000 x13=0011fff8               # addi    a3, a3, -8
00000000 00000065 0008 80002824  x13:0011fff8 WA:0011fff8                # sw      zero, 0(a3)
00000000 00000066 0008 80002828  x5=80002828                             # auipc   t0, 0x0
00000000 00000034 0000 80002788  x5:80002ed0 WA:80002ed0                 # sw      zero, 0(t0)
00000000 00000035 0000 8000278c  x5:80002ed0 x5=80002ed4                 # addi    t0, t0, 4
00000000 00000078 0007 80002858  x2:0011e370 x5:00000038 x2=0011e338     # sub     sp, sp, t0
00000000 00000074 0003 80002848  x13:0011ff70 x5:00000c00 x2=0011f370    # sub     sp, a3, t0
00000000 00000093 0005 80002894  x2:0011eb38 x4=0011eb38                 # mv      tp, sp
00000000 00000085 0004 80002874  x7:80002870 x7=80002dd8                 # addi    t2, t2, 1384
00000000 00000118 0001 800025e4  x14:01000000 RA:01000028 x16=00000001   # lw      a6, 40(a4)
00000000 00000107 0002 800028e0  x2:0011f73c x10:00000002 WA:0011f73c    # sw      a0, 0(sp)
00000000 00000067 0008 8000282c  x5:80002828 RA:80002ba8 x5=00000088     # lw      t0, 896(t0)
00000000 00000068 0008 80002830  x13:0011fff8 x5:00000088 x13=0011ff70   # sub     a3, a3, t0
00000000 00000069 0008 80002834  x13:0011ff70 x15=0011ff70               # mv      a5, a3
00000000 00000070 0008 80002838  x7=80002838                             # auipc   t2, 0x0
00000000 00000075 0003 8000284c  x13:0011ff70 x6:00002400 x13=0011db70   # sub     a3, a3, t1
00000000 00000094 0005 80002898  x2:0011eb38 x2=0011eb38                 # andi    sp, sp, -8
00000000 00000086 0004 80002878  x28=80002878                            # auipc   t3, 0x0
00000000 00000119 0001 800025e8  x14:01000000 RA:0100002c x17=00000001   # lw      a7, 44(a4)
00000000 00000108 0002 800028e4  x2:0011f73c x11:00000009 WA:0011f740    # sw      a1, 4(sp)
00000000 00000077 0006 80002854  x11:00000009 x6=00000048                # slli    t1, a1, 3
00000000 00000036 0000 80002790  x5:80002ed4 x6:80002ed4                 # blt     t0, t1, pc - 8
00000000 00000079 0007 8000285c  x13:0011db70 x6:00000048 x13=0011db28   # sub     a3, a3, t1
00000000 00000080 0007 80002860  x5=80002860                             # auipc   t0, 0x0
00000000 00000081 0007 80002864  x5:80002860 x5=80002dd8                 # addi    t0, t0, 1400
00000000 00000082 0007 80002868  x6=80002868                             # auipc   t1, 0x0
00000000 00000083 0007 8000286c  x6:80002868 x6=80002dd8                 # addi    t1, t1, 1392
00000000 00000084 0007 80002870  x7=80002870                             # auipc   t2, 0x0
00000000 00000085 0007 80002874  x7:80002870 x7=80002dd8                 # addi    t2, t2, 1384
00000000 00000086 0007 80002878  x28=80002878                            # auipc   t3, 0x0
00000000 00000037 0000 80002794  x5=40801129                             # csrr    t0, misa
00000000 00000071 0008 8000283c  x7:80002838 RA:80002bac x7=0000000a     # lw      t2, 884(t2)
00000000 00000076 0003 80002850  x10:00000003 x5=00000018                # slli    t0, a0, 3
00000000 00000095 0005 8000289c  x4:0011eb38 x29=0011eb38                # mv      t4, tp
00000000 00000087 0004 8000287c  x28:80002878 x28=80002de8               # addi    t3, t3, 1392
00000000 00000120 0001 800025ec  x14:01000000 RA:01000004 x5=00000009    # lw      t0, 4(a4)
00000000 00000109 0002 800028e8  x2:0011f73c x12:00100000 WA:0011f744    # sw      a2, 8(sp)
00000000 00000078 0006 80002858  x2:0011e770 x5:00000030 x2=0011e740     # sub     sp, sp, t0
00000000 00000087 0007 8000287c  x28:80002878 x28=80002de8               # addi    t3, t3, 1392
00000000 00000079 0006 8000285c  x13:0011db70 x6:00000048 x13=0011db28   # sub     a3, a3, t1
00000000 00000088 0007 80002880  x2:0011e338 x5:80002dd8 x2=80121110     # add     sp, sp, t0
00000000 00000080 0006 80002860  x5=80002860                             # auipc   t0, 0x0
00000000 00000077 0003 80002854  x11:00000009 x6=00000048                # slli    t1, a1, 3
00000000 00000096 0005 800028a0  x5:80002dd8 x6:80002dd8                 # bge     t0, t1, pc + 24
00000000 00000078 0003 80002858  x2:0011f370 x5:00000018 x2=0011f358     # sub     sp, sp, t0
00000000 00000097 0005 800028b8  x5=800028b8                             # auipc   t0, 0x0
00000000 00000110 0002 800028ec  x2:0011f73c x13:0011db28 WA:0011f748    # sw      a3, 12(sp)
00000000 00000038 0000 80002798  x5:40801129 x5=00000028                 # andi    t0, t0, 40
00000000 00000072 0008 80002840  x10:00000008 x7:0000000a x5=00002000    # sll     t0, a0, t2
00000000 00000089 0007 80002884  x2:80121110 x6:80002dd8 x2=0011e338     # sub     sp, sp, t1
00000000 00000081 0006 80002864  x5:80002860 x5=80002dd8                 # addi    t0, t0, 1400
00000000 00000088 0004 80002880  x2:0011ef50 x5:80002dd8 x2=80121d28     # add     sp, sp, t0
00000000 00000121 0001 800025f0  x17:00000001 x16:00000001 x16=00000001  # mul     a6, a7, a6
00000000 00000098 0005 800028bc  x5:800028b8 x5=80002dd8                 # addi    t0, t0, 1312
00000000 00000079 0003 8000285c  x13:0011db70 x6:00000048 x13=0011db28   # sub     a3, a3, t1
00000000 00000111 0002 800028f0  x2:0011f73c x14:01000000 WA:0011f74c    # sw      a4, 16(sp)
00000000 00000039 0000 8000279c  x5:00000028                             # beqz    t0, pc + 132
00000000 00000073 0008 80002844  x11:00000009 x7:0000000a x6=00002400    # sll     t1, a1, t2
00000000 00000090 0007 80002888  x2:0011e338 x7:80002dd8 x2=80121110     # add     sp, sp, t2
00000000 00000091 0007 8000288c  x2:80121110 x28:80002de8 x2=0011e328    # sub     sp, sp, t3
00000000 00000092 0007 80002890  x2:0011e328 x2=0011e328                 # andi    sp, sp, -8
00000000 00000093 0007 80002894  x2:0011e328 x4=0011e328                 # mv      tp, sp
00000000 00000099 0005 800028c0  x6=800028c0                             # auipc   t1, 0x0
00000000 00000080 0003 80002860  x5=80002860                             # auipc   t0, 0x0
00000000 00000112 0002 800028f4  x1=800028f4                             # auipc   ra, 0x0
00000000 00000040 0000 800027a0  f00=        0.000000                    # fcvt.d.w ft0, zero
00000000 00000074 0008 80002848  x13:0011ff70 x5:00002000 x2=0011df70    # sub     sp, a3, t0
00000000 00000075 0008 8000284c  x13:0011ff70 x6:00002400 x13=0011db70   # sub     a3, a3, t1
00000000 00000076 0008 80002850  x10:00000008 x5=00000040                # slli    t0, a0, 3
00000000 00000077 0008 80002854  x11:00000009 x6=00000048                # slli    t1, a1, 3
00000000 00000078 0008 80002858  x2:0011df70 x5:00000040 x2=0011df30     # sub     sp, sp, t0
00000000 00000079 0008 8000285c  x13:0011db70 x6:00000048 x13=0011db28   # sub     a3, a3, t1
00000000 00000080 0008 80002860  x5=80002860                             # auipc   t0, 0x0
00000000 00000081 0008 80002864  x5:80002860 x5=80002dd8                 # addi    t0, t0, 1400
00000000 00000082 0008 80002868  x6=80002868                             # auipc   t1, 0x0
00000000 00000083 0008 8000286c  x6:80002868 x6=80002dd8                 # addi    t1, t1, 1392
00000000 00000084 0008 80002870  x7=80002870                             # auipc   t2, 0x0
00000000 00000085 0008 80002874  x7:80002870 x7=80002dd8                 # addi    t2, t2, 1384
00000000 00000086 0008 80002878  x28=80002878                            # auipc   t3, 0x0
00000000 00000100 0005 800028c4  x6:800028c0 x6=80002de8                 # addi    t1, t1, 1320
00000000 00000101 0005 800028c8  x5:80002dd8 x6:80002de8                 # bge     t0, t1, pc + 20
00000000 00000102 0005 800028cc  x29:0011eb38 WA:0011eb38                # sw      zero, 0(t4)
00000000 00000103 0005 800028d0  x5:80002dd8 x5=80002ddc                 # addi    t0, t0, 4
00000000 00000104 0005 800028d4  x29:0011eb38 x29=0011eb3c               # addi    t4, t4, 4
00000000 00000105 0005 800028d8  x5:80002ddc x7:80002dd8                 # blt     t0, t2, pc - 12
00000000 00000122 0001 800025f4  x16:00000001 x5:00000009 x10=00000009   # mul     a0, a6, t0
00000000 00000094 0007 80002898  x2:0011e328 x2=0011e328                 # andi    sp, sp, -8
00000000 00000087 0008 8000287c  x28:80002878 x28=80002de8               # addi    t3, t3, 1392
00000000 00000081 0003 80002864  x5:80002860 x5=80002dd8                 # addi    t0, t0, 1400
00000000 00000113 0002 800028f8  x1:800028f4 x1=800028fc                 # jalr    ra, ra, -800
00000000 00000041 0000 800027a4  f01=        0.000000                    # fcvt.d.w ft1, zero
00000000 00000082 0006 80002868  x6=80002868                             # auipc   t1, 0x0
00000000 00000089 0004 80002884  x2:80121d28 x6:80002dd8 x2=0011ef50     # sub     sp, sp, t1
00000000 00000106 0005 800028dc  x2:0011eb38 x2=0011eb24                 # addi    sp, sp, -20
00000000 00000123 0001 800025f8  x15:0011ff70 x10:00000009 WA:0011ff7c   # sw      a0, 12(a5)
00000000 00000095 0007 8000289c  x4:0011e328 x29=0011e328                # mv      t4, tp
00000000 00000096 0007 800028a0  x5:80002dd8 x6:80002dd8                 # bge     t0, t1, pc + 24
00000000 00000082 0003 80002868  x6=80002868                             # auipc   t1, 0x0
00000000 00000114 0002 800025d4  x15:0011ff70 x15:0011ff70 WA:0011ff70   # sw      a5, 0(a5)
00000000 00000042 0000 800027a8  f02=        0.000000                    # fcvt.d.w ft2, zero
00000000 00000043 0000 800027ac  f03=        0.000000                    # fcvt.d.w ft3, zero
00000000 00000044 0000 800027b0  f04=        0.000000                    # fcvt.d.w ft4, zero
00000000 00000045 0000 800027b4  f05=        0.000000                    # fcvt.d.w ft5, zero
00000000 00000046 0000 800027b8  f06=        0.000000                    # fcvt.d.w ft6, zero
00000000 00000047 0000 800027bc  f07=        0.000000                    # fcvt.d.w ft7, zero
00000000 00000097 0007 800028b8  x5=800028b8                             # auipc   t0, 0x0
00000000 00000083 0003 8000286c  x6:80002868 x6=80002dd8                 # addi    t1, t1, 1392
00000000 00000115 0002 800025d8  x15:0011ff70 x14:01000000 WA:0011ff74   # sw      a4, 4(a5)
00000000 00000083 0006 8000286c  x6:80002868 x6=80002dd8                 # addi    t1, t1, 1392
00000000 00000090 0004 80002888  x2:0011ef50 x7:80002dd8 x2=80121d28     # add     sp, sp, t2
00000000 00000107 0005 800028e0  x2:0011eb24 x10:00000005 WA:0011eb24    # sw      a0, 0(sp)
00000000 00000124 0001 800025fc  x17=00000001                            # csrr    a7, mhartid
00000000 00000088 0008 80002880  x2:0011df30 x5:80002dd8 x2=80120d08     # add     sp, sp, t0
00000000 00000048 0000 800027c0  f08=        0.000000                    # fcvt.d.w fs0, zero
00000000 00000098 0007 800028bc  x5:800028b8 x5=80002dd8                 # addi    t0, t0, 1312
00000000 00000084 0003 80002870  x7=80002870                             # auipc   t2, 0x0
00000000 00000116 0002 800025dc  x14:01000000 RA:01000008 x6=00000000    # lw      t1, 8(a4)
00000000 00000117 0002 800025e0  x15:0011ff70 x6:00000000 WA:0011ff78    # sw      t1, 8(a5)
00000000 00000091 0004 8000288c  x2:80121d28 x28:80002de8 x2=0011ef40    # sub     sp, sp, t3
00000000 00000108 0005 800028e4  x2:0011eb24 x11:00000009 WA:0011eb28    # sw      a1, 4(sp)
00000000 00000125 0001 80002600  x17:00000001 x6:00000000 x10=00000001   # sub     a0, a7, t1
00000000 00000089 0008 80002884  x2:80120d08 x6:80002dd8 x2=0011df30     # sub     sp, sp, t1
00000000 00000126 0001 80002604  x10:00000001 x5:00000009 x10=00000000   # divu    a0, a0, t0
00000000 00000090 0008 80002888  x2:0011df30 x7:80002dd8 x2=80120d08     # add     sp, sp, t2
00000000 00000127 0001 80002608  x15:0011ff70 x10:00000000 WA:0011ff80   # sw      a0, 16(a5)
00000000 00000085 0003 80002874  x7:80002870 x7=80002dd8                 # addi    t2, t2, 1384
00000000 00000084 0006 80002870  x7=80002870                             # auipc   t2, 0x0
00000000 00000092 0004 80002890  x2:0011ef40 x2=0011ef40                 # andi    sp, sp, -8
00000000 00000109 0005 800028e8  x2:0011eb24 x12:00100000 WA:0011eb2c    # sw      a2, 8(sp)
00000000 00000049 0000 800027c4  f09=        0.000000                    # fcvt.d.w fs1, zero
00000000 00000099 0007 800028c0  x6=800028c0                             # auipc   t1, 0x0
00000000 00000091 0008 8000288c  x2:80120d08 x28:80002de8 x2=0011df20    # sub     sp, sp, t3
00000000 00000128 0001 8000260c  x15:0011ff70 x16:00000001 WA:0011ff84   # sw      a6, 20(a5)
00000000 00000118 0002 800025e4  x14:01000000 RA:01000028 x16=00000001   # lw      a6, 40(a4)
00000000 00000086 0003 80002878  x28=80002878                            # auipc   t3, 0x0
00000000 00000085 0006 80002874  x7:80002870 x7=80002dd8                 # addi    t2, t2, 1384
00000000 00000087 0003 8000287c  x28:80002878 x28=80002de8               # addi    t3, t3, 1392
00000000 00000093 0004 80002894  x2:0011ef40 x4=0011ef40                 # mv      tp, sp
00000000 00000088 0003 80002880  x2:0011f358 x5:80002dd8 x2=80122130     # add     sp, sp, t0
00000000 00000050 0000 800027c8  f10=        0.000000                    # fcvt.d.w fa0, zero
00000000 00000092 0008 80002890  x2:0011df20 x2=0011df20                 # andi    sp, sp, -8
00000000 00000129 0001 80002610  x15:0011ff70 x6:00000000 WA:0011ff88    # sw      t1, 24(a5)
00000000 00000119 0002 800025e8  x14:01000000 RA:0100002c x17=00000001   # lw      a7, 44(a4)
00000000 00000086 0006 80002878  x28=80002878                            # auipc   t3, 0x0
00000000 00000110 0005 800028ec  x2:0011eb24 x13:0011db28 WA:0011eb30    # sw      a3, 12(sp)
00000000 00000087 0006 8000287c  x28:80002878 x28=80002de8               # addi    t3, t3, 1392
00000000 00000100 0007 800028c4  x6:800028c0 x6=80002de8                 # addi    t1, t1, 1320
00000000 00000089 0003 80002884  x2:80122130 x6:80002dd8 x2=0011f358     # sub     sp, sp, t1
00000000 00000051 0000 800027cc  f11=        0.000000                    # fcvt.d.w fa1, zero
00000000 00000093 0008 80002894  x2:0011df20 x4=0011df20                 # mv      tp, sp
00000000 00000130 0001 80002614  x15:0011ff70 x11:00000009 WA:0011ff8c   # sw      a1, 28(a5)
00000000 00000120 0002 800025ec  x14:01000000 RA:01000004 x5=00000009    # lw      t0, 4(a4)
00000000 00000094 0004 80002898  x2:0011ef40 x2=0011ef40                 # andi    sp, sp, -8
00000000 00000111 0005 800028f0  x2:0011eb24 x14:01000000 WA:0011eb34    # sw      a4, 16(sp)
00000000 00000112 0005 800028f4  x1=800028f4                             # auipc   ra, 0x0
00000000 00000113 0005 800028f8  x1:800028f4 x1=800028fc                 # jalr    ra, ra, -800
00000000 00000090 0003 80002888  x2:0011f358 x7:80002dd8 x2=80122130     # add     sp, sp, t2
00000000 00000052 0000 800027d0  f12=        0.000000                    # fcvt.d.w fa2, zero
00000000 00000094 0008 80002898  x2:0011df20 x2=0011df20                 # andi    sp, sp, -8
00000000 00000131 0001 80002618  x14:01000000 RA:01000018 x10=80000000   # lw      a0, 24(a4)
00000000 00000132 0001 8000261c  x11=10000000                            # lui     a1, 0x10000
00000000 00000095 0004 8000289c  x4:0011ef40 x29=0011ef40                # mv      t4, tp
00000000 00000096 0004 800028a0  x5:80002dd8 x6:80002dd8                 # bge     t0, t1, pc + 24
00000000 00000097 0004 800028b8  x5=800028b8                             # auipc   t0, 0x0
00000000 00000098 0004 800028bc  x5:800028b8 x5=80002dd8                 # addi    t0, t0, 1312
00000000 00000099 0004 800028c0  x6=800028c0                             # auipc   t1, 0x0
00000000 00000053 0000 800027d4  f13=        0.000000                    # fcvt.d.w fa3, zero
00000000 00000095 0008 8000289c  x4:0011df20 x29=0011df20                # mv      t4, tp
00000000 00000121 0002 800025f0  x17:00000001 x16:00000001 x16=00000001  # mul     a6, a7, a6
00000000 00000133 0001 80002620  x10:80000000 x11:10000000 x10=90000000  # add     a0, a0, a1
00000000 00000134 0001 80002624  x15:0011ff70 WA:0011ff94                # sw      zero, 36(a5)
00000000 00000101 0007 800028c8  x5:80002dd8 x6:80002de8                 # bge     t0, t1, pc + 20
00000000 00000102 0007 800028cc  x29:0011e328 WA:0011e328                # sw      zero, 0(t4)
00000000 00000091 0003 8000288c  x2:80122130 x28:80002de8 x2=0011f348    # sub     sp, sp, t3
00000000 00000100 0004 800028c4  x6:800028c0 x6=80002de8                 # addi    t1, t1, 1320
00000000 00000054 0000 800027d8  f14=        0.000000                    # fcvt.d.w fa4, zero
00000000 00000096 0008 800028a0  x5:80002dd8 x6:80002dd8                 # bge     t0, t1, pc + 24
00000000 00000097 0008 800028b8  x5=800028b8                             # auipc   t0, 0x0
00000000 00000098 0008 800028bc  x5:800028b8 x5=80002dd8                 # addi    t0, t0, 1312
00000000 00000099 0008 800028c0  x6=800028c0                             # auipc   t1, 0x0
00000000 00000100 0008 800028c4  x6:800028c0 x6=80002de8                 # addi    t1, t1, 1320
00000000 00000101 0008 800028c8  x5:80002dd8 x6:80002de8                 # bge     t0, t1, pc + 20
00000000 00000102 0008 800028cc  x29:0011df20 WA:0011df20                # sw      zero, 0(t4)
00000000 00000103 0008 800028d0  x5:80002dd8 x5=80002ddc                 # addi    t0, t0, 4
00000000 00000055 0000 800027dc  f15=        0.000000                    # fcvt.d.w fa5, zero
00000000 00000122 0002 800025f4  x16:00000001 x5:00000009 x10=00000009   # mul     a0, a6, t0
00000000 00000088 0006 80002880  x2:0011e740 x5:80002dd8 x2=80121518     # add     sp, sp, t0
00000000 00000135 0001 80002628  x15:0011ff70 x10:90000000 WA:0011ff90   # sw      a0, 32(a5)
00000000 00000089 0006 80002884  x2:80121518 x6:80002dd8 x2=0011e740     # sub     sp, sp, t1
00000000 00000103 0007 800028d0  x5:80002dd8 x5=80002ddc                 # addi    t0, t0, 4
00000000 00000092 0003 80002890  x2:0011f348 x2=0011f348                 # andi    sp, sp, -8
00000000 00000101 0004 800028c8  x5:80002dd8 x6:80002de8                 # bge     t0, t1, pc + 20
00000000 00000104 0008 800028d4  x29:0011df20 x29=0011df24               # addi    t4, t4, 4
00000000 00000056 0000 800027e0  f16=        0.000000                    # fcvt.d.w fa6, zero
00000000 00000123 0002 800025f8  x15:0011ff70 x10:00000009 WA:0011ff7c   # sw      a0, 12(a5)
00000000 00000114 0005 800025d4  x15:0011ff70 x15:0011ff70 WA:0011ff70   # sw      a5, 0(a5)
00000000 00000136 0001 8000262c  x14:01000000 RA:01000020 x10=00000000   # lw      a0, 32(a4)
00000000 00000137 0001 80002630  x14:01000000 RA:01000024 x11=00000001   # lw      a1, 36(a4)
00000000 00000138 0001 80002634  x15:0011ff70 x10:00000000 WA:0011ff98   # sw      a0, 40(a5)
00000000 00000139 0001 80002638  x15:0011ff70 x11:00000001 WA:0011ff9c   # sw      a1, 44(a5)
00000000 00000102 0004 800028cc  x29:0011ef40 WA:0011ef40                # sw      zero, 0(t4)
00000000 00000105 0008 800028d8  x5:80002ddc x7:80002dd8                 # blt     t0, t2, pc - 12
00000000 00000057 0000 800027e4  f17=        0.000000                    # fcvt.d.w fa7, zero
00000000 00000124 0002 800025fc  x17=00000002                            # csrr    a7, mhartid
00000000 00000115 0005 800025d8  x15:0011ff70 x14:01000000 WA:0011ff74   # sw      a4, 4(a5)
00000000 00000090 0006 80002888  x2:0011e740 x7:80002dd8 x2=80121518     # add     sp, sp, t2
00000000 00000104 0007 800028d4  x29:0011e328 x29=0011e32c               # addi    t4, t4, 4
00000000 00000091 0006 8000288c  x2:80121518 x28:80002de8 x2=0011e730    # sub     sp, sp, t3
00000000 00000105 0007 800028d8  x5:80002ddc x7:80002dd8                 # blt     t0, t2, pc - 12
00000000 00000140 0001 8000263c  x15:0011ff70 x12:00100000 WA:0011ffa0   # sw      a2, 48(a5)
00000000 00000103 0004 800028d0  x5:80002dd8 x5=80002ddc                 # addi    t0, t0, 4
00000000 00000106 0008 800028dc  x2:0011df20 x2=0011df0c                 # addi    sp, sp, -20
00000000 00000058 0000 800027e8  f18=        0.000000                    # fcvt.d.w fs2, zero
00000000 00000125 0002 80002600  x17:00000002 x6:00000000 x10=00000002   # sub     a0, a7, t1
00000000 00000116 0005 800025dc  x14:01000000 RA:01000008 x6=00000000    # lw      t1, 8(a4)
00000000 00000093 0003 80002894  x2:0011f348 x4=0011f348                 # mv      tp, sp
00000000 00000106 0007 800028dc  x2:0011e328 x2=0011e314                 # addi    sp, sp, -20
00000000 00000107 0007 800028e0  x2:0011e314 x10:00000007 WA:0011e314    # sw      a0, 0(sp)
00000000 00000108 0007 800028e4  x2:0011e314 x11:00000009 WA:0011e318    # sw      a1, 4(sp)
00000000 00000109 0007 800028e8  x2:0011e314 x12:00100000 WA:0011e31c    # sw      a2, 8(sp)
00000000 00000107 0008 800028e0  x2:0011df0c x10:00000008 WA:0011df0c    # sw      a0, 0(sp)
00000000 00000059 0000 800027ec  f19=        0.000000                    # fcvt.d.w fs3, zero
00000000 00000126 0002 80002604  x10:00000002 x5:00000009 x10=00000000   # divu    a0, a0, t0
00000000 00000117 0005 800025e0  x15:0011ff70 x6:00000000 WA:0011ff78    # sw      t1, 8(a5)
00000000 00000094 0003 80002898  x2:0011f348 x2=0011f348                 # andi    sp, sp, -8
00000000 00000092 0006 80002890  x2:0011e730 x2=0011e730                 # andi    sp, sp, -8
00000000 00000141 0001 80002640  x15:0011ff70 WA:0011ffa4                # sw      zero, 52(a5)
00000000 00000104 0004 800028d4  x29:0011ef40 x29=0011ef44               # addi    t4, t4, 4
00000000 00000110 0007 800028ec  x2:0011e314 x13:0011db28 WA:0011e320    # sw      a3, 12(sp)
00000000 00000108 0008 800028e4  x2:0011df0c x11:00000009 WA:0011df10    # sw      a1, 4(sp)
00000000 00000060 0000 800027f0  f20=        0.000000                    # fcvt.d.w fs4, zero
00000000 00000127 0002 80002608  x15:0011ff70 x10:00000000 WA:0011ff80   # sw      a0, 16(a5)
00000000 00000118 0005 800025e4  x14:01000000 RA:01000028 x16=00000001   # lw      a6, 40(a4)
00000000 00000095 0003 8000289c  x4:0011f348 x29=0011f348                # mv      t4, tp
00000000 00000096 0003 800028a0  x5:80002dd8 x6:80002dd8                 # bge     t0, t1, pc + 24
00000000 00000097 0003 800028b8  x5=800028b8                             # auipc   t0, 0x0
00000000 00000098 0003 800028bc  x5:800028b8 x5=80002dd8                 # addi    t0, t0, 1312
00000000 00000099 0003 800028c0  x6=800028c0                             # auipc   t1, 0x0
00000000 00000100 0003 800028c4  x6:800028c0 x6=80002de8                 # addi    t1, t1, 1320
00000000 00000101 0003 800028c8  x5:80002dd8 x6:80002de8                 # bge     t0, t1, pc + 20
00000000 00000128 0002 8000260c  x15:0011ff70 x16:00000001 WA:0011ff84   # sw      a6, 20(a5)
00000000 00000119 0005 800025e8  x14:01000000 RA:0100002c x17=00000001   # lw      a7, 44(a4)
00000000 00000093 0006 80002894  x2:0011e730 x4=0011e730                 # mv      tp, sp
00000000 00000142 0001 80002644  x15:0011ff70 x13:0011db28 WA:0011ffa8   # sw      a3, 56(a5)
00000000 00000105 0004 800028d8  x5:80002ddc x7:80002dd8                 # blt     t0, t2, pc - 12
00000000 00000111 0007 800028f0  x2:0011e314 x14:01000000 WA:0011e324    # sw      a4, 16(sp)
00000000 00000112 0007 800028f4  x1=800028f4                             # auipc   ra, 0x0
00000000 00000113 0007 800028f8  x1:800028f4 x1=800028fc                 # jalr    ra, ra, -800
00000000 00000102 0003 800028cc  x29:0011f348 WA:0011f348                # sw      zero, 0(t4)
00000000 00000129 0002 80002610  x15:0011ff70 x6:00000000 WA:0011ff88    # sw      t1, 24(a5)
00000000 00000120 0005 800025ec  x14:01000000 RA:01000004 x5=00000009    # lw      t0, 4(a4)
00000000 00000094 0006 80002898  x2:0011e730 x2=0011e730                 # andi    sp, sp, -8
00000000 00000143 0001 80002648  x15:0011ff70 WA:0011ffac                # sw      zero, 60(a5)
00000000 00000106 0004 800028dc  x2:0011ef40 x2=0011ef2c                 # addi    sp, sp, -20
00000000 00000109 0008 800028e8  x2:0011df0c x12:00100000 WA:0011df14    # sw      a2, 8(sp)
00000000 00000061 0000 800027f4  f21=        0.000000                    # fcvt.d.w fs5, zero
00000000 00000114 0007 800025d4  x15:0011ff70 x15:0011ff70 WA:0011ff70   # sw      a5, 0(a5)
00000000 00000103 0003 800028d0  x5:80002dd8 x5=80002ddc                 # addi    t0, t0, 4
00000000 00000130 0002 80002614  x15:0011ff70 x11:00000009 WA:0011ff8c   # sw      a1, 28(a5)
00000000 00000121 0005 800025f0  x17:00000001 x16:00000001 x16=00000001  # mul     a6, a7, a6
00000000 00000122 0005 800025f4  x16:00000001 x5:00000009 x10=00000009   # mul     a0, a6, t0
00000000 00000144 0001 8000264c  x14:01000000 RA:01000010 x10=00020000   # lw      a0, 16(a4)
00000000 00000107 0004 800028e0  x2:0011ef2c x10:00000004 WA:0011ef2c    # sw      a0, 0(sp)
00000000 00000110 0008 800028ec  x2:0011df0c x13:0011db28 WA:0011df18    # sw      a3, 12(sp)
00000000 00000062 0000 800027f8  f22=        0.000000                    # fcvt.d.w fs6, zero
00000000 00000115 0007 800025d8  x15:0011ff70 x14:01000000 WA:0011ff74   # sw      a4, 4(a5)
00000000 00000104 0003 800028d4  x29:0011f348 x29=0011f34c               # addi    t4, t4, 4
00000000 00000131 0002 80002618  x14:01000000 RA:01000018 x10=80000000   # lw      a0, 24(a4)
00000000 00000132 0002 8000261c  x11=10000000                            # lui     a1, 0x10000
00000000 00000123 0005 800025f8  x15:0011ff70 x10:00000009 WA:0011ff7c   # sw      a0, 12(a5)
00000000 00000145 0001 80002650  x12:00100000 x10:00020000 x16=00120000  # add     a6, a2, a0
00000000 00000108 0004 800028e4  x2:0011ef2c x11:00000009 WA:0011ef30    # sw      a1, 4(sp)
00000000 00000111 0008 800028f0  x2:0011df0c x14:01000000 WA:0011df1c    # sw      a4, 16(sp)
00000000 00000063 0000 800027fc  f23=        0.000000                    # fcvt.d.w fs7, zero
00000000 00000116 0007 800025dc  x14:01000000 RA:01000008 x6=00000000    # lw      t1, 8(a4)
00000000 00000105 0003 800028d8  x5:80002ddc x7:80002dd8                 # blt     t0, t2, pc - 12
00000000 00000095 0006 8000289c  x4:0011e730 x29=0011e730                # mv      t4, tp
00000000 00000133 0002 80002620  x10:80000000 x11:10000000 x10=90000000  # add     a0, a0, a1
00000000 00000124 0005 800025fc  x17=00000005                            # csrr    a7, mhartid
00000000 00000146 0001 80002654  x16:00120000 x11=00120190               # addi    a1, a6, 400
00000000 00000109 0004 800028e8  x2:0011ef2c x12:00100000 WA:0011ef34    # sw      a2, 8(sp)
00000000 00000112 0008 800028f4  x1=800028f4                             # auipc   ra, 0x0
00000000 00000064 0000 80002800  f24=        0.000000                    # fcvt.d.w fs8, zero
00000000 00000065 0000 80002804  f25=        0.000000                    # fcvt.d.w fs9, zero
00000000 00000106 0003 800028dc  x2:0011f348 x2=0011f334                 # addi    sp, sp, -20
00000000 00000107 0003 800028e0  x2:0011f334 x10:00000003 WA:0011f334    # sw      a0, 0(sp)
00000000 00000134 0002 80002624  x15:0011ff70 WA:0011ff94                # sw      zero, 36(a5)
00000000 00000125 0005 80002600  x17:00000005 x6:00000000 x10=00000005   # sub     a0, a7, t1
00000000 00000147 0001 80002658  x15:0011ff70 x11:00120190 WA:0011ffe0   # sw      a1, 112(a5)
00000000 00000126 0005 80002604  x10:00000005 x5:00000009 x10=00000000   # divu    a0, a0, t0
00000000 00000110 0004 800028ec  x2:0011ef2c x13:0011db28 WA:0011ef38    # sw      a3, 12(sp)
00000000 00000113 0008 800028f8  x1:800028f4 x1=800028fc                 # jalr    ra, ra, -800
00000000 00000117 0007 800025e0  x15:0011ff70 x6:00000000 WA:0011ff78    # sw      t1, 8(a5)
00000000 00000066 0000 80002808  f26=        0.000000                    # fcvt.d.w fs10, zero
00000000 00000067 0000 8000280c  f27=        0.000000                    # fcvt.d.w fs11, zero
00000000 00000108 0003 800028e4  x2:0011f334 x11:00000009 WA:0011f338    # sw      a1, 4(sp)
00000000 00000135 0002 80002628  x15:0011ff70 x10:90000000 WA:0011ff90   # sw      a0, 32(a5)
00000000 00000148 0001 8000265c  x16:00120000 x10:00020000 x5=00000000   # sltu    t0, a6, a0
00000000 00000127 0005 80002608  x15:0011ff70 x10:00000000 WA:0011ff80   # sw      a0, 16(a5)
00000000 00000111 0004 800028f0  x2:0011ef2c x14:01000000 WA:0011ef3c    # sw      a4, 16(sp)
00000000 00000112 0004 800028f4  x1=800028f4                             # auipc   ra, 0x0
00000000 00000113 0004 800028f8  x1:800028f4 x1=800028fc                 # jalr    ra, ra, -800
00000000 00000096 0006 800028a0  x5:80002dd8 x6:80002dd8                 # bge     t0, t1, pc + 24
00000000 00000068 0000 80002810  f28=        0.000000                    # fcvt.d.w ft8, zero
00000000 00000109 0003 800028e8  x2:0011f334 x12:00100000 WA:0011f33c    # sw      a2, 8(sp)
00000000 00000136 0002 8000262c  x14:01000000 RA:01000020 x10=00000000   # lw      a0, 32(a4)
00000000 00000149 0001 80002660  x10:00020000 x11=00010000               # srli    a1, a0, 1
00000000 00000128 0005 8000260c  x15:0011ff70 x16:00000001 WA:0011ff84   # sw      a6, 20(a5)
00000000 00000114 0008 800025d4  x15:0011ff70 x15:0011ff70 WA:0011ff70   # sw      a5, 0(a5)
00000000 00000118 0007 800025e4  x14:01000000 RA:01000028 x16=00000001   # lw      a6, 40(a4)
00000000 00000114 0004 800025d4  x15:0011ff70 x15:0011ff70 WA:0011ff70   # sw      a5, 0(a5)
00000000 00000115 0004 800025d8  x15:0011ff70 x14:01000000 WA:0011ff74   # sw      a4, 4(a5)
00000000 00000069 0000 80002814  f29=        0.000000                    # fcvt.d.w ft9, zero
00000000 00000110 0003 800028ec  x2:0011f334 x13:0011db28 WA:0011f340    # sw      a3, 12(sp)
00000000 00000137 0002 80002630  x14:01000000 RA:01000024 x11=00000001   # lw      a1, 36(a4)
00000000 00000150 0001 80002664  x16:00120000 x11:00010000 x6=00130000   # add     t1, a6, a1
00000000 00000129 0005 80002610  x15:0011ff70 x6:00000000 WA:0011ff88    # sw      t1, 24(a5)
00000000 00000115 0008 800025d8  x15:0011ff70 x14:01000000 WA:0011ff74   # sw      a4, 4(a5)
00000000 00000119 0007 800025e8  x14:01000000 RA:0100002c x17=00000001   # lw      a7, 44(a4)
00000000 00000097 0006 800028b8  x5=800028b8                             # auipc   t0, 0x0
00000000 00000116 0004 800025dc  x14:01000000 RA:01000008 x6=00000000    # lw      t1, 8(a4)
00000000 00000070 0000 80002818  f30=        0.000000                    # fcvt.d.w ft10, zero
00000000 00000111 0003 800028f0  x2:0011f334 x14:01000000 WA:0011f344    # sw      a4, 16(sp)
00000000 00000138 0002 80002634  x15:0011ff70 x10:00000000 WA:0011ff98   # sw      a0, 40(a5)
00000000 00000151 0001 80002668  x6:00130000 x16:00120000 x11=00000000   # sltu    a1, t1, a6
00000000 00000130 0005 80002614  x15:0011ff70 x11:00000009 WA:0011ff8c   # sw      a1, 28(a5)
00000000 00000116 0008 800025dc  x14:01000000 RA:01000008 x6=00000000    # lw      t1, 8(a4)
00000000 00000120 0007 800025ec  x14:01000000 RA:01000004 x5=00000009    # lw      t0, 4(a4)
00000000 00000098 0006 800028bc  x5:800028b8 x5=80002dd8                 # addi    t0, t0, 1312
00000000 00000117 0004 800025e0  x15:0011ff70 x6:00000000 WA:0011ff78    # sw      t1, 8(a5)
00000000 00000071 0000 8000281c  f31=        0.000000                    # fcvt.d.w ft11, zero
00000000 00000112 0003 800028f4  x1=800028f4                             # auipc   ra, 0x0
00000000 00000139 0002 80002638  x15:0011ff70 x11:00000001 WA:0011ff9c   # sw      a1, 44(a5)
00000000 00000152 0001 8000266c  x5:00000000 x11:00000000 x11=00000000   # add     a1, t0, a1
00000000 00000131 0005 80002618  x14:01000000 RA:01000018 x10=80000000   # lw      a0, 24(a4)
00000000 00000117 0008 800025e0  x15:0011ff70 x6:00000000 WA:0011ff78    # sw      t1, 8(a5)
00000000 00000121 0007 800025f0  x17:00000001 x16:00000001 x16=00000001  # mul     a6, a7, a6
00000000 00000122 0007 800025f4  x16:00000001 x5:00000009 x10=00000009   # mul     a0, a6, t0
00000000 00000123 0007 800025f8  x15:0011ff70 x10:00000009 WA:0011ff7c   # sw      a0, 12(a5)
00000000 00000124 0007 800025fc  x17=00000007                            # csrr    a7, mhartid
00000000 00000113 0003 800028f8  x1:800028f4 x1=800028fc                 # jalr    ra, ra, -800
00000000 00000140 0002 8000263c  x15:0011ff70 x12:00100000 WA:0011ffa0   # sw      a2, 48(a5)
00000000 00000153 0001 80002670  x15:0011ff70 x6:00130000 WA:0011ffb0    # sw      t1, 64(a5)
00000000 00000132 0005 8000261c  x11=10000000                            # lui     a1, 0x10000
00000000 00000118 0008 800025e4  x14:01000000 RA:01000028 x16=00000001   # lw      a6, 40(a4)
00000000 00000119 0008 800025e8  x14:01000000 RA:0100002c x17=00000001   # lw      a7, 44(a4)
00000000 00000120 0008 800025ec  x14:01000000 RA:01000004 x5=00000009    # lw      t0, 4(a4)
00000000 00000121 0008 800025f0  x17:00000001 x16:00000001 x16=00000001  # mul     a6, a7, a6
00000000 00000125 0007 80002600  x17:00000007 x6:00000000 x10=00000007   # sub     a0, a7, t1
00000000 00000114 0003 800025d4  x15:0011ff70 x15:0011ff70 WA:0011ff70   # sw      a5, 0(a5)
00000000 00000141 0002 80002640  x15:0011ff70 WA:0011ffa4                # sw      zero, 52(a5)
00000000 00000154 0001 80002674  x15:0011ff70 x11:00000000 WA:0011ffb4   # sw      a1, 68(a5)
00000000 00000133 0005 80002620  x10:80000000 x11:10000000 x10=90000000  # add     a0, a0, a1
00000000 00000134 0005 80002624  x15:0011ff70 WA:0011ff94                # sw      zero, 36(a5)
00000000 00000118 0004 800025e4  x14:01000000 RA:01000028 x16=00000001   # lw      a6, 40(a4)
00000000 00000072 0000 80002820  x13:00120000 x13=0011fff8               # addi    a3, a3, -8
00000000 00000122 0008 800025f4  x16:00000001 x5:00000009 x10=00000009   # mul     a0, a6, t0
00000000 00000126 0007 80002604  x10:00000007 x5:00000009 x10=00000000   # divu    a0, a0, t0
00000000 00000115 0003 800025d8  x15:0011ff70 x14:01000000 WA:0011ff74   # sw      a4, 4(a5)
00000000 00000142 0002 80002644  x15:0011ff70 x13:0011db28 WA:0011ffa8   # sw      a3, 56(a5)
00000000 00000143 0002 80002648  x15:0011ff70 WA:0011ffac                # sw      zero, 60(a5)
00000000 00000144 0002 8000264c  x14:01000000 RA:01000010 x10=00020000   # lw      a0, 16(a4)
00000000 00000145 0002 80002650  x12:00100000 x10:00020000 x16=00120000  # add     a6, a2, a0
00000000 00000146 0002 80002654  x16:00120000 x11=00120190               # addi    a1, a6, 400
00000000 00000073 0000 80002824  x13:0011fff8 WA:0011fff8                # sw      zero, 0(a3)
00000000 00000123 0008 800025f8  x15:0011ff70 x10:00000009 WA:0011ff7c   # sw      a0, 12(a5)
00000000 00000127 0007 80002608  x15:0011ff70 x10:00000000 WA:0011ff80   # sw      a0, 16(a5)
00000000 00000116 0003 800025dc  x14:01000000 RA:01000008 x6=00000000    # lw      t1, 8(a4)
00000000 00000155 0001 80002678  x10:00020000 x10=00040000               # slli    a0, a0, 1
00000000 00000099 0006 800028c0  x6=800028c0                             # auipc   t1, 0x0
00000000 00000135 0005 80002628  x15:0011ff70 x10:90000000 WA:0011ff90   # sw      a0, 32(a5)
00000000 00000119 0004 800025e8  x14:01000000 RA:0100002c x17=00000001   # lw      a7, 44(a4)
00000000 00000147 0002 80002658  x15:0011ff70 x11:00120190 WA:0011ffe0   # sw      a1, 112(a5)
00000000 00000074 0000 80002828  x5=80002828                             # auipc   t0, 0x0
00000000 00000124 0008 800025fc  x17=00000008                            # csrr    a7, mhartid
00000000 00000128 0007 8000260c  x15:0011ff70 x16:00000001 WA:0011ff84   # sw      a6, 20(a5)
00000000 00000117 0003 800025e0  x15:0011ff70 x6:00000000 WA:0011ff78    # sw      t1, 8(a5)
00000000 00000156 0001 8000267c  x10:00040000 x12:00100000 x11=00140000  # add     a1, a0, a2
00000000 00000100 0006 800028c4  x6:800028c0 x6=80002de8                 # addi    t1, t1, 1320
00000000 00000136 0005 8000262c  x14:01000000 RA:01000020 x10=00000000   # lw      a0, 32(a4)
00000000 00000120 0004 800025ec  x14:01000000 RA:01000004 x5=00000009    # lw      t0, 4(a4)
00000000 00000148 0002 8000265c  x16:00120000 x10:00020000 x5=00000000   # sltu    t0, a6, a0
00000000 00000075 0000 8000282c  x5:80002828 RA:80002ba8 x5=00000088     # lw      t0, 896(t0)
00000000 00000125 0008 80002600  x17:00000008 x6:00000000 x10=00000008   # sub     a0, a7, t1
00000000 00000129 0007 80002610  x15:0011ff70 x6:00000000 WA:0011ff88    # sw      t1, 24(a5)
00000000 00000126 0008 80002604  x10:00000008 x5:00000009 x10=00000000   # divu    a0, a0, t0
00000000 00000118 0003 800025e4  x14:01000000 RA:01000028 x16=00000001   # lw      a6, 40(a4)
00000000 00000157 0001 80002680  x11:00140000 x10:00040000 x10=00000000  # sltu    a0, a1, a0
00000000 00000119 0003 800025e8  x14:01000000 RA:0100002c x17=00000001   # lw      a7, 44(a4)
00000000 00000137 0005 80002630  x14:01000000 RA:01000024 x11=00000001   # lw      a1, 36(a4)
00000000 00000121 0004 800025f0  x17:00000001 x16:00000001 x16=00000001  # mul     a6, a7, a6
00000000 00000076 0000 80002830  x13:0011fff8 x5:00000088 x13=0011ff70   # sub     a3, a3, t0
00000000 00000122 0004 800025f4  x16:00000001 x5:00000009 x10=00000009   # mul     a0, a6, t0
00000000 00000127 0008 80002608  x15:0011ff70 x10:00000000 WA:0011ff80   # sw      a0, 16(a5)
00000000 00000101 0006 800028c8  x5:80002dd8 x6:80002de8                 # bge     t0, t1, pc + 20
00000000 00000158 0001 80002684  x15:0011ff70 x11:00140000 WA:0011ffb8   # sw      a1, 72(a5)
00000000 00000120 0003 800025ec  x14:01000000 RA:01000004 x5=00000009    # lw      t0, 4(a4)
00000000 00000149 0002 80002660  x10:00020000 x11=00010000               # srli    a1, a0, 1
00000000 00000138 0005 80002634  x15:0011ff70 x10:00000000 WA:0011ff98   # sw      a0, 40(a5)
00000000 00000130 0007 80002614  x15:0011ff70 x11:00000009 WA:0011ff8c   # sw      a1, 28(a5)
00000000 00000077 0000 80002834  x13:0011ff70 x15=0011ff70               # mv      a5, a3
00000000 00000078 0000 80002838  x7=80002838                             # auipc   t2, 0x0
00000000 00000128 0008 8000260c  x15:0011ff70 x16:00000001 WA:0011ff84   # sw      a6, 20(a5)
00000000 00000102 0006 800028cc  x29:0011e730 WA:0011e730                # sw      zero, 0(t4)
00000000 00000159 0001 80002688  x15:0011ff70 x10:00000000 WA:0011ffbc   # sw      a0, 76(a5)
00000000 00000121 0003 800025f0  x17:00000001 x16:00000001 x16=00000001  # mul     a6, a7, a6
00000000 00000150 0002 80002664  x16:00120000 x11:00010000 x6=00130000   # add     t1, a6, a1
00000000 00000139 0005 80002638  x15:0011ff70 x11:00000001 WA:0011ff9c   # sw      a1, 44(a5)
00000000 00000131 0007 80002618  x14:01000000 RA:01000018 x10=80000000   # lw      a0, 24(a4)
00000000 00000132 0007 8000261c  x11=10000000                            # lui     a1, 0x10000
00000000 00000133 0007 80002620  x10:80000000 x11:10000000 x10=90000000  # add     a0, a0, a1
00000000 00000129 0008 80002610  x15:0011ff70 x6:00000000 WA:0011ff88    # sw      t1, 24(a5)
00000000 00000130 0008 80002614  x15:0011ff70 x11:00000009 WA:0011ff8c   # sw      a1, 28(a5)
00000000 00000131 0008 80002618  x14:01000000 RA:01000018 x10=80000000   # lw      a0, 24(a4)
00000000 00000132 0008 8000261c  x11=10000000                            # lui     a1, 0x10000
00000000 00000133 0008 80002620  x10:80000000 x11:10000000 x10=90000000  # add     a0, a0, a1
00000000 00000134 0008 80002624  x15:0011ff70 WA:0011ff94                # sw      zero, 36(a5)
00000000 00000135 0008 80002628  x15:0011ff70 x10:90000000 WA:0011ff90   # sw      a0, 32(a5)
00000000 00000136 0008 8000262c  x14:01000000 RA:01000020 x10=00000000   # lw      a0, 32(a4)
00000000 00000134 0007 80002624  x15:0011ff70 WA:0011ff94                # sw      zero, 36(a5)
00000000 00000135 0007 80002628  x15:0011ff70 x10:90000000 WA:0011ff90   # sw      a0, 32(a5)
00000000 00000136 0007 8000262c  x14:01000000 RA:01000020 x10=00000000   # lw      a0, 32(a4)
00000000 00000137 0007 80002630  x14:01000000 RA:01000024 x11=00000001   # lw      a1, 36(a4)
00000000 00000138 0007 80002634  x15:0011ff70 x10:00000000 WA:0011ff98   # sw      a0, 40(a5)
00000000 00000139 0007 80002638  x15:0011ff70 x11:00000001 WA:0011ff9c   # sw      a1, 44(a5)
00000000 00000140 0007 8000263c  x15:0011ff70 x12:00100000 WA:0011ffa0   # sw      a2, 48(a5)
00000000 00000141 0007 80002640  x15:0011ff70 WA:0011ffa4                # sw      zero, 52(a5)
00000000 00000137 0008 80002630  x14:01000000 RA:01000024 x11=00000001   # lw      a1, 36(a4)
00000000 00000138 0008 80002634  x15:0011ff70 x10:00000000 WA:0011ff98   # sw      a0, 40(a5)
00000000 00000139 0008 80002638  x15:0011ff70 x11:00000001 WA:0011ff9c   # sw      a1, 44(a5)
00000000 00000140 0008 8000263c  x15:0011ff70 x12:00100000 WA:0011ffa0   # sw      a2, 48(a5)
00000000 00000141 0008 80002640  x15:0011ff70 WA:0011ffa4                # sw      zero, 52(a5)
00000000 00000142 0008 80002644  x15:0011ff70 x13:0011db28 WA:0011ffa8   # sw      a3, 56(a5)
00000000 00000143 0008 80002648  x15:0011ff70 WA:0011ffac                # sw      zero, 60(a5)
00000000 00000144 0008 8000264c  x14:01000000 RA:01000010 x10=00020000   # lw      a0, 16(a4)
00000000 00000142 0007 80002644  x15:0011ff70 x13:0011db28 WA:0011ffa8   # sw      a3, 56(a5)
00000000 00000143 0007 80002648  x15:0011ff70 WA:0011ffac                # sw      zero, 60(a5)
00000000 00000144 0007 8000264c  x14:01000000 RA:01000010 x10=00020000   # lw      a0, 16(a4)
00000000 00000145 0007 80002650  x12:00100000 x10:00020000 x16=00120000  # add     a6, a2, a0
00000000 00000146 0007 80002654  x16:00120000 x11=00120190               # addi    a1, a6, 400
00000000 00000147 0007 80002658  x15:0011ff70 x11:00120190 WA:0011ffe0   # sw      a1, 112(a5)
00000000 00000148 0007 8000265c  x16:00120000 x10:00020000 x5=00000000   # sltu    t0, a6, a0
00000000 00000149 0007 80002660  x10:00020000 x11=00010000               # srli    a1, a0, 1
00000000 00000145 0008 80002650  x12:00100000 x10:00020000 x16=00120000  # add     a6, a2, a0
00000000 00000146 0008 80002654  x16:00120000 x11=00120190               # addi    a1, a6, 400
00000000 00000147 0008 80002658  x15:0011ff70 x11:00120190 WA:0011ffe0   # sw      a1, 112(a5)
00000000 00000148 0008 8000265c  x16:00120000 x10:00020000 x5=00000000   # sltu    t0, a6, a0
00000000 00000149 0008 80002660  x10:00020000 x11=00010000               # srli    a1, a0, 1
00000000 00000150 0008 80002664  x16:00120000 x11:00010000 x6=00130000   # add     t1, a6, a1
00000000 00000151 0008 80002668  x6:00130000 x16:00120000 x11=00000000   # sltu    a1, t1, a6
00000000 00000152 0008 8000266c  x5:00000000 x11:00000000 x11=00000000   # add     a1, t0, a1
00000000 00000150 0007 80002664  x16:00120000 x11:00010000 x6=00130000   # add     t1, a6, a1
00000000 00000151 0007 80002668  x6:00130000 x16:00120000 x11=00000000   # sltu    a1, t1, a6
00000000 00000152 0007 8000266c  x5:00000000 x11:00000000 x11=00000000   # add     a1, t0, a1
00000000 00000153 0007 80002670  x15:0011ff70 x6:00130000 WA:0011ffb0    # sw      t1, 64(a5)
00000000 00000154 0007 80002674  x15:0011ff70 x11:00000000 WA:0011ffb4   # sw      a1, 68(a5)
00000000 00000155 0007 80002678  x10:00020000 x10=00040000               # slli    a0, a0, 1
00000000 00000156 0007 8000267c  x10:00040000 x12:00100000 x11=00140000  # add     a1, a0, a2
00000000 00000157 0007 80002680  x11:00140000 x10:00040000 x10=00000000  # sltu    a0, a1, a0
00000000 00000153 0008 80002670  x15:0011ff70 x6:00130000 WA:0011ffb0    # sw      t1, 64(a5)
00000000 00000154 0008 80002674  x15:0011ff70 x11:00000000 WA:0011ffb4   # sw      a1, 68(a5)
00000000 00000155 0008 80002678  x10:00020000 x10=00040000               # slli    a0, a0, 1
00000000 00000156 0008 8000267c  x10:00040000 x12:00100000 x11=00140000  # add     a1, a0, a2
00000000 00000151 0002 80002668  x6:00130000 x16:00120000 x11=00000000   # sltu    a1, t1, a6
00000000 00000140 0005 8000263c  x15:0011ff70 x12:00100000 WA:0011ffa0   # sw      a2, 48(a5)
00000000 00000141 0005 80002640  x15:0011ff70 WA:0011ffa4                # sw      zero, 52(a5)
00000000 00000079 0000 8000283c  x7:80002838 RA:80002bac x7=0000000a     # lw      t2, 884(t2)
00000000 00000158 0007 80002684  x15:0011ff70 x11:00140000 WA:0011ffb8   # sw      a1, 72(a5)
00000000 00000103 0006 800028d0  x5:80002dd8 x5=80002ddc                 # addi    t0, t0, 4
00000000 00000160 0001 8000268c  x15:0011ff70 WA:0011ffd8                # sw      zero, 104(a5)
00000000 00000122 0003 800025f4  x16:00000001 x5:00000009 x10=00000009   # mul     a0, a6, t0
00000000 00000157 0008 80002680  x11:00140000 x10:00040000 x10=00000000  # sltu    a0, a1, a0
00000000 00000152 0002 8000266c  x5:00000000 x11:00000000 x11=00000000   # add     a1, t0, a1
00000000 00000153 0002 80002670  x15:0011ff70 x6:00130000 WA:0011ffb0    # sw      t1, 64(a5)
00000000 00000142 0005 80002644  x15:0011ff70 x13:0011db28 WA:0011ffa8   # sw      a3, 56(a5)
00000000 00000080 0000 80002840  x10:00000000 x7:0000000a x5=00000000    # sll     t0, a0, t2
00000000 00000159 0007 80002688  x15:0011ff70 x10:00000000 WA:0011ffbc   # sw      a0, 76(a5)
00000000 00000160 0007 8000268c  x15:0011ff70 WA:0011ffd8                # sw      zero, 104(a5)
00000000 00000161 0007 80002690  x15:0011ff70 WA:0011ffdc                # sw      zero, 108(a5)
00000000 00000123 0003 800025f8  x15:0011ff70 x10:00000009 WA:0011ff7c   # sw      a0, 12(a5)
00000000 00000124 0003 800025fc  x17=00000003                            # csrr    a7, mhartid
00000000 00000125 0003 80002600  x17:00000003 x6:00000000 x10=00000003   # sub     a0, a7, t1
00000000 00000154 0002 80002674  x15:0011ff70 x11:00000000 WA:0011ffb4   # sw      a1, 68(a5)
00000000 00000143 0005 80002648  x15:0011ff70 WA:0011ffac                # sw      zero, 60(a5)
00000000 00000081 0000 80002844  x11:00000009 x7:0000000a x6=00002400    # sll     t1, a1, t2
00000000 00000082 0000 80002848  x13:0011ff70 x5:00000000 x2=0011ff70    # sub     sp, a3, t0
00000000 00000161 0001 80002690  x15:0011ff70 WA:0011ffdc                # sw      zero, 108(a5)
00000000 00000162 0007 80002694  x10=00000000                            # lui     a0, 0x0
00000000 00000158 0008 80002684  x15:0011ff70 x11:00140000 WA:0011ffb8   # sw      a1, 72(a5)
00000000 00000159 0008 80002688  x15:0011ff70 x10:00000000 WA:0011ffbc   # sw      a0, 76(a5)
00000000 00000160 0008 8000268c  x15:0011ff70 WA:0011ffd8                # sw      zero, 104(a5)
00000000 00000161 0008 80002690  x15:0011ff70 WA:0011ffdc                # sw      zero, 108(a5)
00000000 00000144 0005 8000264c  x14:01000000 RA:01000010 x10=00020000   # lw      a0, 16(a4)
00000000 00000104 0006 800028d4  x29:0011e730 x29=0011e734               # addi    t4, t4, 4
00000000 00000083 0000 8000284c  x13:0011ff70 x6:00002400 x13=0011db70   # sub     a3, a3, t1
00000000 00000162 0001 80002694  x10=00000000                            # lui     a0, 0x0
00000000 00000163 0007 80002698  x10:00000000 x4:0011e328 x10=0011e328   # add     a0, a0, tp
00000000 00000123 0004 800025f8  x15:0011ff70 x10:00000009 WA:0011ff7c   # sw      a0, 12(a5)
00000000 00000126 0003 80002604  x10:00000003 x5:00000009 x10=00000000   # divu    a0, a0, t0
00000000 00000155 0002 80002678  x10:00020000 x10=00040000               # slli    a0, a0, 1
00000000 00000162 0008 80002694  x10=00000000                            # lui     a0, 0x0
00000000 00000145 0005 80002650  x12:00100000 x10:00020000 x16=00120000  # add     a6, a2, a0
00000000 00000146 0005 80002654  x16:00120000 x11=00120190               # addi    a1, a6, 400
00000000 00000084 0000 80002850  x10:00000000 x5=00000000                # slli    t0, a0, 3
00000000 00000163 0001 80002698  x10:00000000 x4:0011fb58 x10=0011fb58   # add     a0, a0, tp
00000000 00000164 0007 8000269c  x10:0011e328 x15:0011ff70 WA:0011e328   # sw      a5, 0(a0)
00000000 00000124 0004 800025fc  x17=00000004                            # csrr    a7, mhartid
00000000 00000127 0003 80002608  x15:0011ff70 x10:00000000 WA:0011ff80   # sw      a0, 16(a5)
00000000 00000156 0002 8000267c  x10:00040000 x12:00100000 x11=00140000  # add     a1, a0, a2
00000000 00000163 0008 80002698  x10:00000000 x4:0011df20 x10=0011df20   # add     a0, a0, tp
00000000 00000164 0008 8000269c  x10:0011df20 x15:0011ff70 WA:0011df20   # sw      a5, 0(a0)
00000000 00000165 0008 800026a0  x15:0011ff70 RA:0011ff70 x10=0011ff70   # lw      a0, 0(a5)
00000000 00000166 0008 800026a4  x10:0011ff70 RA:0011ff88 x11=00000000   # lw      a1, 24(a0)
00000000 00000167 0008 800026a8  x10:0011ff70 RA:0011ff8c x10=00000009   # lw      a0, 28(a0)
00000000 00000165 0007 800026a0  x15:0011ff70 RA:0011ff70 x10=0011ff70   # lw      a0, 0(a5)
00000000 00000166 0007 800026a4  x10:0011ff70 RA:0011ff88 x11=00000000   # lw      a1, 24(a0)
00000000 00000167 0007 800026a8  x10:0011ff70 RA:0011ff8c x10=00000009   # lw      a0, 28(a0)
00000000 00000168 0007 800026ac  x17:00000007 x11:00000000 x11=00000007  # sub     a1, a7, a1
00000000 00000169 0007 800026b0  x11:00000007 x10:00000009 x10=00000007  # remu    a0, a1, a0
00000000 00000170 0007 800026b4  x11=00000000                            # lui     a1, 0x0
00000000 00000085 0000 80002854  x11:00000009 x6=00000048                # slli    t1, a1, 3
00000000 00000164 0001 8000269c  x10:0011fb58 x15:0011ff70 WA:0011fb58   # sw      a5, 0(a0)
00000000 00000168 0008 800026ac  x17:00000008 x11:00000000 x11=00000008  # sub     a1, a7, a1
00000000 00000125 0004 80002600  x17:00000004 x6:00000000 x10=00000004   # sub     a0, a7, t1
00000000 00000128 0003 8000260c  x15:0011ff70 x16:00000001 WA:0011ff84   # sw      a6, 20(a5)
00000000 00000126 0004 80002604  x10:00000004 x5:00000009 x10=00000000   # divu    a0, a0, t0
00000000 00000105 0006 800028d8  x5:80002ddc x7:80002dd8                 # blt     t0, t2, pc - 12
00000000 00000147 0005 80002658  x15:0011ff70 x11:00120190 WA:0011ffe0   # sw      a1, 112(a5)
00000000 00000171 0007 800026b8  x11:00000000 x4:0011e328 x11=0011e328   # add     a1, a1, tp
00000000 00000086 0000 80002858  x2:0011ff70 x5:00000000 x2=0011ff70     # sub     sp, sp, t0
00000000 00000165 0001 800026a0  x15:0011ff70 RA:0011ff70 x10=0011ff70   # lw      a0, 0(a5)
00000000 00000169 0008 800026b0  x11:00000008 x10:00000009 x10=00000008  # remu    a0, a1, a0
00000000 00000157 0002 80002680  x11:00140000 x10:00040000 x10=00000000  # sltu    a0, a1, a0
00000000 00000129 0003 80002610  x15:0011ff70 x6:00000000 WA:0011ff88    # sw      t1, 24(a5)
00000000 00000130 0003 80002614  x15:0011ff70 x11:00000009 WA:0011ff8c   # sw      a1, 28(a5)
00000000 00000106 0006 800028dc  x2:0011e730 x2=0011e71c                 # addi    sp, sp, -20
00000000 00000148 0005 8000265c  x16:00120000 x10:00020000 x5=00000000   # sltu    t0, a6, a0
00000000 00000172 0007 800026bc  x11:0011e328 x10:00000007 WA:0011e32c   # sw      a0, 4(a1)
00000000 00000087 0000 8000285c  x13:0011db70 x6:00000048 x13=0011db28   # sub     a3, a3, t1
00000000 00000166 0001 800026a4  x10:0011ff70 RA:0011ff88 x11=00000000   # lw      a1, 24(a0)
00000000 00000170 0008 800026b4  x11=00000000                            # lui     a1, 0x0
00000000 00000158 0002 80002684  x15:0011ff70 x11:00140000 WA:0011ffb8   # sw      a1, 72(a5)
00000000 00000159 0002 80002688  x15:0011ff70 x10:00000000 WA:0011ffbc   # sw      a0, 76(a5)
00000000 00000131 0003 80002618  x14:01000000 RA:01000018 x10=80000000   # lw      a0, 24(a4)
00000000 00000107 0006 800028e0  x2:0011e71c x10:00000006 WA:0011e71c    # sw      a0, 0(sp)
00000000 00000149 0005 80002660  x10:00020000 x11=00010000               # srli    a1, a0, 1
00000000 00000173 0007 800026c0  x10=00000448                            # li      a0, 1096
00000000 00000088 0000 80002860  x5=80002860                             # auipc   t0, 0x0
00000000 00000167 0001 800026a8  x10:0011ff70 RA:0011ff8c x10=00000009   # lw      a0, 28(a0)
00000000 00000171 0008 800026b8  x11:00000000 x4:0011df20 x11=0011df20   # add     a1, a1, tp
00000000 00000127 0004 80002608  x15:0011ff70 x10:00000000 WA:0011ff80   # sw      a0, 16(a5)
00000000 00000160 0002 8000268c  x15:0011ff70 WA:0011ffd8                # sw      zero, 104(a5)
00000000 00000128 0004 8000260c  x15:0011ff70 x16:00000001 WA:0011ff84   # sw      a6, 20(a5)
00000000 00000161 0002 80002690  x15:0011ff70 WA:0011ffdc                # sw      zero, 108(a5)
00000000 00000150 0005 80002664  x16:00120000 x11:00010000 x6=00130000   # add     t1, a6, a1
00000000 00000174 0007 800026c4  x17:00000007 x10:00000448 x10=00001df8  # mul     a0, a7, a0
00000000 00000089 0000 80002864  x5:80002860 x5=80002dd8                 # addi    t0, t0, 1400
00000000 00000168 0001 800026ac  x17:00000001 x11:00000000 x11=00000001  # sub     a1, a7, a1
00000000 00000172 0008 800026bc  x11:0011df20 x10:00000008 WA:0011df24   # sw      a0, 4(a1)
00000000 00000173 0008 800026c0  x10=00000448                            # li      a0, 1096
00000000 00000108 0006 800028e4  x2:0011e71c x11:00000009 WA:0011e720    # sw      a1, 4(sp)
00000000 00000129 0004 80002610  x15:0011ff70 x6:00000000 WA:0011ff88    # sw      t1, 24(a5)
00000000 00000162 0002 80002694  x10=00000000                            # lui     a0, 0x0
00000000 00000151 0005 80002668  x6:00130000 x16:00120000 x11=00000000   # sltu    a1, t1, a6
00000000 00000175 0007 800026c8  x11=800036c8                            # auipc   a1, 0x1
00000000 00000090 0000 80002868  x6=80002868                             # auipc   t1, 0x0
00000000 00000169 0001 800026b0  x11:00000001 x10:00000009 x10=00000001  # remu    a0, a1, a0
00000000 00000132 0003 8000261c  x11=10000000                            # lui     a1, 0x10000
00000000 00000174 0008 800026c4  x17:00000008 x10:00000448 x10=00002240  # mul     a0, a7, a0
00000000 00000109 0006 800028e8  x2:0011e71c x12:00100000 WA:0011e724    # sw      a2, 8(sp)
00000000 00000110 0006 800028ec  x2:0011e71c x13:0011db28 WA:0011e728    # sw      a3, 12(sp)
00000000 00000111 0006 800028f0  x2:0011e71c x14:01000000 WA:0011e72c    # sw      a4, 16(sp)
00000000 00000112 0006 800028f4  x1=800028f4                             # auipc   ra, 0x0
00000000 00000113 0006 800028f8  x1:800028f4 x1=800028fc                 # jalr    ra, ra, -800
00000000 00000091 0000 8000286c  x6:80002868 x6=80002dd8                 # addi    t1, t1, 1392
00000000 00000170 0001 800026b4  x11=00000000                            # lui     a1, 0x0
00000000 00000133 0003 80002620  x10:80000000 x11:10000000 x10=90000000  # add     a0, a0, a1
00000000 00000175 0008 800026c8  x11=800036c8                            # auipc   a1, 0x1
00000000 00000176 0008 800026cc  x11:800036c8 x11=80002ed4               # addi    a1, a1, -2036
00000000 00000177 0008 800026d0  x10:00002240 x11:80002ed4 x10=80005114  # add     a0, a0, a1
00000000 00000152 0005 8000266c  x5:00000000 x11:00000000 x11=00000000   # add     a1, t0, a1
00000000 00000176 0007 800026cc  x11:800036c8 x11=80002ed4               # addi    a1, a1, -2036
00000000 00000114 0006 800025d4  x15:0011ff70 x15:0011ff70 WA:0011ff70   # sw      a5, 0(a5)
00000000 00000092 0000 80002870  x7=80002870                             # auipc   t2, 0x0
00000000 00000171 0001 800026b8  x11:00000000 x4:0011fb58 x11=0011fb58   # add     a1, a1, tp
00000000 00000134 0003 80002624  x15:0011ff70 WA:0011ff94                # sw      zero, 36(a5)
00000000 00000135 0003 80002628  x15:0011ff70 x10:90000000 WA:0011ff90   # sw      a0, 32(a5)
00000000 00000163 0002 80002698  x10:00000000 x4:0011f750 x10=0011f750   # add     a0, a0, tp
00000000 00000178 0008 800026d4  x10:80005114 WA:80005114                # sw      zero, 0(a0)
00000000 00000153 0005 80002670  x15:0011ff70 x6:00130000 WA:0011ffb0    # sw      t1, 64(a5)
00000000 00000177 0007 800026d0  x10:00001df8 x11:80002ed4 x10=80004ccc  # add     a0, a0, a1
00000000 00000115 0006 800025d8  x15:0011ff70 x14:01000000 WA:0011ff74   # sw      a4, 4(a5)
00000000 00000093 0000 80002874  x7:80002870 x7=80002dd8                 # addi    t2, t2, 1384
00000000 00000094 0000 80002878  x28=80002878                            # auipc   t3, 0x0
00000000 00000130 0004 80002614  x15:0011ff70 x11:00000009 WA:0011ff8c   # sw      a1, 28(a5)
00000000 00000136 0003 8000262c  x14:01000000 RA:01000020 x10=00000000   # lw      a0, 32(a4)
00000000 00000131 0004 80002618  x14:01000000 RA:01000018 x10=80000000   # lw      a0, 24(a4)
00000000 00000137 0003 80002630  x14:01000000 RA:01000024 x11=00000001   # lw      a1, 36(a4)
00000000 00000179 0008 800026d8  x14:01000000 RA:01000030 x17=ffff0000   # lw      a7, 48(a4)
00000000 00000154 0005 80002674  x15:0011ff70 x11:00000000 WA:0011ffb4   # sw      a1, 68(a5)
00000000 00000178 0007 800026d4  x10:80004ccc WA:80004ccc                # sw      zero, 0(a0)
00000000 00000116 0006 800025dc  x14:01000000 RA:01000008 x6=00000000    # lw      t1, 8(a4)
00000000 00000172 0001 800026bc  x11:0011fb58 x10:00000001 WA:0011fb5c   # sw      a0, 4(a1)
00000000 00000095 0000 8000287c  x28:80002878 x28=80002de8               # addi    t3, t3, 1392
00000000 00000164 0002 8000269c  x10:0011f750 x15:0011ff70 WA:0011f750   # sw      a5, 0(a0)
00000000 00000165 0002 800026a0  x15:0011ff70 RA:0011ff70 x10=0011ff70   # lw      a0, 0(a5)
00000000 00000138 0003 80002634  x15:0011ff70 x10:00000000 WA:0011ff98   # sw      a0, 40(a5)
00000000 00000180 0008 800026dc  x15:0011ff70 x17:ffff0000 WA:0011ffe4   # sw      a7, 116(a5)
00000000 00000155 0005 80002678  x10:00020000 x10=00040000               # slli    a0, a0, 1
00000000 00000179 0007 800026d8  x14:01000000 RA:01000030 x17=ffff0000   # lw      a7, 48(a4)
00000000 00000117 0006 800025e0  x15:0011ff70 x6:00000000 WA:0011ff78    # sw      t1, 8(a5)
00000000 00000173 0001 800026c0  x10=00000448                            # li      a0, 1096
00000000 00000096 0000 80002880  x2:0011ff70 x5:80002dd8 x2=80122d48     # add     sp, sp, t0
00000000 00000132 0004 8000261c  x11=10000000                            # lui     a1, 0x10000
00000000 00000166 0002 800026a4  x10:0011ff70 RA:0011ff88 x11=00000000   # lw      a1, 24(a0)
00000000 00000133 0004 80002620  x10:80000000 x11:10000000 x10=90000000  # add     a0, a0, a1
00000000 00000167 0002 800026a8  x10:0011ff70 RA:0011ff8c x10=00000009   # lw      a0, 28(a0)
00000000 00000181 0008 800026e0  x15:0011ff70 x16:00120000 WA:0011ffec   # sw      a6, 124(a5)
00000000 00000156 0005 8000267c  x10:00040000 x12:00100000 x11=00140000  # add     a1, a0, a2
00000000 00000182 0008 800026e4  x15:0011ff70 WA:0011ffe8                # sw      zero, 120(a5)
00000000 00000118 0006 800025e4  x14:01000000 RA:01000028 x16=00000001   # lw      a6, 40(a4)
00000000 00000174 0001 800026c4  x17:00000001 x10:00000448 x10=00000448  # mul     a0, a7, a0
00000000 00000097 0000 80002884  x2:80122d48 x6:80002dd8 x2=0011ff70     # sub     sp, sp, t1
00000000 00000139 0003 80002638  x15:0011ff70 x11:00000001 WA:0011ff9c   # sw      a1, 44(a5)
00000000 00000134 0004 80002624  x15:0011ff70 WA:0011ff94                # sw      zero, 36(a5)
00000000 00000168 0002 800026ac  x17:00000002 x11:00000000 x11=00000002  # sub     a1, a7, a1
00000000 00000180 0007 800026dc  x15:0011ff70 x17:ffff0000 WA:0011ffe4   # sw      a7, 116(a5)
00000000 00000157 0005 80002680  x11:00140000 x10:00040000 x10=00000000  # sltu    a0, a1, a0
00000000 00000183 0008 800026e8  x16:00120000 x14=00120180               # addi    a4, a6, 384
00000000 00000119 0006 800025e8  x14:01000000 RA:0100002c x17=00000001   # lw      a7, 44(a4)
00000000 00000175 0001 800026c8  x11=800036c8                            # auipc   a1, 0x1
00000000 00000098 0000 80002888  x2:0011ff70 x7:80002dd8 x2=80122d48     # add     sp, sp, t2
00000000 00000140 0003 8000263c  x15:0011ff70 x12:00100000 WA:0011ffa0   # sw      a2, 48(a5)
00000000 00000141 0003 80002640  x15:0011ff70 WA:0011ffa4                # sw      zero, 52(a5)
00000000 00000169 0002 800026b0  x11:00000002 x10:00000009 x10=00000002  # remu    a0, a1, a0
00000000 00000170 0002 800026b4  x11=00000000                            # lui     a1, 0x0
00000000 00000158 0005 80002684  x15:0011ff70 x11:00140000 WA:0011ffb8   # sw      a1, 72(a5)
00000000 00000184 0008 800026ec  x15:0011ff70 x14:00120180 WA:0011fff0   # sw      a4, 128(a5)
00000000 00000120 0006 800025ec  x14:01000000 RA:01000004 x5=00000009    # lw      t0, 4(a4)
00000000 00000176 0001 800026cc  x11:800036c8 x11=80002ed4               # addi    a1, a1, -2036
00000000 00000099 0000 8000288c  x2:80122d48 x28:80002de8 x2=0011ff60    # sub     sp, sp, t3
00000000 00000100 0000 80002890  x2:0011ff60 x2=0011ff60                 # andi    sp, sp, -8
00000000 00000101 0000 80002894  x2:0011ff60 x4=0011ff60                 # mv      tp, sp
00000000 00000181 0007 800026e0  x15:0011ff70 x16:00120000 WA:0011ffec   # sw      a6, 124(a5)
00000000 00000171 0002 800026b8  x11:00000000 x4:0011f750 x11=0011f750   # add     a1, a1, tp
00000000 00000159 0005 80002688  x15:0011ff70 x10:00000000 WA:0011ffbc   # sw      a0, 76(a5)
00000000 00000185 0008 800026f0  x12:00100000 x10=00100007               # addi    a0, a2, 7
00000000 00000121 0006 800025f0  x17:00000001 x16:00000001 x16=00000001  # mul     a6, a7, a6
00000000 00000177 0001 800026d0  x10:00000448 x11:80002ed4 x10=8000331c  # add     a0, a0, a1
00000000 00000135 0004 80002628  x15:0011ff70 x10:90000000 WA:0011ff90   # sw      a0, 32(a5)
00000000 00000142 0003 80002644  x15:0011ff70 x13:0011db28 WA:0011ffa8   # sw      a3, 56(a5)
00000000 00000102 0000 80002898  x2:0011ff60 x2=0011ff60                 # andi    sp, sp, -8
00000000 00000182 0007 800026e4  x15:0011ff70 WA:0011ffe8                # sw      zero, 120(a5)
00000000 00000172 0002 800026bc  x11:0011f750 x10:00000002 WA:0011f754   # sw      a0, 4(a1)
00000000 00000160 0005 8000268c  x15:0011ff70 WA:0011ffd8                # sw      zero, 104(a5)
00000000 00000186 0008 800026f4  x10:00100007 x10=00100000               # andi    a0, a0, -8
00000000 00000122 0006 800025f4  x16:00000001 x5:00000009 x10=00000009   # mul     a0, a6, t0
00000000 00000178 0001 800026d4  x10:8000331c WA:8000331c                # sw      zero, 0(a0)
00000000 00000136 0004 8000262c  x14:01000000 RA:01000020 x10=00000000   # lw      a0, 32(a4)
00000000 00000143 0003 80002648  x15:0011ff70 WA:0011ffac                # sw      zero, 60(a5)
00000000 00000103 0000 8000289c  x4:0011ff60 x29=0011ff60                # mv      t4, tp
00000000 00000183 0007 800026e8  x16:00120000 x14=00120180               # addi    a4, a6, 384
00000000 00000173 0002 800026c0  x10=00000448                            # li      a0, 1096
00000000 00000161 0005 80002690  x15:0011ff70 WA:0011ffdc                # sw      zero, 108(a5)
00000000 00000187 0008 800026f8  x15:0011ff70 x10:00100000 WA:0011ffc0   # sw      a0, 80(a5)
00000000 00000123 0006 800025f8  x15:0011ff70 x10:00000009 WA:0011ff7c   # sw      a0, 12(a5)
00000000 00000124 0006 800025fc  x17=00000006                            # csrr    a7, mhartid
00000000 00000125 0006 80002600  x17:00000006 x6:00000000 x10=00000006   # sub     a0, a7, t1
00000000 00000144 0003 8000264c  x14:01000000 RA:01000010 x10=00020000   # lw      a0, 16(a4)
00000000 00000104 0000 800028a0  x5:80002dd8 x6:80002dd8                 # bge     t0, t1, pc + 24
00000000 00000184 0007 800026ec  x15:0011ff70 x14:00120180 WA:0011fff0   # sw      a4, 128(a5)
00000000 00000174 0002 800026c4  x17:00000002 x10:00000448 x10=00000890  # mul     a0, a7, a0
00000000 00000162 0005 80002694  x10=00000000                            # lui     a0, 0x0
00000000 00000188 0008 800026fc  x13:0011db28 x12:00100000 x12=0001db28  # sub     a2, a3, a2
00000000 00000179 0001 800026d8  x14:01000000 RA:01000030 x17=ffff0000   # lw      a7, 48(a4)
00000000 00000137 0004 80002630  x14:01000000 RA:01000024 x11=00000001   # lw      a1, 36(a4)
00000000 00000126 0006 80002604  x10:00000006 x5:00000009 x10=00000000   # divu    a0, a0, t0
00000000 00000145 0003 80002650  x12:00100000 x10:00020000 x16=00120000  # add     a6, a2, a0
00000000 00000105 0000 800028b8  x5=800028b8                             # auipc   t0, 0x0
00000000 00000185 0007 800026f0  x12:00100000 x10=00100007               # addi    a0, a2, 7
00000000 00000186 0007 800026f4  x10:00100007 x10=00100000               # andi    a0, a0, -8
00000000 00000187 0007 800026f8  x15:0011ff70 x10:00100000 WA:0011ffc0   # sw      a0, 80(a5)
00000000 00000189 0008 80002700  x15:0011ff70 x12:0001db28 WA:0011ffc4   # sw      a2, 84(a5)
00000000 00000180 0001 800026dc  x15:0011ff70 x17:ffff0000 WA:0011ffe4   # sw      a7, 116(a5)
00000000 00000181 0001 800026e0  x15:0011ff70 x16:00120000 WA:0011ffec   # sw      a6, 124(a5)
00000000 00000182 0001 800026e4  x15:0011ff70 WA:0011ffe8                # sw      zero, 120(a5)
00000000 00000146 0003 80002654  x16:00120000 x11=00120190               # addi    a1, a6, 400
00000000 00000106 0000 800028bc  x5:800028b8 x5=80002dd8                 # addi    t0, t0, 1312
00000000 00000107 0000 800028c0  x6=800028c0                             # auipc   t1, 0x0
00000000 00000108 0000 800028c4  x6:800028c0 x6=80002de8                 # addi    t1, t1, 1320
00000000 00000188 0007 800026fc  x13:0011db28 x12:00100000 x12=0001db28  # sub     a2, a3, a2
00000000 00000190 0008 80002704  x15:0011ff70 x10:00100000 WA:0011ffc8   # sw      a0, 88(a5)
00000000 00000138 0004 80002634  x15:0011ff70 x10:00000000 WA:0011ff98   # sw      a0, 40(a5)
00000000 00000127 0006 80002608  x15:0011ff70 x10:00000000 WA:0011ff80   # sw      a0, 16(a5)
00000000 00000183 0001 800026e8  x16:00120000 x14=00120180               # addi    a4, a6, 384
00000000 00000147 0003 80002658  x15:0011ff70 x11:00120190 WA:0011ffe0   # sw      a1, 112(a5)
00000000 00000175 0002 800026c8  x11=800036c8                            # auipc   a1, 0x1
00000000 00000163 0005 80002698  x10:00000000 x4:0011eb38 x10=0011eb38   # add     a0, a0, tp
00000000 00000109 0000 800028c8  x5:80002dd8 x6:80002de8                 # bge     t0, t1, pc + 20
00000000 00000189 0007 80002700  x15:0011ff70 x12:0001db28 WA:0011ffc4   # sw      a2, 84(a5)
00000000 00000191 0008 80002708  x11:80002ed4 RA:80002ed4 x10=00000000   # lw      a0, 0(a1)
00000000 00000192 0008 8000270c  x10:00000000 x10=0000044f               # addi    a0, a0, 1103
00000000 00000128 0006 8000260c  x15:0011ff70 x16:00000001 WA:0011ff84   # sw      a6, 20(a5)
00000000 00000184 0001 800026ec  x15:0011ff70 x14:00120180 WA:0011fff0   # sw      a4, 128(a5)
00000000 00000148 0003 8000265c  x16:00120000 x10:00020000 x5=00000000   # sltu    t0, a6, a0
00000000 00000176 0002 800026cc  x11:800036c8 x11=80002ed4               # addi    a1, a1, -2036
00000000 00000164 0005 8000269c  x10:0011eb38 x15:0011ff70 WA:0011eb38   # sw      a5, 0(a0)
00000000 00000110 0000 800028cc  x29:0011ff60 WA:0011ff60                # sw      zero, 0(t4)
00000000 00000190 0007 80002704  x15:0011ff70 x10:00100000 WA:0011ffc8   # sw      a0, 88(a5)
00000000 00000191 0007 80002708  x11:80002ed4 RA:80002ed4 x10=00000000   # lw      a0, 0(a1)
00000000 00000193 0008 80002710  x10:0000044f x10=00000448               # andi    a0, a0, -8
00000000 00000129 0006 80002610  x15:0011ff70 x6:00000000 WA:0011ff88    # sw      t1, 24(a5)
00000000 00000185 0001 800026f0  x12:00100000 x10=00100007               # addi    a0, a2, 7
00000000 00000149 0003 80002660  x10:00020000 x11=00010000               # srli    a1, a0, 1
00000000 00000177 0002 800026d0  x10:00000890 x11:80002ed4 x10=80003764  # add     a0, a0, a1
00000000 00000165 0005 800026a0  x15:0011ff70 RA:0011ff70 x10=0011ff70   # lw      a0, 0(a5)
00000000 00000111 0000 800028d0  x5:80002dd8 x5=80002ddc                 # addi    t0, t0, 4
00000000 00000112 0000 800028d4  x29:0011ff60 x29=0011ff64               # addi    t4, t4, 4
00000000 00000192 0007 8000270c  x10:00000000 x10=0000044f               # addi    a0, a0, 1103
00000000 00000194 0008 80002714  x15:0011ff70 x10:00000448 WA:0011ffcc   # sw      a0, 92(a5)
00000000 00000130 0006 80002614  x15:0011ff70 x11:00000009 WA:0011ff8c   # sw      a1, 28(a5)
00000000 00000186 0001 800026f4  x10:00100007 x10=00100000               # andi    a0, a0, -8
00000000 00000150 0003 80002664  x16:00120000 x11:00010000 x6=00130000   # add     t1, a6, a1
00000000 00000178 0002 800026d4  x10:80003764 WA:80003764                # sw      zero, 0(a0)
00000000 00000166 0005 800026a4  x10:0011ff70 RA:0011ff88 x11=00000000   # lw      a1, 24(a0)
00000000 00000167 0005 800026a8  x10:0011ff70 RA:0011ff8c x10=00000009   # lw      a0, 28(a0)
00000000 00000168 0005 800026ac  x17:00000005 x11:00000000 x11=00000005  # sub     a1, a7, a1
00000000 00000169 0005 800026b0  x11:00000005 x10:00000009 x10=00000005  # remu    a0, a1, a0
00000000 00000170 0005 800026b4  x11=00000000                            # lui     a1, 0x0
00000000 00000171 0005 800026b8  x11:00000000 x4:0011eb38 x11=0011eb38   # add     a1, a1, tp
00000000 00000187 0001 800026f8  x15:0011ff70 x10:00100000 WA:0011ffc0   # sw      a0, 80(a5)
00000000 00000151 0003 80002668  x6:00130000 x16:00120000 x11=00000000   # sltu    a1, t1, a6
00000000 00000179 0002 800026d8  x14:01000000 RA:01000030 x17=ffff0000   # lw      a7, 48(a4)
00000000 00000180 0002 800026dc  x15:0011ff70 x17:ffff0000 WA:0011ffe4   # sw      a7, 116(a5)
00000000 00000181 0002 800026e0  x15:0011ff70 x16:00120000 WA:0011ffec   # sw      a6, 124(a5)
00000000 00000182 0002 800026e4  x15:0011ff70 WA:0011ffe8                # sw      zero, 120(a5)
00000000 00000183 0002 800026e8  x16:00120000 x14=00120180               # addi    a4, a6, 384
00000000 00000184 0002 800026ec  x15:0011ff70 x14:00120180 WA:0011fff0   # sw      a4, 128(a5)
00000000 00000185 0002 800026f0  x12:00100000 x10=00100007               # addi    a0, a2, 7
00000000 00000186 0002 800026f4  x10:00100007 x10=00100000               # andi    a0, a0, -8
00000000 00000152 0003 8000266c  x5:00000000 x11:00000000 x11=00000000   # add     a1, t0, a1
00000000 00000153 0003 80002670  x15:0011ff70 x6:00130000 WA:0011ffb0    # sw      t1, 64(a5)
00000000 00000154 0003 80002674  x15:0011ff70 x11:00000000 WA:0011ffb4   # sw      a1, 68(a5)
00000000 00000155 0003 80002678  x10:00020000 x10=00040000               # slli    a0, a0, 1
00000000 00000156 0003 8000267c  x10:00040000 x12:00100000 x11=00140000  # add     a1, a0, a2
00000000 00000157 0003 80002680  x11:00140000 x10:00040000 x10=00000000  # sltu    a0, a1, a0
00000000 00000158 0003 80002684  x15:0011ff70 x11:00140000 WA:0011ffb8   # sw      a1, 72(a5)
00000000 00000159 0003 80002688  x15:0011ff70 x10:00000000 WA:0011ffbc   # sw      a0, 76(a5)
00000000 00000160 0003 8000268c  x15:0011ff70 WA:0011ffd8                # sw      zero, 104(a5)
00000000 00000161 0003 80002690  x15:0011ff70 WA:0011ffdc                # sw      zero, 108(a5)
00000000 00000113 0000 800028d8  x5:80002ddc x7:80002dd8                 # blt     t0, t2, pc - 12
00000000 00000193 0007 80002710  x10:0000044f x10=00000448               # andi    a0, a0, -8
00000000 00000195 0008 80002718  x15:0011ff70 WA:0011ffd0                # sw      zero, 96(a5)
00000000 00000131 0006 80002618  x14:01000000 RA:01000018 x10=80000000   # lw      a0, 24(a4)
00000000 00000172 0005 800026bc  x11:0011eb38 x10:00000005 WA:0011eb3c   # sw      a0, 4(a1)
00000000 00000188 0001 800026fc  x13:0011db28 x12:00100000 x12=0001db28  # sub     a2, a3, a2
00000000 00000187 0002 800026f8  x15:0011ff70 x10:00100000 WA:0011ffc0   # sw      a0, 80(a5)
00000000 00000139 0004 80002638  x15:0011ff70 x11:00000001 WA:0011ff9c   # sw      a1, 44(a5)
00000000 00000162 0003 80002694  x10=00000000                            # lui     a0, 0x0
00000000 00000114 0000 800028dc  x2:0011ff60 x2=0011ff4c                 # addi    sp, sp, -20
00000000 00000194 0007 80002714  x15:0011ff70 x10:00000448 WA:0011ffcc   # sw      a0, 92(a5)
00000000 00000196 0008 8000271c  x15:0011ff70 x10:00000448 WA:0011ffd4   # sw      a0, 100(a5)
00000000 00000132 0006 8000261c  x11=10000000                            # lui     a1, 0x10000
00000000 00000173 0005 800026c0  x10=00000448                            # li      a0, 1096
00000000 00000189 0001 80002700  x15:0011ff70 x12:0001db28 WA:0011ffc4   # sw      a2, 84(a5)
00000000 00000190 0001 80002704  x15:0011ff70 x10:00100000 WA:0011ffc8   # sw      a0, 88(a5)
00000000 00000191 0001 80002708  x11:80002ed4 RA:80002ed4 x10=00000000   # lw      a0, 0(a1)
00000000 00000192 0001 8000270c  x10:00000000 x10=0000044f               # addi    a0, a0, 1103
00000000 00000115 0000 800028e0  x2:0011ff4c x10:00000000 WA:0011ff4c    # sw      a0, 0(sp)
00000000 00000195 0007 80002718  x15:0011ff70 WA:0011ffd0                # sw      zero, 96(a5)
00000000 00000197 0008 80002720  x10=00000000                            # lui     a0, 0x0
00000000 00000133 0006 80002620  x10:80000000 x11:10000000 x10=90000000  # add     a0, a0, a1
00000000 00000174 0005 800026c4  x17:00000005 x10:00000448 x10=00001568  # mul     a0, a7, a0
00000000 00000175 0005 800026c8  x11=800036c8                            # auipc   a1, 0x1
00000000 00000176 0005 800026cc  x11:800036c8 x11=80002ed4               # addi    a1, a1, -2036
00000000 00000177 0005 800026d0  x10:00001568 x11:80002ed4 x10=8000443c  # add     a0, a0, a1
00000000 00000193 0001 80002710  x10:0000044f x10=00000448               # andi    a0, a0, -8
00000000 00000116 0000 800028e4  x2:0011ff4c x11:00000009 WA:0011ff50    # sw      a1, 4(sp)
00000000 00000196 0007 8000271c  x15:0011ff70 x10:00000448 WA:0011ffd4   # sw      a0, 100(a5)
00000000 00000198 0008 80002724  x10:00000000 x4:0011df20 x10=0011df20   # add     a0, a0, tp
00000000 00000134 0006 80002624  x15:0011ff70 WA:0011ff94                # sw      zero, 36(a5)
00000000 00000188 0002 800026fc  x13:0011db28 x12:00100000 x12=0001db28  # sub     a2, a3, a2
00000000 00000140 0004 8000263c  x15:0011ff70 x12:00100000 WA:0011ffa0   # sw      a2, 48(a5)
00000000 00000163 0003 80002698  x10:00000000 x4:0011f348 x10=0011f348   # add     a0, a0, tp
00000000 00000178 0005 800026d4  x10:8000443c WA:8000443c                # sw      zero, 0(a0)
00000000 00000194 0001 80002714  x15:0011ff70 x10:00000448 WA:0011ffcc   # sw      a0, 92(a5)
00000000 00000117 0000 800028e8  x2:0011ff4c x12:00100000 WA:0011ff54    # sw      a2, 8(sp)
00000000 00000197 0007 80002720  x10=00000000                            # lui     a0, 0x0
00000000 00000199 0008 80002728  x10:0011df20 x17:ffff0000 WA:0011df28   # sw      a7, 8(a0)
00000000 00000135 0006 80002628  x15:0011ff70 x10:90000000 WA:0011ff90   # sw      a0, 32(a5)
00000000 00000189 0002 80002700  x15:0011ff70 x12:0001db28 WA:0011ffc4   # sw      a2, 84(a5)
00000000 00000141 0004 80002640  x15:0011ff70 WA:0011ffa4                # sw      zero, 52(a5)
00000000 00000164 0003 8000269c  x10:0011f348 x15:0011ff70 WA:0011f348   # sw      a5, 0(a0)
00000000 00000179 0005 800026d8  x14:01000000 RA:01000030 x17=ffff0000   # lw      a7, 48(a4)
00000000 00000195 0001 80002718  x15:0011ff70 WA:0011ffd0                # sw      zero, 96(a5)
00000000 00000118 0000 800028ec  x2:0011ff4c x13:0011db28 WA:0011ff58    # sw      a3, 12(sp)
00000000 00000198 0007 80002724  x10:00000000 x4:0011e328 x10=0011e328   # add     a0, a0, tp
00000000 00000200 0008 8000272c  x10=00000000                            # lui     a0, 0x0
00000000 00000136 0006 8000262c  x14:01000000 RA:01000020 x10=00000000   # lw      a0, 32(a4)
00000000 00000190 0002 80002704  x15:0011ff70 x10:00100000 WA:0011ffc8   # sw      a0, 88(a5)
00000000 00000142 0004 80002644  x15:0011ff70 x13:0011db28 WA:0011ffa8   # sw      a3, 56(a5)
00000000 00000165 0003 800026a0  x15:0011ff70 RA:0011ff70 x10=0011ff70   # lw      a0, 0(a5)
00000000 00000180 0005 800026dc  x15:0011ff70 x17:ffff0000 WA:0011ffe4   # sw      a7, 116(a5)
00000000 00000196 0001 8000271c  x15:0011ff70 x10:00000448 WA:0011ffd4   # sw      a0, 100(a5)
00000000 00000119 0000 800028f0  x2:0011ff4c x14:01000000 WA:0011ff5c    # sw      a4, 16(sp)
00000000 00000199 0007 80002728  x10:0011e328 x17:ffff0000 WA:0011e330   # sw      a7, 8(a0)
00000000 00000201 0008 80002730  x10:00000000 x4:0011df20 x10=0011df20   # add     a0, a0, tp
00000000 00000137 0006 80002630  x14:01000000 RA:01000024 x11=00000001   # lw      a1, 36(a4)
00000000 00000191 0002 80002708  x11:80002ed4 RA:80002ed4 x10=00000000   # lw      a0, 0(a1)
00000000 00000192 0002 8000270c  x10:00000000 x10=0000044f               # addi    a0, a0, 1103
00000000 00000166 0003 800026a4  x10:0011ff70 RA:0011ff88 x11=00000000   # lw      a1, 24(a0)
00000000 00000181 0005 800026e0  x15:0011ff70 x16:00120000 WA:0011ffec   # sw      a6, 124(a5)
00000000 00000197 0001 80002720  x10=00000000                            # lui     a0, 0x0
00000000 00000120 0000 800028f4  x1=800028f4                             # auipc   ra, 0x0
00000000 00000200 0007 8000272c  x10=00000000                            # lui     a0, 0x0
00000000 00000202 0008 80002734  x10:0011df20 x14:00120180 WA:0011df2c   # sw      a4, 12(a0)
00000000 00000138 0006 80002634  x15:0011ff70 x10:00000000 WA:0011ff98   # sw      a0, 40(a5)
00000000 00000139 0006 80002638  x15:0011ff70 x11:00000001 WA:0011ff9c   # sw      a1, 44(a5)
00000000 00000140 0006 8000263c  x15:0011ff70 x12:00100000 WA:0011ffa0   # sw      a2, 48(a5)
00000000 00000141 0006 80002640  x15:0011ff70 WA:0011ffa4                # sw      zero, 52(a5)
00000000 00000182 0005 800026e4  x15:0011ff70 WA:0011ffe8                # sw      zero, 120(a5)
00000000 00000198 0001 80002724  x10:00000000 x4:0011fb58 x10=0011fb58   # add     a0, a0, tp
00000000 00000121 0000 800028f8  x1:800028f4 x1=800028fc                 # jalr    ra, ra, -800
00000000 00000201 0007 80002730  x10:00000000 x4:0011e328 x10=0011e328   # add     a0, a0, tp
00000000 00000122 0000 800025d4  x15:0011ff70 x15:0011ff70 WA:0011ff70   # sw      a5, 0(a5)
00000000 00000203 0008 80002738  x1:800028fc                             # ret
00000000 00000143 0004 80002648  x15:0011ff70 WA:0011ffac                # sw      zero, 60(a5)
00000000 00000193 0002 80002710  x10:0000044f x10=00000448               # andi    a0, a0, -8
00000000 00000167 0003 800026a8  x10:0011ff70 RA:0011ff8c x10=00000009   # lw      a0, 28(a0)
00000000 00000142 0006 80002644  x15:0011ff70 x13:0011db28 WA:0011ffa8   # sw      a3, 56(a5)
00000000 00000183 0005 800026e8  x16:00120000 x14=00120180               # addi    a4, a6, 384
00000000 00000199 0001 80002728  x10:0011fb58 x17:ffff0000 WA:0011fb60   # sw      a7, 8(a0)
00000000 00000200 0001 8000272c  x10=00000000                            # lui     a0, 0x0
00000000 00000123 0000 800025d8  x15:0011ff70 x14:01000000 WA:0011ff74   # sw      a4, 4(a5)
00000000 00000204 0008 800028fc  x2:0011df0c RA:0011df0c x10=00000008    # lw      a0, 0(sp)
00000000 00000205 0008 80002900  x2:0011df0c RA:0011df10 x11=00000009    # lw      a1, 4(sp)
00000000 00000194 0002 80002714  x15:0011ff70 x10:00000448 WA:0011ffcc   # sw      a0, 92(a5)
00000000 00000168 0003 800026ac  x17:00000003 x11:00000000 x11=00000003  # sub     a1, a7, a1
00000000 00000143 0006 80002648  x15:0011ff70 WA:0011ffac                # sw      zero, 60(a5)
00000000 00000184 0005 800026ec  x15:0011ff70 x14:00120180 WA:0011fff0   # sw      a4, 128(a5)
00000000 00000202 0007 80002734  x10:0011e328 x14:00120180 WA:0011e334   # sw      a4, 12(a0)
00000000 00000203 0007 80002738  x1:800028fc                             # ret
00000000 00000204 0007 800028fc  x2:0011e314 RA:0011e314 x10=00000007    # lw      a0, 0(sp)
00000000 00000205 0007 80002900  x2:0011e314 RA:0011e318 x11=00000009    # lw      a1, 4(sp)
00000000 00000206 0007 80002904  x2:0011e314 RA:0011e31c x12=00100000    # lw      a2, 8(sp)
00000000 00000195 0002 80002718  x15:0011ff70 WA:0011ffd0                # sw      zero, 96(a5)
00000000 00000169 0003 800026b0  x11:00000003 x10:00000009 x10=00000003  # remu    a0, a1, a0
00000000 00000170 0003 800026b4  x11=00000000                            # lui     a1, 0x0
00000000 00000185 0005 800026f0  x12:00100000 x10=00100007               # addi    a0, a2, 7
00000000 00000201 0001 80002730  x10:00000000 x4:0011fb58 x10=0011fb58   # add     a0, a0, tp
00000000 00000124 0000 800025dc  x14:01000000 RA:01000008 x6=00000000    # lw      t1, 8(a4)
00000000 00000125 0000 800025e0  x15:0011ff70 x6:00000000 WA:0011ff78    # sw      t1, 8(a5)
00000000 00000126 0000 800025e4  x14:01000000 RA:01000028 x16=00000001   # lw      a6, 40(a4)
00000000 00000127 0000 800025e8  x14:01000000 RA:0100002c x17=00000001   # lw      a7, 44(a4)
00000000 00000128 0000 800025ec  x14:01000000 RA:01000004 x5=00000009    # lw      t0, 4(a4)
00000000 00000144 0006 8000264c  x14:01000000 RA:01000010 x10=00020000   # lw      a0, 16(a4)
00000000 00000171 0003 800026b8  x11:00000000 x4:0011f348 x11=0011f348   # add     a1, a1, tp
00000000 00000186 0005 800026f4  x10:00100007 x10=00100000               # andi    a0, a0, -8
00000000 00000202 0001 80002734  x10:0011fb58 x14:00120180 WA:0011fb64   # sw      a4, 12(a0)
00000000 00000203 0001 80002738  x1:800028fc                             # ret
00000000 00000206 0008 80002904  x2:0011df0c RA:0011df14 x12=00100000    # lw      a2, 8(sp)
00000000 00000207 0007 80002908  x2:0011e314 RA:0011e320 x13=0011db28    # lw      a3, 12(sp)
00000000 00000196 0002 8000271c  x15:0011ff70 x10:00000448 WA:0011ffd4   # sw      a0, 100(a5)
00000000 00000129 0000 800025f0  x17:00000001 x16:00000001 x16=00000001  # mul     a6, a7, a6
00000000 00000145 0006 80002650  x12:00100000 x10:00020000 x16=00120000  # add     a6, a2, a0
00000000 00000172 0003 800026bc  x11:0011f348 x10:00000003 WA:0011f34c   # sw      a0, 4(a1)
00000000 00000187 0005 800026f8  x15:0011ff70 x10:00100000 WA:0011ffc0   # sw      a0, 80(a5)
00000000 00000144 0004 8000264c  x14:01000000 RA:01000010 x10=00020000   # lw      a0, 16(a4)
00000000 00000204 0001 800028fc  x2:0011fb44 RA:0011fb44 x10=00000001    # lw      a0, 0(sp)
00000000 00000207 0008 80002908  x2:0011df0c RA:0011df18 x13=0011db28    # lw      a3, 12(sp)
00000000 00000208 0007 8000290c  x2:0011e314 RA:0011e324 x14=01000000    # lw      a4, 16(sp)
00000000 00000197 0002 80002720  x10=00000000                            # lui     a0, 0x0
00000000 00000130 0000 800025f4  x16:00000001 x5:00000009 x10=00000009   # mul     a0, a6, t0
00000000 00000146 0006 80002654  x16:00120000 x11=00120190               # addi    a1, a6, 400
00000000 00000173 0003 800026c0  x10=00000448                            # li      a0, 1096
00000000 00000188 0005 800026fc  x13:0011db28 x12:00100000 x12=0001db28  # sub     a2, a3, a2
00000000 00000145 0004 80002650  x12:00100000 x10:00020000 x16=00120000  # add     a6, a2, a0
00000000 00000205 0001 80002900  x2:0011fb44 RA:0011fb48 x11=00000009    # lw      a1, 4(sp)
00000000 00000208 0008 8000290c  x2:0011df0c RA:0011df1c x14=01000000    # lw      a4, 16(sp)
00000000 00000209 0007 80002910  x2:0011e314 x2=0011e328                 # addi    sp, sp, 20
00000000 00000210 0007 80002914  x5=80002914                             # auipc   t0, 0x0
00000000 00000211 0007 80002918  x5:80002914 x5=80002950                 # addi    t0, t0, 60
00000000 00000212 0007 8000291c  x5:80002950                             # csrw    mtvec, t0
00000000 00000213 0007 80002920  x1=80002920                             # auipc   ra, 0x0
00000000 00000214 0007 80002924  x1:80002920 x1=80002928                 # jalr    ra, ra, 544
00000000 00000215 0007 80002b40  x2:0011e328 x2=0011e324                 # addi    sp, sp, -4
00000000 00000206 0001 80002904  x2:0011fb44 RA:0011fb4c x12=00100000    # lw      a2, 8(sp)
00000000 00000209 0008 80002910  x2:0011df0c x2=0011df20                 # addi    sp, sp, 20
00000000 00000198 0002 80002724  x10:00000000 x4:0011f750 x10=0011f750   # add     a0, a0, tp
00000000 00000131 0000 800025f8  x15:0011ff70 x10:00000009 WA:0011ff7c   # sw      a0, 12(a5)
00000000 00000147 0006 80002658  x15:0011ff70 x11:00120190 WA:0011ffe0   # sw      a1, 112(a5)
00000000 00000174 0003 800026c4  x17:00000003 x10:00000448 x10=00000cd8  # mul     a0, a7, a0
00000000 00000189 0005 80002700  x15:0011ff70 x12:0001db28 WA:0011ffc4   # sw      a2, 84(a5)
00000000 00000190 0005 80002704  x15:0011ff70 x10:00100000 WA:0011ffc8   # sw      a0, 88(a5)
00000000 00000191 0005 80002708  x11:80002ed4 RA:80002ed4 x10=00000000   # lw      a0, 0(a1)
00000000 00000192 0005 8000270c  x10:00000000 x10=0000044f               # addi    a0, a0, 1103
00000000 00000210 0008 80002914  x5=80002914                             # auipc   t0, 0x0
00000000 00000199 0002 80002728  x10:0011f750 x17:ffff0000 WA:0011f758   # sw      a7, 8(a0)
00000000 00000132 0000 800025fc  x17=00000000                            # csrr    a7, mhartid
00000000 00000148 0006 8000265c  x16:00120000 x10:00020000 x5=00000000   # sltu    t0, a6, a0
00000000 00000175 0003 800026c8  x11=800036c8                            # auipc   a1, 0x1
00000000 00000176 0003 800026cc  x11:800036c8 x11=80002ed4               # addi    a1, a1, -2036
00000000 00000177 0003 800026d0  x10:00000cd8 x11:80002ed4 x10=80003bac  # add     a0, a0, a1
00000000 00000207 0001 80002908  x2:0011fb44 RA:0011fb50 x13=0011db28    # lw      a3, 12(sp)
00000000 00000193 0005 80002710  x10:0000044f x10=00000448               # andi    a0, a0, -8
00000000 00000211 0008 80002918  x5:80002914 x5=80002950                 # addi    t0, t0, 60
00000000 00000200 0002 8000272c  x10=00000000                            # lui     a0, 0x0
00000000 00000133 0000 80002600  x17:00000000 x6:00000000 x10=00000000   # sub     a0, a7, t1
00000000 00000149 0006 80002660  x10:00020000 x11=00010000               # srli    a1, a0, 1
00000000 00000134 0000 80002604  x10:00000000 x5:00000009 x10=00000000   # divu    a0, a0, t0
00000000 00000146 0004 80002654  x16:00120000 x11=00120190               # addi    a1, a6, 400
00000000 00000216 0007 80002b44  x2:0011e324 x1:80002928 WA:0011e324     # sw      ra, 0(sp)
00000000 00000178 0003 800026d4  x10:80003bac WA:80003bac                # sw      zero, 0(a0)
00000000 00000208 0001 8000290c  x2:0011fb44 RA:0011fb54 x14=01000000    # lw      a4, 16(sp)
00000000 00000194 0005 80002714  x15:0011ff70 x10:00000448 WA:0011ffcc   # sw      a0, 92(a5)
00000000 00000212 0008 8000291c  x5:80002950                             # csrw    mtvec, t0
00000000 00000201 0002 80002730  x10:00000000 x4:0011f750 x10=0011f750   # add     a0, a0, tp
00000000 00000150 0006 80002664  x16:00120000 x11:00010000 x6=00130000   # add     t1, a6, a1
00000000 00000135 0000 80002608  x15:0011ff70 x10:00000000 WA:0011ff80   # sw      a0, 16(a5)
00000000 00000136 0000 8000260c  x15:0011ff70 x16:00000001 WA:0011ff84   # sw      a6, 20(a5)
00000000 00000137 0000 80002610  x15:0011ff70 x6:00000000 WA:0011ff88    # sw      t1, 24(a5)
00000000 00000138 0000 80002614  x15:0011ff70 x11:00000009 WA:0011ff8c   # sw      a1, 28(a5)
00000000 00000209 0001 80002910  x2:0011fb44 x2=0011fb58                 # addi    sp, sp, 20
00000000 00000210 0001 80002914  x5=80002914                             # auipc   t0, 0x0
00000000 00000211 0001 80002918  x5:80002914 x5=80002950                 # addi    t0, t0, 60
00000000 00000212 0001 8000291c  x5:80002950                             # csrw    mtvec, t0
00000000 00000213 0001 80002920  x1=80002920                             # auipc   ra, 0x0
00000000 00000214 0001 80002924  x1:80002920 x1=80002928                 # jalr    ra, ra, 544
00000000 00000215 0001 80002b40  x2:0011fb58 x2=0011fb54                 # addi    sp, sp, -4
00000000 00000216 0001 80002b44  x2:0011fb54 x1:80002928 WA:0011fb54     # sw      ra, 0(sp)
00000000 00000217 0001 80002b48  x1=80002b48                             # auipc   ra, 0x0
00000000 00000218 0001 80002b4c  x1:80002b48 x1=80002b50                 # jalr    ra, ra, -1620
00000000 00000213 0008 80002920  x1=80002920                             # auipc   ra, 0x0
00000000 00000202 0002 80002734  x10:0011f750 x14:00120180 WA:0011f75c   # sw      a4, 12(a0)
00000000 00000151 0006 80002668  x6:00130000 x16:00120000 x11=00000000   # sltu    a1, t1, a6
00000000 00000152 0006 8000266c  x5:00000000 x11:00000000 x11=00000000   # add     a1, t0, a1
00000000 00000217 0007 80002b48  x1=80002b48                             # auipc   ra, 0x0
00000000 00000179 0003 800026d8  x14:01000000 RA:01000030 x17=ffff0000   # lw      a7, 48(a4)
00000000 00000139 0000 80002618  x14:01000000 RA:01000018 x10=80000000   # lw      a0, 24(a4)
00000000 00000140 0000 8000261c  x11=10000000                            # lui     a1, 0x10000
00000000 00000219 0001 800024f4  x10=00000000                            # lui     a0, 0x0
00000000 00000214 0008 80002924  x1:80002920 x1=80002928                 # jalr    ra, ra, 544
00000000 00000203 0002 80002738  x1:800028fc                             # ret
00000000 00000147 0004 80002658  x15:0011ff70 x11:00120190 WA:0011ffe0   # sw      a1, 112(a5)
00000000 00000153 0006 80002670  x15:0011ff70 x6:00130000 WA:0011ffb0    # sw      t1, 64(a5)
00000000 00000218 0007 80002b4c  x1:80002b48 x1=80002b50                 # jalr    ra, ra, -1620
00000000 00000180 0003 800026dc  x15:0011ff70 x17:ffff0000 WA:0011ffe4   # sw      a7, 116(a5)
00000000 00000219 0007 800024f4  x10=00000000                            # lui     a0, 0x0
00000000 00000195 0005 80002718  x15:0011ff70 WA:0011ffd0                # sw      zero, 96(a5)
00000000 00000141 0000 80002620  x10:80000000 x11:10000000 x10=90000000  # add     a0, a0, a1
00000000 00000196 0005 8000271c  x15:0011ff70 x10:00000448 WA:0011ffd4   # sw      a0, 100(a5)
00000000 00000220 0001 800024f8  x10:00000000 x4:0011fb58 x10=0011fb58   # add     a0, a0, tp
00000000 00000197 0005 80002720  x10=00000000                            # lui     a0, 0x0
00000000 00000148 0004 8000265c  x16:00120000 x10:00020000 x5=00000000   # sltu    t0, a6, a0
00000000 00000181 0003 800026e0  x15:0011ff70 x16:00120000 WA:0011ffec   # sw      a6, 124(a5)
00000000 00000220 0007 800024f8  x10:00000000 x4:0011e328 x10=0011e328   # add     a0, a0, tp
00000000 00000215 0008 80002b40  x2:0011df20 x2=0011df1c                 # addi    sp, sp, -4
00000000 00000142 0000 80002624  x15:0011ff70 WA:0011ff94                # sw      zero, 36(a5)
00000000 00000204 0002 800028fc  x2:0011f73c RA:0011f73c x10=00000002    # lw      a0, 0(sp)
00000000 00000221 0001 800024fc  x10:0011fb58 RA:0011fb58 x10=0011ff70   # lw      a0, 0(a0)
00000000 00000154 0006 80002674  x15:0011ff70 x11:00000000 WA:0011ffb4   # sw      a1, 68(a5)
00000000 00000198 0005 80002724  x10:00000000 x4:0011eb38 x10=0011eb38   # add     a0, a0, tp
00000000 00000199 0005 80002728  x10:0011eb38 x17:ffff0000 WA:0011eb40   # sw      a7, 8(a0)
00000000 00000200 0005 8000272c  x10=00000000                            # lui     a0, 0x0
00000000 00000201 0005 80002730  x10:00000000 x4:0011eb38 x10=0011eb38   # add     a0, a0, tp
00000000 00000202 0005 80002734  x10:0011eb38 x14:00120180 WA:0011eb44   # sw      a4, 12(a0)
00000000 00000203 0005 80002738  x1:800028fc                             # ret
00000000 00000205 0002 80002900  x2:0011f73c RA:0011f740 x11=00000009    # lw      a1, 4(sp)
00000000 00000222 0001 80002500  x10:0011ff70 RA:0011ff70 x10=0011ff70   # lw      a0, 0(a0)
00000000 00000155 0006 80002678  x10:00020000 x10=00040000               # slli    a0, a0, 1
00000000 00000149 0004 80002660  x10:00020000 x11=00010000               # srli    a1, a0, 1
00000000 00000182 0003 800026e4  x15:0011ff70 WA:0011ffe8                # sw      zero, 120(a5)
00000000 00000150 0004 80002664  x16:00120000 x11:00010000 x6=00130000   # add     t1, a6, a1
00000000 00000183 0003 800026e8  x16:00120000 x14=00120180               # addi    a4, a6, 384
00000000 00000216 0008 80002b44  x2:0011df1c x1:80002928 WA:0011df1c     # sw      ra, 0(sp)
00000000 00000217 0008 80002b48  x1=80002b48                             # auipc   ra, 0x0
00000000 00000204 0005 800028fc  x2:0011eb24 RA:0011eb24 x10=00000005    # lw      a0, 0(sp)
00000000 00000206 0002 80002904  x2:0011f73c RA:0011f744 x12=00100000    # lw      a2, 8(sp)
00000000 00000223 0001 80002504  x10:0011ff70 RA:0011ffe0 x10=00120190   # lw      a0, 112(a0)
00000000 00000156 0006 8000267c  x10:00040000 x12:00100000 x11=00140000  # add     a1, a0, a2
00000000 00000221 0007 800024fc  x10:0011e328 RA:0011e328 x10=0011ff70   # lw      a0, 0(a0)
00000000 00000184 0003 800026ec  x15:0011ff70 x14:00120180 WA:0011fff0   # sw      a4, 128(a5)
00000000 00000185 0003 800026f0  x12:00100000 x10=00100007               # addi    a0, a2, 7
00000000 00000186 0003 800026f4  x10:00100007 x10=00100000               # andi    a0, a0, -8
00000000 00000187 0003 800026f8  x15:0011ff70 x10:00100000 WA:0011ffc0   # sw      a0, 80(a5)
00000000 00000188 0003 800026fc  x13:0011db28 x12:00100000 x12=0001db28  # sub     a2, a3, a2
00000000 00000207 0002 80002908  x2:0011f73c RA:0011f748 x13=0011db28    # lw      a3, 12(sp)
00000000 00000224 0001 80002508  x1:80002b50                             # ret
00000000 00000157 0006 80002680  x11:00140000 x10:00040000 x10=00000000  # sltu    a0, a1, a0
00000000 00000222 0007 80002500  x10:0011ff70 RA:0011ff70 x10=0011ff70   # lw      a0, 0(a0)
00000000 00000223 0007 80002504  x10:0011ff70 RA:0011ffe0 x10=00120190   # lw      a0, 112(a0)
00000000 00000224 0007 80002508  x1:80002b50                             # ret
00000000 00000218 0008 80002b4c  x1:80002b48 x1=80002b50                 # jalr    ra, ra, -1620
00000000 00000205 0005 80002900  x2:0011eb24 RA:0011eb28 x11=00000009    # lw      a1, 4(sp)
00000000 00000219 0008 800024f4  x10=00000000                            # lui     a0, 0x0
00000000 00000189 0003 80002700  x15:0011ff70 x12:0001db28 WA:0011ffc4   # sw      a2, 84(a5)
00000000 00000208 0002 8000290c  x2:0011f73c RA:0011f74c x14=01000000    # lw      a4, 16(sp)
00000000 00000158 0006 80002684  x15:0011ff70 x11:00140000 WA:0011ffb8   # sw      a1, 72(a5)
00000000 00000209 0002 80002910  x2:0011f73c x2=0011f750                 # addi    sp, sp, 20
00000000 00000143 0000 80002628  x15:0011ff70 x10:90000000 WA:0011ff90   # sw      a0, 32(a5)
00000000 00000206 0005 80002904  x2:0011eb24 RA:0011eb2c x12=00100000    # lw      a2, 8(sp)
00000000 00000220 0008 800024f8  x10:00000000 x4:0011df20 x10=0011df20   # add     a0, a0, tp
00000000 00000190 0003 80002704  x15:0011ff70 x10:00100000 WA:0011ffc8   # sw      a0, 88(a5)
00000000 00000151 0004 80002668  x6:00130000 x16:00120000 x11=00000000   # sltu    a1, t1, a6
00000000 00000159 0006 80002688  x15:0011ff70 x10:00000000 WA:0011ffbc   # sw      a0, 76(a5)
00000000 00000210 0002 80002914  x5=80002914                             # auipc   t0, 0x0
00000000 00000144 0000 8000262c  x14:01000000 RA:01000020 x10=00000000   # lw      a0, 32(a4)
00000000 00000207 0005 80002908  x2:0011eb24 RA:0011eb30 x13=0011db28    # lw      a3, 12(sp)
00000000 00000221 0008 800024fc  x10:0011df20 RA:0011df20 x10=0011ff70   # lw      a0, 0(a0)
00000000 00000191 0003 80002708  x11:80002ed4 RA:80002ed4 x10=00000000   # lw      a0, 0(a1)
00000000 00000152 0004 8000266c  x5:00000000 x11:00000000 x11=00000000   # add     a1, t0, a1
00000000 00000160 0006 8000268c  x15:0011ff70 WA:0011ffd8                # sw      zero, 104(a5)
00000000 00000211 0002 80002918  x5:80002914 x5=80002950                 # addi    t0, t0, 60
00000000 00000145 0000 80002630  x14:01000000 RA:01000024 x11=00000001   # lw      a1, 36(a4)
00000000 00000208 0005 8000290c  x2:0011eb24 RA:0011eb34 x14=01000000    # lw      a4, 16(sp)
00000000 00000222 0008 80002500  x10:0011ff70 RA:0011ff70 x10=0011ff70   # lw      a0, 0(a0)
00000000 00000192 0003 8000270c  x10:00000000 x10=0000044f               # addi    a0, a0, 1103
00000000 00000153 0004 80002670  x15:0011ff70 x6:00130000 WA:0011ffb0    # sw      t1, 64(a5)
00000000 00000161 0006 80002690  x15:0011ff70 WA:0011ffdc                # sw      zero, 108(a5)
00000000 00000212 0002 8000291c  x5:80002950                             # csrw    mtvec, t0
00000000 00000162 0006 80002694  x10=00000000                            # lui     a0, 0x0
00000000 00000146 0000 80002634  x15:0011ff70 x10:00000000 WA:0011ff98   # sw      a0, 40(a5)
00000000 00000147 0000 80002638  x15:0011ff70 x11:00000001 WA:0011ff9c   # sw      a1, 44(a5)
00000000 00000148 0000 8000263c  x15:0011ff70 x12:00100000 WA:0011ffa0   # sw      a2, 48(a5)
00000000 00000149 0000 80002640  x15:0011ff70 WA:0011ffa4                # sw      zero, 52(a5)
00000000 00000150 0000 80002644  x15:0011ff70 x13:0011db28 WA:0011ffa8   # sw      a3, 56(a5)
00000000 00000151 0000 80002648  x15:0011ff70 WA:0011ffac                # sw      zero, 60(a5)
00000000 00000152 0000 8000264c  x14:01000000 RA:01000010 x10=00020000   # lw      a0, 16(a4)
00000000 00000153 0000 80002650  x12:00100000 x10:00020000 x16=00120000  # add     a6, a2, a0
00000000 00000154 0000 80002654  x16:00120000 x11=00120190               # addi    a1, a6, 400
00000000 00000155 0000 80002658  x15:0011ff70 x11:00120190 WA:0011ffe0   # sw      a1, 112(a5)
00000000 00000156 0000 8000265c  x16:00120000 x10:00020000 x5=00000000   # sltu    t0, a6, a0
00000000 00000157 0000 80002660  x10:00020000 x11=00010000               # srli    a1, a0, 1
00000000 00000158 0000 80002664  x16:00120000 x11:00010000 x6=00130000   # add     t1, a6, a1
00000000 00000159 0000 80002668  x6:00130000 x16:00120000 x11=00000000   # sltu    a1, t1, a6
00000000 00000160 0000 8000266c  x5:00000000 x11:00000000 x11=00000000   # add     a1, t0, a1
00000000 00000161 0000 80002670  x15:0011ff70 x6:00130000 WA:0011ffb0    # sw      t1, 64(a5)
00000000 00000162 0000 80002674  x15:0011ff70 x11:00000000 WA:0011ffb4   # sw      a1, 68(a5)
00000000 00000163 0000 80002678  x10:00020000 x10=00040000               # slli    a0, a0, 1
00000000 00000164 0000 8000267c  x10:00040000 x12:00100000 x11=00140000  # add     a1, a0, a2
00000000 00000165 0000 80002680  x11:00140000 x10:00040000 x10=00000000  # sltu    a0, a1, a0
00000000 00000166 0000 80002684  x15:0011ff70 x11:00140000 WA:0011ffb8   # sw      a1, 72(a5)
00000000 00000167 0000 80002688  x15:0011ff70 x10:00000000 WA:0011ffbc   # sw      a0, 76(a5)
00000000 00000168 0000 8000268c  x15:0011ff70 WA:0011ffd8                # sw      zero, 104(a5)
00000000 00000169 0000 80002690  x15:0011ff70 WA:0011ffdc                # sw      zero, 108(a5)
00000000 00000170 0000 80002694  x10=00000000                            # lui     a0, 0x0
00000000 00000171 0000 80002698  x10:00000000 x4:0011ff60 x10=0011ff60   # add     a0, a0, tp
00000000 00000172 0000 8000269c  x10:0011ff60 x15:0011ff70 WA:0011ff60   # sw      a5, 0(a0)
00000000 00000173 0000 800026a0  x15:0011ff70 RA:0011ff70 x10=0011ff70   # lw      a0, 0(a5)
00000000 00000174 0000 800026a4  x10:0011ff70 RA:0011ff88 x11=00000000   # lw      a1, 24(a0)
00000000 00000175 0000 800026a8  x10:0011ff70 RA:0011ff8c x10=00000009   # lw      a0, 28(a0)
00000000 00000176 0000 800026ac  x17:00000000 x11:00000000 x11=00000000  # sub     a1, a7, a1
00000000 00000177 0000 800026b0  x11:00000000 x10:00000009 x10=00000000  # remu    a0, a1, a0
00000000 00000178 0000 800026b4  x11=00000000                            # lui     a1, 0x0
00000000 00000179 0000 800026b8  x11:00000000 x4:0011ff60 x11=0011ff60   # add     a1, a1, tp
00000000 00000180 0000 800026bc  x11:0011ff60 x10:00000000 WA:0011ff64   # sw      a0, 4(a1)
00000000 00000181 0000 800026c0  x10=00000448                            # li      a0, 1096
00000000 00000182 0000 800026c4  x17:00000000 x10:00000448 x10=00000000  # mul     a0, a7, a0
00000000 00000183 0000 800026c8  x11=800036c8                            # auipc   a1, 0x1
00000000 00000184 0000 800026cc  x11:800036c8 x11=80002ed4               # addi    a1, a1, -2036
00000000 00000185 0000 800026d0  x10:00000000 x11:80002ed4 x10=80002ed4  # add     a0, a0, a1
00000000 00000186 0000 800026d4  x10:80002ed4 WA:80002ed4                # sw      zero, 0(a0)
00000000 00000187 0000 800026d8  x14:01000000 RA:01000030 x17=ffff0000   # lw      a7, 48(a4)
00000000 00000188 0000 800026dc  x15:0011ff70 x17:ffff0000 WA:0011ffe4   # sw      a7, 116(a5)
00000000 00000189 0000 800026e0  x15:0011ff70 x16:00120000 WA:0011ffec   # sw      a6, 124(a5)
00000000 00000190 0000 800026e4  x15:0011ff70 WA:0011ffe8                # sw      zero, 120(a5)
00000000 00000191 0000 800026e8  x16:00120000 x14=00120180               # addi    a4, a6, 384
00000000 00000192 0000 800026ec  x15:0011ff70 x14:00120180 WA:0011fff0   # sw      a4, 128(a5)
00000000 00000193 0000 800026f0  x12:00100000 x10=00100007               # addi    a0, a2, 7
00000000 00000194 0000 800026f4  x10:00100007 x10=00100000               # andi    a0, a0, -8
00000000 00000195 0000 800026f8  x15:0011ff70 x10:00100000 WA:0011ffc0   # sw      a0, 80(a5)
00000000 00000196 0000 800026fc  x13:0011db28 x12:00100000 x12=0001db28  # sub     a2, a3, a2
00000000 00000197 0000 80002700  x15:0011ff70 x12:0001db28 WA:0011ffc4   # sw      a2, 84(a5)
00000000 00000198 0000 80002704  x15:0011ff70 x10:00100000 WA:0011ffc8   # sw      a0, 88(a5)
00000000 00000199 0000 80002708  x11:80002ed4 RA:80002ed4 x10=00000000   # lw      a0, 0(a1)
00000000 00000200 0000 8000270c  x10:00000000 x10=0000044f               # addi    a0, a0, 1103
00000000 00000201 0000 80002710  x10:0000044f x10=00000448               # andi    a0, a0, -8
00000000 00000202 0000 80002714  x15:0011ff70 x10:00000448 WA:0011ffcc   # sw      a0, 92(a5)
00000000 00000203 0000 80002718  x15:0011ff70 WA:0011ffd0                # sw      zero, 96(a5)
00000000 00000204 0000 8000271c  x15:0011ff70 x10:00000448 WA:0011ffd4   # sw      a0, 100(a5)
00000000 00000205 0000 80002720  x10=00000000                            # lui     a0, 0x0
00000000 00000206 0000 80002724  x10:00000000 x4:0011ff60 x10=0011ff60   # add     a0, a0, tp
00000000 00000207 0000 80002728  x10:0011ff60 x17:ffff0000 WA:0011ff68   # sw      a7, 8(a0)
00000000 00000208 0000 8000272c  x10=00000000                            # lui     a0, 0x0
00000000 00000209 0000 80002730  x10:00000000 x4:0011ff60 x10=0011ff60   # add     a0, a0, tp
00000000 00000210 0000 80002734  x10:0011ff60 x14:00120180 WA:0011ff6c   # sw      a4, 12(a0)
00000000 00000211 0000 80002738  x1:800028fc                             # ret
00000000 00000212 0000 800028fc  x2:0011ff4c RA:0011ff4c x10=00000000    # lw      a0, 0(sp)
00000000 00000213 0000 80002900  x2:0011ff4c RA:0011ff50 x11=00000009    # lw      a1, 4(sp)
00000000 00000214 0000 80002904  x2:0011ff4c RA:0011ff54 x12=00100000    # lw      a2, 8(sp)
00000000 00000215 0000 80002908  x2:0011ff4c RA:0011ff58 x13=0011db28    # lw      a3, 12(sp)
00000000 00000216 0000 8000290c  x2:0011ff4c RA:0011ff5c x14=01000000    # lw      a4, 16(sp)
00000000 00000217 0000 80002910  x2:0011ff4c x2=0011ff60                 # addi    sp, sp, 20
00000000 00000218 0000 80002914  x5=80002914                             # auipc   t0, 0x0
00000000 00000219 0000 80002918  x5:80002914 x5=80002950                 # addi    t0, t0, 60
00000000 00000220 0000 8000291c  x5:80002950                             # csrw    mtvec, t0
00000000 00000221 0000 80002920  x1=80002920                             # auipc   ra, 0x0
00000000 00000222 0000 80002924  x1:80002920 x1=80002928                 # jalr    ra, ra, 544
00000000 00000223 0000 80002b40  x2:0011ff60 x2=0011ff5c                 # addi    sp, sp, -4
00000000 00000224 0000 80002b44  x2:0011ff5c x1:80002928 WA:0011ff5c     # sw      ra, 0(sp)
00000000 00000225 0000 80002b48  x1=80002b48                             # auipc   ra, 0x0
00000000 00000226 0000 80002b4c  x1:80002b48 x1=80002b50                 # jalr    ra, ra, -1620
00000000 00000227 0000 800024f4  x10=00000000                            # lui     a0, 0x0
00000000 00000228 0000 800024f8  x10:00000000 x4:0011ff60 x10=0011ff60   # add     a0, a0, tp
00000000 00000229 0000 800024fc  x10:0011ff60 RA:0011ff60 x10=0011ff70   # lw      a0, 0(a0)
00000000 00000230 0000 80002500  x10:0011ff70 RA:0011ff70 x10=0011ff70   # lw      a0, 0(a0)
00000000 00000231 0000 80002504  x10:0011ff70 RA:0011ffe0 x10=00120190   # lw      a0, 112(a0)
00000000 00000232 0000 80002508  x1:80002b50                             # ret
00000000 00000209 0005 80002910  x2:0011eb24 x2=0011eb38                 # addi    sp, sp, 20
00000000 00000210 0005 80002914  x5=80002914                             # auipc   t0, 0x0
00000000 00000211 0005 80002918  x5:80002914 x5=80002950                 # addi    t0, t0, 60
00000000 00000212 0005 8000291c  x5:80002950                             # csrw    mtvec, t0
00000000 00000213 0005 80002920  x1=80002920                             # auipc   ra, 0x0
00000000 00000214 0005 80002924  x1:80002920 x1=80002928                 # jalr    ra, ra, 544
00000000 00000215 0005 80002b40  x2:0011eb38 x2=0011eb34                 # addi    sp, sp, -4
00000000 00000216 0005 80002b44  x2:0011eb34 x1:80002928 WA:0011eb34     # sw      ra, 0(sp)
00000000 00000217 0005 80002b48  x1=80002b48                             # auipc   ra, 0x0
00000000 00000218 0005 80002b4c  x1:80002b48 x1=80002b50                 # jalr    ra, ra, -1620
00000000 00000219 0005 800024f4  x10=00000000                            # lui     a0, 0x0
00000000 00000220 0005 800024f8  x10:00000000 x4:0011eb38 x10=0011eb38   # add     a0, a0, tp
00000000 00000221 0005 800024fc  x10:0011eb38 RA:0011eb38 x10=0011ff70   # lw      a0, 0(a0)
00000000 00000222 0005 80002500  x10:0011ff70 RA:0011ff70 x10=0011ff70   # lw      a0, 0(a0)
00000000 00000223 0005 80002504  x10:0011ff70 RA:0011ffe0 x10=00120190   # lw      a0, 112(a0)
00000000 00000224 0005 80002508  x1:80002b50                             # ret
00000000 00000154 0004 80002674  x15:0011ff70 x11:00000000 WA:0011ffb4   # sw      a1, 68(a5)
00000000 00000213 0002 80002920  x1=80002920                             # auipc   ra, 0x0
00000000 00000163 0006 80002698  x10:00000000 x4:0011e730 x10=0011e730   # add     a0, a0, tp
00000000 00000164 0006 8000269c  x10:0011e730 x15:0011ff70 WA:0011e730   # sw      a5, 0(a0)
00000000 00000223 0008 80002504  x10:0011ff70 RA:0011ffe0 x10=00120190   # lw      a0, 112(a0)
00000000 00000193 0003 80002710  x10:0000044f x10=00000448               # andi    a0, a0, -8
00000000 00000155 0004 80002678  x10:00020000 x10=00040000               # slli    a0, a0, 1
00000000 00000214 0002 80002924  x1:80002920 x1=80002928                 # jalr    ra, ra, 544
00000000 00000165 0006 800026a0  x15:0011ff70 RA:0011ff70 x10=0011ff70   # lw      a0, 0(a5)
00000000 00000166 0006 800026a4  x10:0011ff70 RA:0011ff88 x11=00000000   # lw      a1, 24(a0)
00000000 00000167 0006 800026a8  x10:0011ff70 RA:0011ff8c x10=00000009   # lw      a0, 28(a0)
00000000 00000168 0006 800026ac  x17:00000006 x11:00000000 x11=00000006  # sub     a1, a7, a1
00000000 00000169 0006 800026b0  x11:00000006 x10:00000009 x10=00000006  # remu    a0, a1, a0
00000000 00000170 0006 800026b4  x11=00000000                            # lui     a1, 0x0
00000000 00000171 0006 800026b8  x11:00000000 x4:0011e730 x11=0011e730   # add     a1, a1, tp
00000000 00000172 0006 800026bc  x11:0011e730 x10:00000006 WA:0011e734   # sw      a0, 4(a1)
00000000 00000173 0006 800026c0  x10=00000448                            # li      a0, 1096
00000000 00000174 0006 800026c4  x17:00000006 x10:00000448 x10=000019b0  # mul     a0, a7, a0
00000000 00000175 0006 800026c8  x11=800036c8                            # auipc   a1, 0x1
00000000 00000176 0006 800026cc  x11:800036c8 x11=80002ed4               # addi    a1, a1, -2036
00000000 00000177 0006 800026d0  x10:000019b0 x11:80002ed4 x10=80004884  # add     a0, a0, a1
00000000 00000178 0006 800026d4  x10:80004884 WA:80004884                # sw      zero, 0(a0)
00000000 00000179 0006 800026d8  x14:01000000 RA:01000030 x17=ffff0000   # lw      a7, 48(a4)
00000000 00000180 0006 800026dc  x15:0011ff70 x17:ffff0000 WA:0011ffe4   # sw      a7, 116(a5)
00000000 00000181 0006 800026e0  x15:0011ff70 x16:00120000 WA:0011ffec   # sw      a6, 124(a5)
00000000 00000182 0006 800026e4  x15:0011ff70 WA:0011ffe8                # sw      zero, 120(a5)
00000000 00000183 0006 800026e8  x16:00120000 x14=00120180               # addi    a4, a6, 384
00000000 00000184 0006 800026ec  x15:0011ff70 x14:00120180 WA:0011fff0   # sw      a4, 128(a5)
00000000 00000185 0006 800026f0  x12:00100000 x10=00100007               # addi    a0, a2, 7
00000000 00000186 0006 800026f4  x10:00100007 x10=00100000               # andi    a0, a0, -8
00000000 00000187 0006 800026f8  x15:0011ff70 x10:00100000 WA:0011ffc0   # sw      a0, 80(a5)
00000000 00000188 0006 800026fc  x13:0011db28 x12:00100000 x12=0001db28  # sub     a2, a3, a2
00000000 00000189 0006 80002700  x15:0011ff70 x12:0001db28 WA:0011ffc4   # sw      a2, 84(a5)
00000000 00000190 0006 80002704  x15:0011ff70 x10:00100000 WA:0011ffc8   # sw      a0, 88(a5)
00000000 00000191 0006 80002708  x11:80002ed4 RA:80002ed4 x10=00000000   # lw      a0, 0(a1)
00000000 00000192 0006 8000270c  x10:00000000 x10=0000044f               # addi    a0, a0, 1103
00000000 00000193 0006 80002710  x10:0000044f x10=00000448               # andi    a0, a0, -8
00000000 00000194 0006 80002714  x15:0011ff70 x10:00000448 WA:0011ffcc   # sw      a0, 92(a5)
00000000 00000195 0006 80002718  x15:0011ff70 WA:0011ffd0                # sw      zero, 96(a5)
00000000 00000196 0006 8000271c  x15:0011ff70 x10:00000448 WA:0011ffd4   # sw      a0, 100(a5)
00000000 00000197 0006 80002720  x10=00000000                            # lui     a0, 0x0
00000000 00000198 0006 80002724  x10:00000000 x4:0011e730 x10=0011e730   # add     a0, a0, tp
00000000 00000199 0006 80002728  x10:0011e730 x17:ffff0000 WA:0011e738   # sw      a7, 8(a0)
00000000 00000200 0006 8000272c  x10=00000000                            # lui     a0, 0x0
00000000 00000201 0006 80002730  x10:00000000 x4:0011e730 x10=0011e730   # add     a0, a0, tp
00000000 00000202 0006 80002734  x10:0011e730 x14:00120180 WA:0011e73c   # sw      a4, 12(a0)
00000000 00000203 0006 80002738  x1:800028fc                             # ret
00000000 00000204 0006 800028fc  x2:0011e71c RA:0011e71c x10=00000006    # lw      a0, 0(sp)
00000000 00000205 0006 80002900  x2:0011e71c RA:0011e720 x11=00000009    # lw      a1, 4(sp)
00000000 00000206 0006 80002904  x2:0011e71c RA:0011e724 x12=00100000    # lw      a2, 8(sp)
00000000 00000207 0006 80002908  x2:0011e71c RA:0011e728 x13=0011db28    # lw      a3, 12(sp)
00000000 00000208 0006 8000290c  x2:0011e71c RA:0011e72c x14=01000000    # lw      a4, 16(sp)
00000000 00000209 0006 80002910  x2:0011e71c x2=0011e730                 # addi    sp, sp, 20
00000000 00000210 0006 80002914  x5=80002914                             # auipc   t0, 0x0
00000000 00000211 0006 80002918  x5:80002914 x5=80002950                 # addi    t0, t0, 60
00000000 00000212 0006 8000291c  x5:80002950                             # csrw    mtvec, t0
00000000 00000213 0006 80002920  x1=80002920                             # auipc   ra, 0x0
00000000 00000214 0006 80002924  x1:80002920 x1=80002928                 # jalr    ra, ra, 544
00000000 00000215 0006 80002b40  x2:0011e730 x2=0011e72c                 # addi    sp, sp, -4
00000000 00000216 0006 80002b44  x2:0011e72c x1:80002928 WA:0011e72c     # sw      ra, 0(sp)
00000000 00000217 0006 80002b48  x1=80002b48                             # auipc   ra, 0x0
00000000 00000218 0006 80002b4c  x1:80002b48 x1=80002b50                 # jalr    ra, ra, -1620
00000000 00000219 0006 800024f4  x10=00000000                            # lui     a0, 0x0
00000000 00000220 0006 800024f8  x10:00000000 x4:0011e730 x10=0011e730   # add     a0, a0, tp
00000000 00000221 0006 800024fc  x10:0011e730 RA:0011e730 x10=0011ff70   # lw      a0, 0(a0)
00000000 00000222 0006 80002500  x10:0011ff70 RA:0011ff70 x10=0011ff70   # lw      a0, 0(a0)
00000000 00000223 0006 80002504  x10:0011ff70 RA:0011ffe0 x10=00120190   # lw      a0, 112(a0)
00000000 00000224 0006 80002508  x1:80002b50                             # ret
00000000 00000224 0008 80002508  x1:80002b50                             # ret
00000000 00000194 0003 80002714  x15:0011ff70 x10:00000448 WA:0011ffcc   # sw      a0, 92(a5)
00000000 00000156 0004 8000267c  x10:00040000 x12:00100000 x11=00140000  # add     a1, a0, a2
00000000 00000215 0002 80002b40  x2:0011f750 x2=0011f74c                 # addi    sp, sp, -4
00000000 00000195 0003 80002718  x15:0011ff70 WA:0011ffd0                # sw      zero, 96(a5)
00000000 00000157 0004 80002680  x11:00140000 x10:00040000 x10=00000000  # sltu    a0, a1, a0
00000000 00000196 0003 8000271c  x15:0011ff70 x10:00000448 WA:0011ffd4   # sw      a0, 100(a5)
00000000 00000158 0004 80002684  x15:0011ff70 x11:00140000 WA:0011ffb8   # sw      a1, 72(a5)
00000000 00000216 0002 80002b44  x2:0011f74c x1:80002928 WA:0011f74c     # sw      ra, 0(sp)
00000000 00000197 0003 80002720  x10=00000000                            # lui     a0, 0x0
00000000 00000159 0004 80002688  x15:0011ff70 x10:00000000 WA:0011ffbc   # sw      a0, 76(a5)
00000000 00000217 0002 80002b48  x1=80002b48                             # auipc   ra, 0x0
00000000 00000198 0003 80002724  x10:00000000 x4:0011f348 x10=0011f348   # add     a0, a0, tp
00000000 00000160 0004 8000268c  x15:0011ff70 WA:0011ffd8                # sw      zero, 104(a5)
00000000 00000218 0002 80002b4c  x1:80002b48 x1=80002b50                 # jalr    ra, ra, -1620
00000000 00000199 0003 80002728  x10:0011f348 x17:ffff0000 WA:0011f350   # sw      a7, 8(a0)
00000000 00000161 0004 80002690  x15:0011ff70 WA:0011ffdc                # sw      zero, 108(a5)
00000000 00000200 0003 8000272c  x10=00000000                            # lui     a0, 0x0
00000000 00000162 0004 80002694  x10=00000000                            # lui     a0, 0x0
00000000 00000201 0003 80002730  x10:00000000 x4:0011f348 x10=0011f348   # add     a0, a0, tp
00000000 00000163 0004 80002698  x10:00000000 x4:0011ef40 x10=0011ef40   # add     a0, a0, tp
00000000 00000202 0003 80002734  x10:0011f348 x14:00120180 WA:0011f354   # sw      a4, 12(a0)
00000000 00000164 0004 8000269c  x10:0011ef40 x15:0011ff70 WA:0011ef40   # sw      a5, 0(a0)
00000000 00000203 0003 80002738  x1:800028fc                             # ret
00000000 00000204 0003 800028fc  x2:0011f334 RA:0011f334 x10=00000003    # lw      a0, 0(sp)
00000000 00000205 0003 80002900  x2:0011f334 RA:0011f338 x11=00000009    # lw      a1, 4(sp)
00000000 00000206 0003 80002904  x2:0011f334 RA:0011f33c x12=00100000    # lw      a2, 8(sp)
00000000 00000207 0003 80002908  x2:0011f334 RA:0011f340 x13=0011db28    # lw      a3, 12(sp)
00000000 00000208 0003 8000290c  x2:0011f334 RA:0011f344 x14=01000000    # lw      a4, 16(sp)
00000000 00000209 0003 80002910  x2:0011f334 x2=0011f348                 # addi    sp, sp, 20
00000000 00000210 0003 80002914  x5=80002914                             # auipc   t0, 0x0
00000000 00000211 0003 80002918  x5:80002914 x5=80002950                 # addi    t0, t0, 60
00000000 00000212 0003 8000291c  x5:80002950                             # csrw    mtvec, t0
00000000 00000213 0003 80002920  x1=80002920                             # auipc   ra, 0x0
00000000 00000214 0003 80002924  x1:80002920 x1=80002928                 # jalr    ra, ra, 544
00000000 00000215 0003 80002b40  x2:0011f348 x2=0011f344                 # addi    sp, sp, -4
00000000 00000216 0003 80002b44  x2:0011f344 x1:80002928 WA:0011f344     # sw      ra, 0(sp)
00000000 00000217 0003 80002b48  x1=80002b48                             # auipc   ra, 0x0
00000000 00000218 0003 80002b4c  x1:80002b48 x1=80002b50                 # jalr    ra, ra, -1620
00000000 00000219 0003 800024f4  x10=00000000                            # lui     a0, 0x0
00000000 00000220 0003 800024f8  x10:00000000 x4:0011f348 x10=0011f348   # add     a0, a0, tp
00000000 00000221 0003 800024fc  x10:0011f348 RA:0011f348 x10=0011ff70   # lw      a0, 0(a0)
00000000 00000222 0003 80002500  x10:0011ff70 RA:0011ff70 x10=0011ff70   # lw      a0, 0(a0)
00000000 00000223 0003 80002504  x10:0011ff70 RA:0011ffe0 x10=00120190   # lw      a0, 112(a0)
00000000 00000224 0003 80002508  x1:80002b50                             # ret
00000000 00000219 0002 800024f4  x10=00000000                            # lui     a0, 0x0
00000000 00000220 0002 800024f8  x10:00000000 x4:0011f750 x10=0011f750   # add     a0, a0, tp
00000000 00000221 0002 800024fc  x10:0011f750 RA:0011f750 x10=0011ff70   # lw      a0, 0(a0)
00000000 00000222 0002 80002500  x10:0011ff70 RA:0011ff70 x10=0011ff70   # lw      a0, 0(a0)
00000000 00000223 0002 80002504  x10:0011ff70 RA:0011ffe0 x10=00120190   # lw      a0, 112(a0)
00000000 00000224 0002 80002508  x1:80002b50                             # ret
00000000 00000165 0004 800026a0  x15:0011ff70 RA:0011ff70 x10=0011ff70   # lw      a0, 0(a5)
00000000 00000166 0004 800026a4  x10:0011ff70 RA:0011ff88 x11=00000000   # lw      a1, 24(a0)
00000000 00000167 0004 800026a8  x10:0011ff70 RA:0011ff8c x10=00000009   # lw      a0, 28(a0)
00000000 00000168 0004 800026ac  x17:00000004 x11:00000000 x11=00000004  # sub     a1, a7, a1
00000000 00000169 0004 800026b0  x11:00000004 x10:00000009 x10=00000004  # remu    a0, a1, a0
00000000 00000170 0004 800026b4  x11=00000000                            # lui     a1, 0x0
00000000 00000171 0004 800026b8  x11:00000000 x4:0011ef40 x11=0011ef40   # add     a1, a1, tp
00000000 00000172 0004 800026bc  x11:0011ef40 x10:00000004 WA:0011ef44   # sw      a0, 4(a1)
00000000 00000173 0004 800026c0  x10=00000448                            # li      a0, 1096
00000000 00000174 0004 800026c4  x17:00000004 x10:00000448 x10=00001120  # mul     a0, a7, a0
00000000 00000175 0004 800026c8  x11=800036c8                            # auipc   a1, 0x1
00000000 00000176 0004 800026cc  x11:800036c8 x11=80002ed4               # addi    a1, a1, -2036
00000000 00000177 0004 800026d0  x10:00001120 x11:80002ed4 x10=80003ff4  # add     a0, a0, a1
00000000 00000178 0004 800026d4  x10:80003ff4 WA:80003ff4                # sw      zero, 0(a0)
00000000 00000179 0004 800026d8  x14:01000000 RA:01000030 x17=ffff0000   # lw      a7, 48(a4)
00000000 00000180 0004 800026dc  x15:0011ff70 x17:ffff0000 WA:0011ffe4   # sw      a7, 116(a5)
00000000 00000181 0004 800026e0  x15:0011ff70 x16:00120000 WA:0011ffec   # sw      a6, 124(a5)
00000000 00000182 0004 800026e4  x15:0011ff70 WA:0011ffe8                # sw      zero, 120(a5)
00000000 00000183 0004 800026e8  x16:00120000 x14=00120180               # addi    a4, a6, 384
00000000 00000184 0004 800026ec  x15:0011ff70 x14:00120180 WA:0011fff0   # sw      a4, 128(a5)
00000000 00000185 0004 800026f0  x12:00100000 x10=00100007               # addi    a0, a2, 7
00000000 00000186 0004 800026f4  x10:00100007 x10=00100000               # andi    a0, a0, -8
00000000 00000187 0004 800026f8  x15:0011ff70 x10:00100000 WA:0011ffc0   # sw      a0, 80(a5)
00000000 00000188 0004 800026fc  x13:0011db28 x12:00100000 x12=0001db28  # sub     a2, a3, a2
00000000 00000189 0004 80002700  x15:0011ff70 x12:0001db28 WA:0011ffc4   # sw      a2, 84(a5)
00000000 00000190 0004 80002704  x15:0011ff70 x10:00100000 WA:0011ffc8   # sw      a0, 88(a5)
00000000 00000191 0004 80002708  x11:80002ed4 RA:80002ed4 x10=00000000   # lw      a0, 0(a1)
00000000 00000192 0004 8000270c  x10:00000000 x10=0000044f               # addi    a0, a0, 1103
00000000 00000193 0004 80002710  x10:0000044f x10=00000448               # andi    a0, a0, -8
00000000 00000194 0004 80002714  x15:0011ff70 x10:00000448 WA:0011ffcc   # sw      a0, 92(a5)
00000000 00000195 0004 80002718  x15:0011ff70 WA:0011ffd0                # sw      zero, 96(a5)
00000000 00000196 0004 8000271c  x15:0011ff70 x10:00000448 WA:0011ffd4   # sw      a0, 100(a5)
00000000 00000197 0004 80002720  x10=00000000                            # lui     a0, 0x0
00000000 00000198 0004 80002724  x10:00000000 x4:0011ef40 x10=0011ef40   # add     a0, a0, tp
00000000 00000199 0004 80002728  x10:0011ef40 x17:ffff0000 WA:0011ef48   # sw      a7, 8(a0)
00000000 00000200 0004 8000272c  x10=00000000                            # lui     a0, 0x0
00000000 00000201 0004 80002730  x10:00000000 x4:0011ef40 x10=0011ef40   # add     a0, a0, tp
00000000 00000202 0004 80002734  x10:0011ef40 x14:00120180 WA:0011ef4c   # sw      a4, 12(a0)
00000000 00000203 0004 80002738  x1:800028fc                             # ret
00000000 00000204 0004 800028fc  x2:0011ef2c RA:0011ef2c x10=00000004    # lw      a0, 0(sp)
00000000 00000205 0004 80002900  x2:0011ef2c RA:0011ef30 x11=00000009    # lw      a1, 4(sp)
00000000 00000206 0004 80002904  x2:0011ef2c RA:0011ef34 x12=00100000    # lw      a2, 8(sp)
00000000 00000207 0004 80002908  x2:0011ef2c RA:0011ef38 x13=0011db28    # lw      a3, 12(sp)
00000000 00000208 0004 8000290c  x2:0011ef2c RA:0011ef3c x14=01000000    # lw      a4, 16(sp)
00000000 00000209 0004 80002910  x2:0011ef2c x2=0011ef40                 # addi    sp, sp, 20
00000000 00000210 0004 80002914  x5=80002914                             # auipc   t0, 0x0
00000000 00000211 0004 80002918  x5:80002914 x5=80002950                 # addi    t0, t0, 60
00000000 00000212 0004 8000291c  x5:80002950                             # csrw    mtvec, t0
00000000 00000213 0004 80002920  x1=80002920                             # auipc   ra, 0x0
00000000 00000214 0004 80002924  x1:80002920 x1=80002928                 # jalr    ra, ra, 544
00000000 00000215 0004 80002b40  x2:0011ef40 x2=0011ef3c                 # addi    sp, sp, -4
00000000 00000216 0004 80002b44  x2:0011ef3c x1:80002928 WA:0011ef3c     # sw      ra, 0(sp)
00000000 00000217 0004 80002b48  x1=80002b48                             # auipc   ra, 0x0
00000000 00000218 0004 80002b4c  x1:80002b48 x1=80002b50                 # jalr    ra, ra, -1620
00000000 00000219 0004 800024f4  x10=00000000                            # lui     a0, 0x0
00000000 00000220 0004 800024f8  x10:00000000 x4:0011ef40 x10=0011ef40   # add     a0, a0, tp
00000000 00000221 0004 800024fc  x10:0011ef40 RA:0011ef40 x10=0011ff70   # lw      a0, 0(a0)
00000000 00000222 0004 80002500  x10:0011ff70 RA:0011ff70 x10=0011ff70   # lw      a0, 0(a0)
00000000 00000223 0004 80002504  x10:0011ff70 RA:0011ffe0 x10=00120190   # lw      a0, 112(a0)
00000000 00000224 0004 80002508  x1:80002b50                             # ret
00000000 00000225 0008 80002b50  x10:00120190 RA:00120190 x10=00000000   # lw      a0, 0(a0)
00000000 00000225 0001 80002b50  x10:00120190 RA:00120190 x10=00000000   # lw      a0, 0(a0)
00000000 00000225 0006 80002b50  x10:00120190 RA:00120190 x10=00000000   # lw      a0, 0(a0)
00000000 00000225 0003 80002b50  x10:00120190 RA:00120190 x10=00000000   # lw      a0, 0(a0)
00000000 00000225 0007 80002b50  x10:00120190 RA:00120190 x10=00000000   # lw      a0, 0(a0)
00000000 00000226 0007 80002b54  x10:00000000                            # mv      zero, a0
00000000 00000225 0002 80002b50  x10:00120190 RA:00120190 x10=00000000   # lw      a0, 0(a0)
00000000 00000226 0001 80002b54  x10:00000000                            # mv      zero, a0
00000000 00000226 0006 80002b54  x10:00000000                            # mv      zero, a0
00000000 00000226 0003 80002b54  x10:00000000                            # mv      zero, a0
00000000 00000227 0003 80002b58  x2:0011f344 RA:0011f344 x1=80002928     # lw      ra, 0(sp)
00000000 00000228 0003 80002b5c  x2:0011f344 x2=0011f348                 # addi    sp, sp, 4
00000000 00000227 0007 80002b58  x2:0011e324 RA:0011e324 x1=80002928     # lw      ra, 0(sp)
00000000 00000226 0002 80002b54  x10:00000000                            # mv      zero, a0
00000000 00000227 0002 80002b58  x2:0011f74c RA:0011f74c x1=80002928     # lw      ra, 0(sp)
00000000 00000228 0002 80002b5c  x2:0011f74c x2=0011f750                 # addi    sp, sp, 4
00000000 00000229 0002 80002b60  x1:80002928                             # ret
00000000 00000225 0005 80002b50  x10:00120190 RA:00120190 x10=00000000   # lw      a0, 0(a0)
00000000 00000229 0003 80002b60  x1:80002928                             # ret
00000000 00000228 0007 80002b5c  x2:0011e324 x2=0011e328                 # addi    sp, sp, 4
00000000 00000229 0007 80002b60  x1:80002928                             # ret
00000000 00000230 0007 80002928  x1=80000928                             # auipc   ra, 0xffffe
00000000 00000230 0002 80002928  x1=80000928                             # auipc   ra, 0xffffe
00000000 00000231 0002 8000292c  x1:80000928 x1=80002930                 # jalr    ra, ra, -508
00000000 00000226 0005 80002b54  x10:00000000                            # mv      zero, a0
00000000 00000230 0003 80002928  x1=80000928                             # auipc   ra, 0xffffe
00000000 00000227 0005 80002b58  x2:0011eb34 RA:0011eb34 x1=80002928     # lw      ra, 0(sp)
00000000 00000227 0006 80002b58  x2:0011e72c RA:0011e72c x1=80002928     # lw      ra, 0(sp)
00000000 00000231 0007 8000292c  x1:80000928 x1=80002930                 # jalr    ra, ra, -508
00000000 00000226 0008 80002b54  x10:00000000                            # mv      zero, a0
00000000 00000232 0007 8000072c  x2:0011e328 x2=0011e308                 # addi    sp, sp, -32
00000000 00000232 0002 8000072c  x2:0011f750 x2=0011f730                 # addi    sp, sp, -32
00000000 00000233 0007 80000730  x2:0011e308 x1:80002930 WA:0011e324     # sw      ra, 28(sp)
00000000 00000233 0002 80000730  x2:0011f730 x1:80002930 WA:0011f74c     # sw      ra, 28(sp)
00000000 00000228 0005 80002b5c  x2:0011eb34 x2=0011eb38                 # addi    sp, sp, 4
00000000 00000228 0006 80002b5c  x2:0011e72c x2=0011e730                 # addi    sp, sp, 4
00000000 00000227 0008 80002b58  x2:0011df1c RA:0011df1c x1=80002928     # lw      ra, 0(sp)
00000000 00000228 0008 80002b5c  x2:0011df1c x2=0011df20                 # addi    sp, sp, 4
00000000 00000229 0008 80002b60  x1:80002928                             # ret
00000000 00000230 0008 80002928  x1=80000928                             # auipc   ra, 0xffffe
00000000 00000231 0008 8000292c  x1:80000928 x1=80002930                 # jalr    ra, ra, -508
00000000 00000229 0005 80002b60  x1:80002928                             # ret
00000000 00000229 0006 80002b60  x1:80002928                             # ret
00000000 00000230 0006 80002928  x1=80000928                             # auipc   ra, 0xffffe
00000000 00000231 0003 8000292c  x1:80000928 x1=80002930                 # jalr    ra, ra, -508
00000000 00000234 0007 80000734  x2:0011e308 x8:00000007 WA:0011e320     # sw      s0, 24(sp)
00000000 00000232 0003 8000072c  x2:0011f348 x2=0011f328                 # addi    sp, sp, -32
00000000 00000234 0002 80000734  x2:0011f730 x8:00000002 WA:0011f748     # sw      s0, 24(sp)
00000000 00000235 0007 80000738  x2:0011e308 f08:        0.000000 WA:0011e318 WA:0011e31c  # fsd     fs0, 16(sp)
00000000 00000235 0002 80000738  x2:0011f730 f08:        0.000000 WA:0011f740 WA:0011f744  # fsd     fs0, 16(sp)
00000000 00000227 0001 80002b58  x2:0011fb54 RA:0011fb54 x1=80002928     # lw      ra, 0(sp)
00000000 00000236 0002 8000073c  x10=00000000                            # lui     a0, 0x0
00000000 00000233 0003 80000730  x2:0011f328 x1:80002930 WA:0011f344     # sw      ra, 28(sp)
00000000 00000237 0002 80000740  x10:00000000 x4:0011f750 x10=0011f750   # add     a0, a0, tp
00000000 00000230 0005 80002928  x1=80000928                             # auipc   ra, 0xffffe
00000000 00000231 0005 8000292c  x1:80000928 x1=80002930                 # jalr    ra, ra, -508
00000000 00000228 0001 80002b5c  x2:0011fb54 x2=0011fb58                 # addi    sp, sp, 4
00000000 00000232 0005 8000072c  x2:0011eb38 x2=0011eb18                 # addi    sp, sp, -32
00000000 00000229 0001 80002b60  x1:80002928                             # ret
00000000 00000233 0005 80000730  x2:0011eb18 x1:80002930 WA:0011eb34     # sw      ra, 28(sp)
00000000 00000236 0007 8000073c  x10=00000000                            # lui     a0, 0x0
00000000 00000237 0007 80000740  x10:00000000 x4:0011e328 x10=0011e328   # add     a0, a0, tp
00000000 00000238 0007 80000744  x10:0011e328 RA:0011e32c x11=00000007   # lw      a1, 4(a0)
00000000 00000234 0003 80000734  x2:0011f328 x8:00000003 WA:0011f340     # sw      s0, 24(sp)
00000000 00000233 0000 80002b50  x10:00120190 RA:00120190 x10=00000000   # lw      a0, 0(a0)
00000000 00000235 0003 80000738  x2:0011f328 f08:        0.000000 WA:0011f338 WA:0011f33c  # fsd     fs0, 16(sp)
00000000 00000234 0000 80002b54  x10:00000000                            # mv      zero, a0
00000000 00000238 0002 80000744  x10:0011f750 RA:0011f754 x11=00000002   # lw      a1, 4(a0)
00000000 00000232 0008 8000072c  x2:0011df20 x2=0011df00                 # addi    sp, sp, -32
00000000 00000239 0007 80000748  x10=00000000                            # li      a0, 0
00000000 00000240 0007 8000074c  x11:00000007                            # bnez    a1, pc + 444
00000000 00000230 0001 80002928  x1=80000928                             # auipc   ra, 0xffffe
00000000 00000234 0005 80000734  x2:0011eb18 x8:00000005 WA:0011eb30     # sw      s0, 24(sp)
00000000 00000236 0003 8000073c  x10=00000000                            # lui     a0, 0x0
00000000 00000231 0006 8000292c  x1:80000928 x1=80002930                 # jalr    ra, ra, -508
00000000 00000235 0000 80002b58  x2:0011ff5c RA:0011ff5c x1=80002928     # lw      ra, 0(sp)
00000000 00000232 0006 8000072c  x2:0011e730 x2=0011e710                 # addi    sp, sp, -32
00000000 00000236 0000 80002b5c  x2:0011ff5c x2=0011ff60                 # addi    sp, sp, 4
00000000 00000233 0008 80000730  x2:0011df00 x1:80002930 WA:0011df1c     # sw      ra, 28(sp)
00000000 00000225 0004 80002b50  x10:00120190 RA:00120190 x10=00000000   # lw      a0, 0(a0)
00000000 00000241 0007 80000908  x2:0011e308 RA:0011e318 RA:0011e31c f08=        0.000000  # fld     fs0, 16(sp)
00000000 00000231 0001 8000292c  x1:80000928 x1=80002930                 # jalr    ra, ra, -508
00000000 00000235 0005 80000738  x2:0011eb18 f08:        0.000000 WA:0011eb28 WA:0011eb2c  # fsd     fs0, 16(sp)
00000000 00000237 0003 80000740  x10:00000000 x4:0011f348 x10=0011f348   # add     a0, a0, tp
00000000 00000239 0002 80000748  x10=00000000                            # li      a0, 0
00000000 00000240 0002 8000074c  x11:00000002                            # bnez    a1, pc + 444
00000000 00000237 0000 80002b60  x1:80002928                             # ret
00000000 00000234 0008 80000734  x2:0011df00 x8:00000008 WA:0011df18     # sw      s0, 24(sp)
00000000 00000226 0004 80002b54  x10:00000000                            # mv      zero, a0
00000000 00000242 0007 8000090c  x2:0011e308 RA:0011e320 x8=00000007     # lw      s0, 24(sp)
00000000 00000232 0001 8000072c  x2:0011fb58 x2=0011fb38                 # addi    sp, sp, -32
00000000 00000233 0001 80000730  x2:0011fb38 x1:80002930 WA:0011fb54     # sw      ra, 28(sp)
00000000 00000234 0001 80000734  x2:0011fb38 x8:00000001 WA:0011fb50     # sw      s0, 24(sp)
00000000 00000233 0006 80000730  x2:0011e710 x1:80002930 WA:0011e72c     # sw      ra, 28(sp)
00000000 00000241 0002 80000908  x2:0011f730 RA:0011f740 RA:0011f744 f08=        0.000000  # fld     fs0, 16(sp)
00000000 00000238 0000 80002928  x1=80000928                             # auipc   ra, 0xffffe
00000000 00000239 0000 8000292c  x1:80000928 x1=80002930                 # jalr    ra, ra, -508
00000000 00000227 0004 80002b58  x2:0011ef3c RA:0011ef3c x1=80002928     # lw      ra, 0(sp)
00000000 00000228 0004 80002b5c  x2:0011ef3c x2=0011ef40                 # addi    sp, sp, 4
00000000 00000236 0005 8000073c  x10=00000000                            # lui     a0, 0x0
00000000 00000238 0003 80000744  x10:0011f348 RA:0011f34c x11=00000003   # lw      a1, 4(a0)
00000000 00000235 0001 80000738  x2:0011fb38 f08:        0.000000 WA:0011fb48 WA:0011fb4c  # fsd     fs0, 16(sp)
00000000 00000234 0006 80000734  x2:0011e710 x8:00000006 WA:0011e728     # sw      s0, 24(sp)
00000000 00000242 0002 8000090c  x2:0011f730 RA:0011f748 x8=00000002     # lw      s0, 24(sp)
00000000 00000235 0008 80000738  x2:0011df00 f08:        0.000000 WA:0011df10 WA:0011df14  # fsd     fs0, 16(sp)
00000000 00000240 0000 8000072c  x2:0011ff60 x2=0011ff40                 # addi    sp, sp, -32
00000000 00000243 0007 80000910  x2:0011e308 RA:0011e324 x1=80002930     # lw      ra, 28(sp)
00000000 00000244 0007 80000914  x2:0011e308 x2=0011e328                 # addi    sp, sp, 32
00000000 00000229 0004 80002b60  x1:80002928                             # ret
00000000 00000239 0003 80000748  x10=00000000                            # li      a0, 0
00000000 00000236 0001 8000073c  x10=00000000                            # lui     a0, 0x0
00000000 00000235 0006 80000738  x2:0011e710 f08:        0.000000 WA:0011e720 WA:0011e724  # fsd     fs0, 16(sp)
00000000 00000243 0002 80000910  x2:0011f730 RA:0011f74c x1=80002930     # lw      ra, 28(sp)
00000000 00000244 0002 80000914  x2:0011f730 x2=0011f750                 # addi    sp, sp, 32
00000000 00000245 0002 80000918  x1:80002930                             # ret
00000000 00000245 0007 80000918  x1:80002930                             # ret
00000000 00000237 0005 80000740  x10:00000000 x4:0011eb38 x10=0011eb38   # add     a0, a0, tp
00000000 00000230 0004 80002928  x1=80000928                             # auipc   ra, 0xffffe
00000000 00000240 0003 8000074c  x11:00000003                            # bnez    a1, pc + 444
00000000 00000237 0001 80000740  x10:00000000 x4:0011fb58 x10=0011fb58   # add     a0, a0, tp
00000000 00000241 0003 80000908  x2:0011f328 RA:0011f338 RA:0011f33c f08=        0.000000  # fld     fs0, 16(sp)
00000000 00000238 0001 80000744  x10:0011fb58 RA:0011fb5c x11=00000001   # lw      a1, 4(a0)
00000000 00000236 0008 8000073c  x10=00000000                            # lui     a0, 0x0
00000000 00000241 0000 80000730  x2:0011ff40 x1:80002930 WA:0011ff5c     # sw      ra, 28(sp)
00000000 00000246 0007 80002930  x10:00000000 x8=00000000                # mv      s0, a0
00000000 00000247 0007 80002934  x1=80002934                             # auipc   ra, 0x0
00000000 00000248 0007 80002938  x1:80002934 x1=8000293c                 # jalr    ra, ra, 524
00000000 00000249 0007 80002b40  x2:0011e328 x2=0011e324                 # addi    sp, sp, -4
00000000 00000242 0003 8000090c  x2:0011f328 RA:0011f340 x8=00000003     # lw      s0, 24(sp)
00000000 00000239 0001 80000748  x10=00000000                            # li      a0, 0
00000000 00000246 0002 80002930  x10:00000000 x8=00000000                # mv      s0, a0
00000000 00000237 0008 80000740  x10:00000000 x4:0011df20 x10=0011df20   # add     a0, a0, tp
00000000 00000242 0000 80000734  x2:0011ff40 x8:00000000 WA:0011ff58     # sw      s0, 24(sp)
00000000 00000238 0005 80000744  x10:0011eb38 RA:0011eb3c x11=00000005   # lw      a1, 4(a0)
00000000 00000231 0004 8000292c  x1:80000928 x1=80002930                 # jalr    ra, ra, -508
00000000 00000236 0006 8000073c  x10=00000000                            # lui     a0, 0x0
00000000 00000232 0004 8000072c  x2:0011ef40 x2=0011ef20                 # addi    sp, sp, -32
00000000 00000250 0007 80002b44  x2:0011e324 x1:8000293c WA:0011e324     # sw      ra, 0(sp)
00000000 00000243 0003 80000910  x2:0011f328 RA:0011f344 x1=80002930     # lw      ra, 28(sp)
00000000 00000240 0001 8000074c  x11:00000001                            # bnez    a1, pc + 444
00000000 00000244 0003 80000914  x2:0011f328 x2=0011f348                 # addi    sp, sp, 32
00000000 00000238 0008 80000744  x10:0011df20 RA:0011df24 x11=00000008   # lw      a1, 4(a0)
00000000 00000241 0001 80000908  x2:0011fb38 RA:0011fb48 RA:0011fb4c f08=        0.000000  # fld     fs0, 16(sp)
00000000 00000239 0005 80000748  x10=00000000                            # li      a0, 0
00000000 00000237 0006 80000740  x10:00000000 x4:0011e730 x10=0011e730   # add     a0, a0, tp
00000000 00000233 0004 80000730  x2:0011ef20 x1:80002930 WA:0011ef3c     # sw      ra, 28(sp)
00000000 00000251 0007 80002b48  x1=80002b48                             # auipc   ra, 0x0
00000000 00000247 0002 80002934  x1=80002934                             # auipc   ra, 0x0
00000000 00000245 0003 80000918  x1:80002930                             # ret
00000000 00000243 0000 80000738  x2:0011ff40 f08:        0.000000 WA:0011ff50 WA:0011ff54  # fsd     fs0, 16(sp)
00000000 00000244 0000 8000073c  x10=00000000                            # lui     a0, 0x0
00000000 00000245 0000 80000740  x10:00000000 x4:0011ff60 x10=0011ff60   # add     a0, a0, tp
00000000 00000246 0000 80000744  x10:0011ff60 RA:0011ff64 x11=00000000   # lw      a1, 4(a0)
00000000 00000247 0000 80000748  x10=00000000                            # li      a0, 0
00000000 00000248 0000 8000074c  x11:00000000                            # bnez    a1, pc + 444
00000000 00000249 0000 80000750  x10=00000000                            # lui     a0, 0x0
00000000 00000248 0002 80002938  x1:80002934 x1=8000293c                 # jalr    ra, ra, 524
00000000 00000246 0003 80002930  x10:00000000 x8=00000000                # mv      s0, a0
00000000 00000247 0003 80002934  x1=80002934                             # auipc   ra, 0x0
00000000 00000242 0001 8000090c  x2:0011fb38 RA:0011fb50 x8=00000001     # lw      s0, 24(sp)
00000000 00000240 0005 8000074c  x11:00000005                            # bnez    a1, pc + 444
00000000 00000238 0006 80000744  x10:0011e730 RA:0011e734 x11=00000006   # lw      a1, 4(a0)
00000000 00000234 0004 80000734  x2:0011ef20 x8:00000004 WA:0011ef38     # sw      s0, 24(sp)
00000000 00000252 0007 80002b4c  x1:80002b48 x1=80002b50                 # jalr    ra, ra, -1620
00000000 00000250 0000 80000754  x10:00000000 x4:0011ff60 x10=0011ff60   # add     a0, a0, tp
00000000 00000249 0002 80002b40  x2:0011f750 x2=0011f74c                 # addi    sp, sp, -4
00000000 00000250 0002 80002b44  x2:0011f74c x1:8000293c WA:0011f74c     # sw      ra, 0(sp)
00000000 00000251 0002 80002b48  x1=80002b48                             # auipc   ra, 0x0
00000000 00000252 0002 80002b4c  x1:80002b48 x1=80002b50                 # jalr    ra, ra, -1620
00000000 00000253 0002 800024f4  x10=00000000                            # lui     a0, 0x0
00000000 00000254 0002 800024f8  x10:00000000 x4:0011f750 x10=0011f750   # add     a0, a0, tp
00000000 00000255 0002 800024fc  x10:0011f750 RA:0011f750 x10=0011ff70   # lw      a0, 0(a0)
00000000 00000256 0002 80002500  x10:0011ff70 RA:0011ff70 x10=0011ff70   # lw      a0, 0(a0)
00000000 00000251 0000 80000758  x10:0011ff60 RA:0011ff60 x10=0011ff70   # lw      a0, 0(a0)
00000000 00000252 0000 8000075c  x10:0011ff70 RA:0011ff70 x10=0011ff70   # lw      a0, 0(a0)
00000000 00000248 0003 80002938  x1:80002934 x1=8000293c                 # jalr    ra, ra, 524
00000000 00000243 0001 80000910  x2:0011fb38 RA:0011fb54 x1=80002930     # lw      ra, 28(sp)
00000000 00000241 0005 80000908  x2:0011eb18 RA:0011eb28 RA:0011eb2c f08=        0.000000  # fld     fs0, 16(sp)
00000000 00000239 0006 80000748  x10=00000000                            # li      a0, 0
00000000 00000235 0004 80000738  x2:0011ef20 f08:        0.000000 WA:0011ef30 WA:0011ef34  # fsd     fs0, 16(sp)
00000000 00000253 0007 800024f4  x10=00000000                            # lui     a0, 0x0
00000000 00000257 0002 80002504  x10:0011ff70 RA:0011ffe0 x10=00120190   # lw      a0, 112(a0)
00000000 00000239 0008 80000748  x10=00000000                            # li      a0, 0
00000000 00000253 0000 80000760  x10:0011ff70 RA:0011ffc8 x8=00100000    # lw      s0, 88(a0)
00000000 00000249 0003 80002b40  x2:0011f348 x2=0011f344                 # addi    sp, sp, -4
00000000 00000244 0001 80000914  x2:0011fb38 x2=0011fb58                 # addi    sp, sp, 32
00000000 00000245 0001 80000918  x1:80002930                             # ret
00000000 00000246 0001 80002930  x10:00000000 x8=00000000                # mv      s0, a0
00000000 00000247 0001 80002934  x1=80002934                             # auipc   ra, 0x0
00000000 00000248 0001 80002938  x1:80002934 x1=8000293c                 # jalr    ra, ra, 524
00000000 00000258 0002 80002508  x1:80002b50                             # ret
00000000 00000240 0008 8000074c  x11:00000008                            # bnez    a1, pc + 444
00000000 00000254 0000 80000764  x10:0011ff70 RA:0011ffc0 x12=00100000   # lw      a2, 80(a0)
00000000 00000250 0003 80002b44  x2:0011f344 x1:8000293c WA:0011f344     # sw      ra, 0(sp)
00000000 00000255 0000 80000768  x10:0011ff70 RA:0011ffc4 x13=0001db28   # lw      a3, 84(a0)
00000000 00000240 0006 8000074c  x11:00000006                            # bnez    a1, pc + 444
00000000 00000236 0004 8000073c  x10=00000000                            # lui     a0, 0x0
00000000 00000241 0006 80000908  x2:0011e710 RA:0011e720 RA:0011e724 f08=        0.000000  # fld     fs0, 16(sp)
00000000 00000237 0004 80000740  x10:00000000 x4:0011ef40 x10=0011ef40   # add     a0, a0, tp
00000000 00000249 0001 80002b40  x2:0011fb58 x2=0011fb54                 # addi    sp, sp, -4
00000000 00000241 0008 80000908  x2:0011df00 RA:0011df10 RA:0011df14 f08=        0.000000  # fld     fs0, 16(sp)
00000000 00000242 0005 8000090c  x2:0011eb18 RA:0011eb30 x8=00000005     # lw      s0, 24(sp)
00000000 00000251 0003 80002b48  x1=80002b48                             # auipc   ra, 0x0
00000000 00000252 0003 80002b4c  x1:80002b48 x1=80002b50                 # jalr    ra, ra, -1620
00000000 00000253 0003 800024f4  x10=00000000                            # lui     a0, 0x0
00000000 00000254 0007 800024f8  x10:00000000 x4:0011e328 x10=0011e328   # add     a0, a0, tp
00000000 00000242 0006 8000090c  x2:0011e710 RA:0011e728 x8=00000006     # lw      s0, 24(sp)
00000000 00000238 0004 80000744  x10:0011ef40 RA:0011ef44 x11=00000004   # lw      a1, 4(a0)
00000000 00000239 0004 80000748  x10=00000000                            # li      a0, 0
00000000 00000240 0004 8000074c  x11:00000004                            # bnez    a1, pc + 444
00000000 00000243 0005 80000910  x2:0011eb18 RA:0011eb34 x1=80002930     # lw      ra, 28(sp)
00000000 00000241 0004 80000908  x2:0011ef20 RA:0011ef30 RA:0011ef34 f08=        0.000000  # fld     fs0, 16(sp)
00000000 00000256 0000 8000076c  x8:00100000 x11=00100030                # addi    a1, s0, 48
00000000 00000254 0003 800024f8  x10:00000000 x4:0011f348 x10=0011f348   # add     a0, a0, tp
00000000 00000257 0000 80000770  x13:0001db28 x12:00100000 x12=0011db28  # add     a2, a3, a2
00000000 00000255 0007 800024fc  x10:0011e328 RA:0011e328 x10=0011ff70   # lw      a0, 0(a0)
00000000 00000243 0006 80000910  x2:0011e710 RA:0011e72c x1=80002930     # lw      ra, 28(sp)
00000000 00000244 0006 80000914  x2:0011e710 x2=0011e730                 # addi    sp, sp, 32
00000000 00000245 0006 80000918  x1:80002930                             # ret
00000000 00000246 0006 80002930  x10:00000000 x8=00000000                # mv      s0, a0
00000000 00000247 0006 80002934  x1=80002934                             # auipc   ra, 0x0
00000000 00000255 0003 800024fc  x10:0011f348 RA:0011f348 x10=0011ff70   # lw      a0, 0(a0)
00000000 00000256 0003 80002500  x10:0011ff70 RA:0011ff70 x10=0011ff70   # lw      a0, 0(a0)
00000000 00000257 0003 80002504  x10:0011ff70 RA:0011ffe0 x10=00120190   # lw      a0, 112(a0)
00000000 00000258 0003 80002508  x1:80002b50                             # ret
00000000 00000250 0001 80002b44  x2:0011fb54 x1:8000293c WA:0011fb54     # sw      ra, 0(sp)
00000000 00000251 0001 80002b48  x1=80002b48                             # auipc   ra, 0x0
00000000 00000252 0001 80002b4c  x1:80002b48 x1=80002b50                 # jalr    ra, ra, -1620
00000000 00000253 0001 800024f4  x10=00000000                            # lui     a0, 0x0
00000000 00000258 0000 80000774  x12:0011db28 x11:00100030               # bgeu    a2, a1, pc + 12
00000000 00000256 0007 80002500  x10:0011ff70 RA:0011ff70 x10=0011ff70   # lw      a0, 0(a0)
00000000 00000242 0008 8000090c  x2:0011df00 RA:0011df18 x8=00000008     # lw      s0, 24(sp)
00000000 00000244 0005 80000914  x2:0011eb18 x2=0011eb38                 # addi    sp, sp, 32
00000000 00000242 0004 8000090c  x2:0011ef20 RA:0011ef38 x8=00000004     # lw      s0, 24(sp)
00000000 00000248 0006 80002938  x1:80002934 x1=8000293c                 # jalr    ra, ra, 524
00000000 00000249 0006 80002b40  x2:0011e730 x2=0011e72c                 # addi    sp, sp, -4
00000000 00000259 0000 80000780  x10:0011ff70 x11:00100030 WA:0011ffc8   # sw      a1, 88(a0)
00000000 00000257 0007 80002504  x10:0011ff70 RA:0011ffe0 x10=00120190   # lw      a0, 112(a0)
00000000 00000243 0008 80000910  x2:0011df00 RA:0011df1c x1=80002930     # lw      ra, 28(sp)
00000000 00000245 0005 80000918  x1:80002930                             # ret
00000000 00000243 0004 80000910  x2:0011ef20 RA:0011ef3c x1=80002930     # lw      ra, 28(sp)
00000000 00000254 0001 800024f8  x10:00000000 x4:0011fb58 x10=0011fb58   # add     a0, a0, tp
00000000 00000250 0006 80002b44  x2:0011e72c x1:8000293c WA:0011e72c     # sw      ra, 0(sp)
00000000 00000260 0000 80000784  x8:00100000 x10=00100000                # mv      a0, s0
00000000 00000261 0000 80000788  x1=80000788                             # auipc   ra, 0x0
00000000 00000244 0008 80000914  x2:0011df00 x2=0011df20                 # addi    sp, sp, 32
00000000 00000246 0005 80002930  x10:00000000 x8=00000000                # mv      s0, a0
00000000 00000247 0005 80002934  x1=80002934                             # auipc   ra, 0x0
00000000 00000248 0005 80002938  x1:80002934 x1=8000293c                 # jalr    ra, ra, 524
00000000 00000251 0006 80002b48  x1=80002b48                             # auipc   ra, 0x0
00000000 00000252 0006 80002b4c  x1:80002b48 x1=80002b50                 # jalr    ra, ra, -1620
00000000 00000253 0006 800024f4  x10=00000000                            # lui     a0, 0x0
00000000 00000262 0000 8000078c  x1:80000788 x1=80000790                 # jalr    ra, ra, -340
00000000 00000245 0008 80000918  x1:80002930                             # ret
00000000 00000244 0004 80000914  x2:0011ef20 x2=0011ef40                 # addi    sp, sp, 32
00000000 00000255 0001 800024fc  x10:0011fb58 RA:0011fb58 x10=0011ff70   # lw      a0, 0(a0)
00000000 00000249 0005 80002b40  x2:0011eb38 x2=0011eb34                 # addi    sp, sp, -4
00000000 00000258 0007 80002508  x1:80002b50                             # ret
00000000 00000254 0006 800024f8  x10:00000000 x4:0011e730 x10=0011e730   # add     a0, a0, tp
00000000 00000255 0006 800024fc  x10:0011e730 RA:0011e730 x10=0011ff70   # lw      a0, 0(a0)
00000000 00000256 0006 80002500  x10:0011ff70 RA:0011ff70 x10=0011ff70   # lw      a0, 0(a0)
00000000 00000257 0006 80002504  x10:0011ff70 RA:0011ffe0 x10=00120190   # lw      a0, 112(a0)
00000000 00000258 0006 80002508  x1:80002b50                             # ret
00000000 00000263 0000 80000634  x10:00100000 x11=00000001               # srli    a1, a0, 20
00000000 00000264 0000 80000638  x11:00000001 x11=00000001               # snez    a1, a1
00000000 00000265 0000 8000063c  x12=00120000                            # lui     a2, 0x120
00000000 00000250 0005 80002b44  x2:0011eb34 x1:8000293c WA:0011eb34     # sw      ra, 0(sp)
00000000 00000246 0008 80002930  x10:00000000 x8=00000000                # mv      s0, a0
00000000 00000247 0008 80002934  x1=80002934                             # auipc   ra, 0x0
00000000 00000248 0008 80002938  x1:80002934 x1=8000293c                 # jalr    ra, ra, 524
00000000 00000249 0008 80002b40  x2:0011df20 x2=0011df1c                 # addi    sp, sp, -4
00000000 00000250 0008 80002b44  x2:0011df1c x1:8000293c WA:0011df1c     # sw      ra, 0(sp)
00000000 00000251 0008 80002b48  x1=80002b48                             # auipc   ra, 0x0
00000000 00000252 0008 80002b4c  x1:80002b48 x1=80002b50                 # jalr    ra, ra, -1620
00000000 00000253 0008 800024f4  x10=00000000                            # lui     a0, 0x0
00000000 00000254 0008 800024f8  x10:00000000 x4:0011df20 x10=0011df20   # add     a0, a0, tp
00000000 00000255 0008 800024fc  x10:0011df20 RA:0011df20 x10=0011ff70   # lw      a0, 0(a0)
00000000 00000256 0008 80002500  x10:0011ff70 RA:0011ff70 x10=0011ff70   # lw      a0, 0(a0)
00000000 00000257 0008 80002504  x10:0011ff70 RA:0011ffe0 x10=00120190   # lw      a0, 112(a0)
00000000 00000258 0008 80002508  x1:80002b50                             # ret
00000000 00000245 0004 80000918  x1:80002930                             # ret
00000000 00000256 0001 80002500  x10:0011ff70 RA:0011ff70 x10=0011ff70   # lw      a0, 0(a0)
00000000 00000266 0000 80000640  x12:00120000 x12=0011ffd9               # addi    a2, a2, -39
00000000 00000267 0000 80000644  x10:00100000 x12:0011ffd9 x12=00000001  # sltu    a2, a0, a2
00000000 00000268 0000 80000648  x11:00000001 x12:00000001 x11=00000001  # and     a1, a1, a2
00000000 00000269 0000 8000064c  x11:00000001                            # beqz    a1, pc + 148
00000000 00000270 0000 80000650  x11=00000008                            # li      a1, 8
00000000 00000271 0000 80000654  x12=00000005                            # li      a2, 5
00000000 00000272 0000 80000658  x13=00000040                            # li      a3, 64
00000000 00000273 0000 8000065c  x14=000000c0                            # li      a4, 192
00000000 00000274 0000 80000660  x12:00000005 x13:00000040 WA:00204810   # scfgw   a2, a3
00000000 00000275 0000 80000664  x11:00000008 x14:000000c0 WA:00204830   # scfgw   a1, a4
00000000 00000276 0000 80000668  x11=00000020                            # li      a1, 32
00000000 00000277 0000 8000066c  x11:00000020 WA:00204808                # scfgw   zero, a1
00000000 00000278 0000 80000670  x11=80002670                            # auipc   a1, 0x2
00000000 00000279 0000 80000674  x11:80002670 x11=80002de8               # addi    a1, a1, 1912
00000000 00000280 0000 80000678  x11:80002de8 RA:80002de8 RA:80002dec f03=        1.000000  # fld     ft3, 0(a1)
00000000 00000281 0000 8000067c  x11=8000267c                            # auipc   a1, 0x2
00000000 00000282 0000 80000680  x11:8000267c x11=80002df0               # addi    a1, a1, 1908
00000000 00000283 0000 80000684  x11:80002df0 RA:80002df0 RA:80002df4 f04=        2.000000  # fld     ft4, 0(a1)
00000000 00000284 0000 80000688  x10:00100000 WA:002048e0                # scfgwi  a0, 896
00000000 00000285 0000 8000068c  x10=00000000                            # csrrsi  a0, ssr, 1
00000000 00000286 0000 80000690  f03:        1.000000 f03:        1.000000 f00=        1.000000  # fsgnj.d ft0, ft3, ft3
00000000 00000287 0000 80000694  f04:        2.000000 f04:        2.000000 f00=        2.000000  # fsgnj.d ft0, ft4, ft4
00000000 00000288 0000 80000698  x10=80002698                            # auipc   a0, 0x2
00000000 00000289 0000 8000069c  x10:80002698 x10=80002df8               # addi    a0, a0, 1888
00000000 00000290 0000 800006a0  x10:80002df8 RA:80002df8 RA:80002dfc f03=        3.000000  # fld     ft3, 0(a0)
00000000 00000291 0000 800006a4  x10=800026a4                            # auipc   a0, 0x2
00000000 00000292 0000 800006a8  x10:800026a4 x10=80002e00               # addi    a0, a0, 1884
00000000 00000293 0000 800006ac  x10:80002e00 RA:80002e00 RA:80002e04 f04=        4.000000  # fld     ft4, 0(a0)
00000000 00000294 0000 800006b0  x10=800026b0                            # auipc   a0, 0x2
00000000 00000295 0000 800006b4  x10:800026b0 x10=80002e08               # addi    a0, a0, 1880
00000000 00000296 0000 800006b8  x10:80002e08 RA:80002e08 RA:80002e0c f05=        5.000000  # fld     ft5, 0(a0)
00000000 00000297 0000 800006bc  x10=800026bc                            # auipc   a0, 0x2
00000000 00000298 0000 800006c0  x10:800026bc x10=80002e10               # addi    a0, a0, 1876
00000000 00000299 0000 800006c4  x10:80002e10 RA:80002e10 RA:80002e14 f06=        6.000000  # fld     ft6, 0(a0)
00000000 00000300 0000 800006c8  f03:        3.000000 f03:        3.000000 f00=        3.000000  # fsgnj.d ft0, ft3, ft3
00000000 00000301 0000 800006cc  f04:        4.000000 f04:        4.000000 f00=        4.000000  # fsgnj.d ft0, ft4, ft4
00000000 00000302 0000 800006d0  f05:        5.000000 f05:        5.000000 f00=        5.000000  # fsgnj.d ft0, ft5, ft5
00000000 00000303 0000 800006d4  f06:        6.000000 f06:        6.000000 f00=        6.000000  # fsgnj.d ft0, ft6, ft6
00000000 00000304 0000 800006d8  x10=00000001                            # csrrci  a0, ssr, 1
00000000 00000305 0000 800006dc  x1:80000790                             # ret
00000000 00000306 0000 80000790  x8:00100000 x10=00000001                # srli    a0, s0, 20
00000000 00000307 0000 80000794  x10:00000001 x10=00000001               # snez    a0, a0
00000000 00000308 0000 80000798  x11=00120000                            # lui     a1, 0x120
00000000 00000309 0000 8000079c  x11:00120000 x11=0011ffd9               # addi    a1, a1, -39
00000000 00000310 0000 800007a0  x8:00100000 x11:0011ffd9 x11=00000001   # sltu    a1, s0, a1
00000000 00000311 0000 800007a4  x10:00000001 x11:00000001 x10=00000001  # and     a0, a0, a1
00000000 00000312 0000 800007a8  x10:00000001                            # beqz    a0, pc + 216
00000000 00000313 0000 800007ac  x10=00000008                            # li      a0, 8
00000000 00000314 0000 800007b0  x11=00000002                            # li      a1, 2
00000000 00000315 0000 800007b4  x12=00000040                            # li      a2, 64
00000000 00000316 0000 800007b8  x13=000000c0                            # li      a3, 192
00000000 00000317 0000 800007bc  x11:00000002 x12:00000040 WA:00204810   # scfgw   a1, a2
00000000 00000318 0000 800007c0  x10:00000008 x13:000000c0 WA:00204830   # scfgw   a0, a3
00000000 00000319 0000 800007c4  x12=00000001                            # li      a2, 1
00000000 00000320 0000 800007c8  x13=00000060                            # li      a3, 96
00000000 00000321 0000 800007cc  x14=000000e0                            # li      a4, 224
00000000 00000322 0000 800007d0  x12:00000001 x13:00000060 WA:00204818   # scfgw   a2, a3
00000000 00000323 0000 800007d4  x10:00000008 x14:000000e0 WA:00204838   # scfgw   a0, a4
00000000 00000324 0000 800007d8  x10=00000020                            # li      a0, 32
00000000 00000325 0000 800007dc  x10:00000020 WA:00204808                # scfgw   zero, a0
00000000 00000326 0000 800007e0  x8:00100000 WA:002048c8                 # scfgwi  s0, 800
00000000 00000327 0000 800007e4  x10=00000000                            # csrrsi  a0, ssr, 1
00000000 00000328 0000 800007e8  f00:        1.000000 f00:        1.000000 f03=        1.000000  # fsgnj.d ft3, ft0, ft0
00000000 00000329 0000 800007ec  f00:        2.000000 f00:        2.000000 f04=        2.000000  # fsgnj.d ft4, ft0, ft0
00000000 00000330 0000 800007f0  f00:        3.000000 f00:        3.000000 f06=        3.000000  # fsgnj.d ft6, ft0, ft0
00000000 00000331 0000 800007f4  f04:        2.000000 f03:        1.000000 f03=        3.000000  # fadd.d  ft3, ft4, ft3
00000000 00000332 0000 800007f8  f03:        3.000000 f00:        4.000000 f03=        7.000000  # fadd.d  ft3, ft3, ft0
00000000 00000333 0000 800007fc  f03:        7.000000 f06:        3.000000 f03=       10.000000  # fadd.d  ft3, ft3, ft6
00000000 00000334 0000 80000800  f00:        5.000000 f00:        5.000000 f04=        5.000000  # fsgnj.d ft4, ft0, ft0
00000000 00000335 0000 80000804  x10=00000001                            # csrrci  a0, ssr, 1
00000000 00000336 0000 80000808  x10=00000018                            # li      a0, 24
00000000 00000337 0000 8000080c  x13=00000040                            # li      a3, 64
00000000 00000338 0000 80000810  x14=000000c0                            # li      a4, 192
00000000 00000339 0000 80000814  x12:00000001 x13:00000040 WA:00204810   # scfgw   a2, a3
00000000 00000340 0000 80000818  x10:00000018 x14:000000c0 WA:00204830   # scfgw   a0, a4
00000000 00000341 0000 8000081c  x10=fffffff0                            # li      a0, -16
00000000 00000342 0000 80000820  x12=00000060                            # li      a2, 96
00000000 00000343 0000 80000824  x13=000000e0                            # li      a3, 224
00000000 00000344 0000 80000828  x11:00000002 x12:00000060 WA:00204818   # scfgw   a1, a2
00000000 00000345 0000 8000082c  x10:fffffff0 x13:000000e0 WA:00204838   # scfgw   a0, a3
00000000 00000346 0000 80000830  x10=00000020                            # li      a0, 32
00000000 00000347 0000 80000834  x10:00000020 WA:00204808                # scfgw   zero, a0
00000000 00000348 0000 80000838  x8:00100000 WA:002048c8                 # scfgwi  s0, 800
00000000 00000349 0000 8000083c  x10=00000000                            # csrrsi  a0, ssr, 1
00000000 00000350 0000 80000840  f00:        1.000000 f00:        1.000000 f06=        1.000000  # fsgnj.d ft6, ft0, ft0
00000000 00000351 0000 80000844  f03:       10.000000 f04:        5.000000 f03=       15.000000  # fadd.d  ft3, ft3, ft4
00000000 00000352 0000 80000848  f03:       15.000000 f00:        4.000000 f03=       19.000000  # fadd.d  ft3, ft3, ft0
00000000 00000353 0000 8000084c  f00:        0.000000 f06:        1.000000 f04=        1.000000  # fadd.d  ft4, ft0, ft6
00000000 00000354 0000 80000850  f04:        1.000000 f00:        0.000000 f12=        1.000000  # fadd.d  fa2, ft4, ft0
00000000 00000355 0000 80000854  x10=00000001                            # csrrci  a0, ssr, 1
00000000 00000356 0000 80000858  x8:00100000 RA:00100018 RA:0010001c f00=        4.000000  # fld     ft0, 24(s0)
00000000 00000357 0000 8000085c  x8:00100000 RA:00100020 RA:00100024 f00=        5.000000  # fld     ft0, 32(s0)
00000000 00000358 0000 80000860  x8:00100000 RA:00100028 RA:0010002c f11=        6.000000  # fld     fa1, 40(s0)
00000000 00000359 0000 80000864  x8:00100000 RA:00100000 RA:00100004 f04=        1.000000  # fld     ft4, 0(s0)
00000000 00000360 0000 80000868  x8:00100000 RA:00100008 RA:0010000c f00=        2.000000  # fld     ft0, 8(s0)
00000000 00000361 0000 8000086c  x8:00100000 RA:00100010 RA:00100014 f06=        3.000000  # fld     ft6, 16(s0)
00000000 00000362 0000 80000870  f12:        1.000000 f00:        2.000000 f12=        3.000000  # fadd.d  fa2, fa2, ft0
00000000 00000363 0000 80000874  f12:        3.000000 f00:        2.000000 f12=        5.000000  # fadd.d  fa2, fa2, ft0
00000000 00000364 0000 80000878  f12:        5.000000 f00:        2.000000 f12=        7.000000  # fadd.d  fa2, fa2, ft0
00000000 00000365 0000 8000087c                                          # j       pc + 0x34
00000000 00000366 0000 800008b0  f12:        7.000000 f07:        0.000000 f07=        7.000000  # fadd.d  ft7, fa2, ft7
00000000 00000367 0000 800008b4  f07:        7.000000 f10:        0.000000 f07=        7.000000  # fadd.d  ft7, ft7, fa0
00000000 00000368 0000 800008b8  f07:        7.000000 f11:        6.000000 f07=       13.000000  # fadd.d  ft7, ft7, fa1
00000000 00000369 0000 800008bc  x10=800028bc                            # auipc   a0, 0x2
00000000 00000370 0000 800008c0  x10:800028bc x10=80002e18               # addi    a0, a0, 1372
00000000 00000371 0000 800008c4  x10:80002e18 RA:80002e18 RA:80002e1c f10=       -2.000000  # fld     fa0, 0(a0)
00000000 00000372 0000 800008c8  f07:       13.000000 f04:        1.000000 f04=       14.000000  # fadd.d  ft4, ft7, ft4
00000000 00000373 0000 800008cc  f04:       14.000000 f05:        5.000000 f04=       19.000000  # fadd.d  ft4, ft4, ft5
00000000 00000374 0000 800008d0  f04:       19.000000 f06:        3.000000 f04=       22.000000  # fadd.d  ft4, ft4, ft6
00000000 00000375 0000 800008d4  f03:       19.000000 f10:       -2.000000 f04:       22.000000 f03=      -16.000000  # fmadd.d ft3, ft3, fa0, ft4
00000000 00000376 0000 800008d8  f03:      -16.000000 f03:      -16.000000 f08=       16.000000  # fsgnjx.d fs0, ft3, ft3
00000000 00000377 0000 800008dc  x2:0011ff40 f08:       16.000000 WA:0011ff48 WA:0011ff4c  # fsd     fs0, 8(sp)
00000000 00000378 0000 800008e0  x2:0011ff40 RA:0011ff48 x12=00000000    # lw      a2, 8(sp)
00000000 00000379 0000 800008e4  x2:0011ff40 RA:0011ff4c x13=40300000    # lw      a3, 12(sp)
00000000 00000380 0000 800008e8  x10=800028e8                            # auipc   a0, 0x2
00000000 00000381 0000 800008ec  x10:800028e8 x10=80002bb5               # addi    a0, a0, 717
00000000 00000382 0000 800008f0  x1=800008f0                             # auipc   ra, 0x0
00000000 00000383 0000 800008f4  x1:800008f0 x1=800008f8                 # jalr    ra, ra, 44
00000000 00000384 0000 8000091c  x2:0011ff40 x2=0011ff10                 # addi    sp, sp, -48
00000000 00000385 0000 80000920  x2:0011ff10 x1:800008f8 WA:0011ff1c     # sw      ra, 12(sp)
00000000 00000386 0000 80000924  x10:80002bb5 x5=80002bb5                # mv      t0, a0
00000000 00000387 0000 80000928  x2:0011ff10 x17:ffff0000 WA:0011ff3c    # sw      a7, 44(sp)
00000000 00000388 0000 8000092c  x2:0011ff10 x16:00120000 WA:0011ff38    # sw      a6, 40(sp)
00000000 00000389 0000 80000930  x2:0011ff10 x15:0011ff70 WA:0011ff34    # sw      a5, 36(sp)
00000000 00000390 0000 80000934  x2:0011ff10 x14:000000c0 WA:0011ff30    # sw      a4, 32(sp)
00000000 00000391 0000 80000938  x2:0011ff10 x13:40300000 WA:0011ff2c    # sw      a3, 28(sp)
00000000 00000392 0000 8000093c  x2:0011ff10 x12:00000000 WA:0011ff28    # sw      a2, 24(sp)
00000000 00000393 0000 80000940  x2:0011ff10 x11:00000002 WA:0011ff24    # sw      a1, 20(sp)
00000000 00000394 0000 80000944  x2:0011ff10 x10=0011ff24                # addi    a0, sp, 20
00000000 00000395 0000 80000948  x2:0011ff10 x10:0011ff24 WA:0011ff18    # sw      a0, 8(sp)
00000000 00000396 0000 8000094c  x10=8000194c                            # auipc   a0, 0x1
00000000 00000397 0000 80000950  x10:8000194c x10=80001570               # addi    a0, a0, -988
00000000 00000398 0000 80000954  x2:0011ff10 x11=0011ff17                # addi    a1, sp, 7
00000000 00000399 0000 80000958  x12=ffffffff                            # li      a2, -1
00000000 00000400 0000 8000095c  x2:0011ff10 x14=0011ff24                # addi    a4, sp, 20
00000000 00000401 0000 80000960  x5:80002bb5 x13=80002bb5                # mv      a3, t0
00000000 00000402 0000 80000964  x1=80000964                             # auipc   ra, 0x0
00000000 00000403 0000 80000968  x1:80000964 x1=8000096c                 # jalr    ra, ra, 20
00000000 00000404 0000 80000978  x2:0011ff10 x2=0011fea0                 # addi    sp, sp, -112
00000000 00000405 0000 8000097c  x2:0011fea0 x1:8000096c WA:0011ff0c     # sw      ra, 108(sp)
00000000 00000406 0000 80000980  x2:0011fea0 x8:00100000 WA:0011ff08     # sw      s0, 104(sp)
00000000 00000407 0000 80000984  x2:0011fea0 x9:00000000 WA:0011ff04     # sw      s1, 100(sp)
00000000 00000408 0000 80000988  x2:0011fea0 x18:00000000 WA:0011ff00    # sw      s2, 96(sp)
00000000 00000409 0000 8000098c  x2:0011fea0 x19:00000000 WA:0011fefc    # sw      s3, 92(sp)
00000000 00000410 0000 80000990  x2:0011fea0 x20:00000000 WA:0011fef8    # sw      s4, 88(sp)
00000000 00000411 0000 80000994  x2:0011fea0 x21:00000000 WA:0011fef4    # sw      s5, 84(sp)
00000000 00000412 0000 80000998  x2:0011fea0 x22:00000000 WA:0011fef0    # sw      s6, 80(sp)
00000000 00000413 0000 8000099c  x2:0011fea0 x23:00000000 WA:0011feec    # sw      s7, 76(sp)
00000000 00000414 0000 800009a0  x2:0011fea0 x24:00000000 WA:0011fee8    # sw      s8, 72(sp)
00000000 00000415 0000 800009a4  x2:0011fea0 x25:00000000 WA:0011fee4    # sw      s9, 68(sp)
00000000 00000416 0000 800009a8  x2:0011fea0 x26:00000000 WA:0011fee0    # sw      s10, 64(sp)
00000000 00000417 0000 800009ac  x2:0011fea0 x27:00000000 WA:0011fedc    # sw      s11, 60(sp)
00000000 00000418 0000 800009b0  x14:0011ff24 x19=0011ff24               # mv      s3, a4
00000000 00000419 0000 800009b4  x13:80002bb5 x8=80002bb5                # mv      s0, a3
00000000 00000420 0000 800009b8  x12:ffffffff x21=ffffffff               # mv      s5, a2
00000000 00000421 0000 800009bc  x11:0011ff17 x20=0011ff17               # mv      s4, a1
00000000 00000422 0000 800009c0  x11:0011ff17                            # beqz    a1, pc + 12
00000000 00000423 0000 800009c4  x10:80001570 x18=80001570               # mv      s2, a0
00000000 00000424 0000 800009c8                                          # j       pc + 0xc
00000000 00000425 0000 800009d4  x24=00000000                            # li      s8, 0
00000000 00000426 0000 800009d8  x22=00000025                            # li      s6, 37
00000000 00000427 0000 800009dc  x27=00000010                            # li      s11, 16
00000000 00000428 0000 800009e0  x23=0000002e                            # li      s7, 46
00000000 00000429 0000 800009e4  x10=00001000                            # lui     a0, 0x1
00000000 00000430 0000 800009e8  x10:00001000 x10=00000800               # addi    a0, a0, -2048
00000000 00000431 0000 800009ec  x2:0011fea0 x10:00000800 WA:0011feb8    # sw      a0, 24(sp)
00000000 00000432 0000 800009f0  x10=00010000                            # lui     a0, 0x10
00000000 00000433 0000 800009f4  x10:00010000 x10=0000ffff               # addi    a0, a0, -1
00000000 00000434 0000 800009f8  x2:0011fea0 x10:0000ffff WA:0011feb0    # sw      a0, 16(sp)
00000000 00000435 0000 800009fc  x8:80002bb5 x26=80002bb7                # addi    s10, s0, 2
00000000 00000436 0000 80000a00  x24:00000000 x25=00000000               # mv      s9, s8
00000000 00000437 0000 80000a04  x24=0000000a                            # li      s8, 10
00000000 00000438 0000 80000a08  x8:80002bb5 RA:80002bb5 x10=00000065    # lbu     a0, 0(s0)
00000000 00000439 0000 80000a0c  x10:00000065                            # beqz    a0, pc + 2824
00000000 00000440 0000 80000a10  x10:00000065 x22:00000025               # beq     a0, s6, pc + 48
00000000 00000441 0000 80000a14  x25:00000000 x9=00000001                # addi    s1, s9, 1
00000000 00000442 0000 80000a18  x20:0011ff17 x11=0011ff17               # mv      a1, s4
00000000 00000443 0000 80000a1c  x25:00000000 x12=00000000               # mv      a2, s9
00000000 00000444 0000 80000a20  x21:ffffffff x13=ffffffff               # mv      a3, s5
00000000 00000445 0000 80000a24  x18:80001570 x1=80000a28                # jalr    s2
00000000 00000446 0000 80001570  x10:00000065                            # beqz    a0, pc + 12
00000000 00000447 0000 80001574  x11=f00b8000                            # lui     a1, 0xf00b8
00000000 00000448 0000 80001578  x11:f00b8000 x10:00000065 WA:f00b8000   # sw      a0, 0(a1)
00000000 00000449 0000 8000157c  x1:80000a28                             # ret
00000000 00000450 0000 80000a28  x8:80002bb5 x8=80002bb6                 # addi    s0, s0, 1
00000000 00000451 0000 80000a2c  x26:80002bb7 x26=80002bb8               # addi    s10, s10, 1
00000000 00000452 0000 80000a30  x9:00000001 x25=00000001                # mv      s9, s1
00000000 00000453 0000 80000a34  x8:80002bb6 RA:80002bb6 x10=00000072    # lbu     a0, 0(s0)
00000000 00000454 0000 80000a38  x10:00000072                            # bnez    a0, pc - 40
00000000 00000455 0000 80000a10  x10:00000072 x22:00000025               # beq     a0, s6, pc + 48
00000000 00000456 0000 80000a14  x25:00000001 x9=00000002                # addi    s1, s9, 1
00000000 00000457 0000 80000a18  x20:0011ff17 x11=0011ff17               # mv      a1, s4
00000000 00000458 0000 80000a1c  x25:00000001 x12=00000001               # mv      a2, s9
00000000 00000459 0000 80000a20  x21:ffffffff x13=ffffffff               # mv      a3, s5
00000000 00000460 0000 80000a24  x18:80001570 x1=80000a28                # jalr    s2
00000000 00000461 0000 80001570  x10:00000072                            # beqz    a0, pc + 12
00000000 00000462 0000 80001574  x11=f00b8000                            # lui     a1, 0xf00b8
00000000 00000463 0000 80001578  x11:f00b8000 x10:00000072 WA:f00b8000   # sw      a0, 0(a1)
00000000 00000464 0000 8000157c  x1:80000a28                             # ret
00000000 00000465 0000 80000a28  x8:80002bb6 x8=80002bb7                 # addi    s0, s0, 1
00000000 00000466 0000 80000a2c  x26:80002bb8 x26=80002bb9               # addi    s10, s10, 1
00000000 00000467 0000 80000a30  x9:00000002 x25=00000002                # mv      s9, s1
00000000 00000468 0000 80000a34  x8:80002bb7 RA:80002bb7 x10=00000072    # lbu     a0, 0(s0)
00000000 00000469 0000 80000a38  x10:00000072                            # bnez    a0, pc - 40
00000000 00000470 0000 80000a10  x10:00000072 x22:00000025               # beq     a0, s6, pc + 48
00000000 00000471 0000 80000a14  x25:00000002 x9=00000003                # addi    s1, s9, 1
00000000 00000472 0000 80000a18  x20:0011ff17 x11=0011ff17               # mv      a1, s4
00000000 00000473 0000 80000a1c  x25:00000002 x12=00000002               # mv      a2, s9
00000000 00000474 0000 80000a20  x21:ffffffff x13=ffffffff               # mv      a3, s5
00000000 00000475 0000 80000a24  x18:80001570 x1=80000a28                # jalr    s2
00000000 00000476 0000 80001570  x10:00000072                            # beqz    a0, pc + 12
00000000 00000477 0000 80001574  x11=f00b8000                            # lui     a1, 0xf00b8
00000000 00000478 0000 80001578  x11:f00b8000 x10:00000072 WA:f00b8000   # sw      a0, 0(a1)
00000000 00000479 0000 8000157c  x1:80000a28                             # ret
00000000 00000480 0000 80000a28  x8:80002bb7 x8=80002bb8                 # addi    s0, s0, 1
00000000 00000481 0000 80000a2c  x26:80002bb9 x26=80002bba               # addi    s10, s10, 1
00000000 00000482 0000 80000a30  x9:00000003 x25=00000003                # mv      s9, s1
00000000 00000483 0000 80000a34  x8:80002bb8 RA:80002bb8 x10=0000006f    # lbu     a0, 0(s0)
00000000 00000484 0000 80000a38  x10:0000006f                            # bnez    a0, pc - 40
00000000 00000485 0000 80000a10  x10:0000006f x22:00000025               # beq     a0, s6, pc + 48
00000000 00000486 0000 80000a14  x25:00000003 x9=00000004                # addi    s1, s9, 1
00000000 00000487 0000 80000a18  x20:0011ff17 x11=0011ff17               # mv      a1, s4
00000000 00000488 0000 80000a1c  x25:00000003 x12=00000003               # mv      a2, s9
00000000 00000489 0000 80000a20  x21:ffffffff x13=ffffffff               # mv      a3, s5
00000000 00000490 0000 80000a24  x18:80001570 x1=80000a28                # jalr    s2
00000000 00000491 0000 80001570  x10:0000006f                            # beqz    a0, pc + 12
00000000 00000492 0000 80001574  x11=f00b8000                            # lui     a1, 0xf00b8
00000000 00000493 0000 80001578  x11:f00b8000 x10:0000006f WA:f00b8000   # sw      a0, 0(a1)
00000000 00000494 0000 8000157c  x1:80000a28                             # ret
00000000 00000495 0000 80000a28  x8:80002bb8 x8=80002bb9                 # addi    s0, s0, 1
00000000 00000496 0000 80000a2c  x26:80002bba x26=80002bbb               # addi    s10, s10, 1
00000000 00000497 0000 80000a30  x9:00000004 x25=00000004                # mv      s9, s1
00000000 00000498 0000 80000a34  x8:80002bb9 RA:80002bb9 x10=00000072    # lbu     a0, 0(s0)
00000000 00000499 0000 80000a38  x10:00000072                            # bnez    a0, pc - 40
00000000 00000500 0000 80000a10  x10:00000072 x22:00000025               # beq     a0, s6, pc + 48
00000000 00000501 0000 80000a14  x25:00000004 x9=00000005                # addi    s1, s9, 1
00000000 00000502 0000 80000a18  x20:0011ff17 x11=0011ff17               # mv      a1, s4
00000000 00000503 0000 80000a1c  x25:00000004 x12=00000004               # mv      a2, s9
00000000 00000504 0000 80000a20  x21:ffffffff x13=ffffffff               # mv      a3, s5
00000000 00000505 0000 80000a24  x18:80001570 x1=80000a28                # jalr    s2
00000000 00000506 0000 80001570  x10:00000072                            # beqz    a0, pc + 12
00000000 00000507 0000 80001574  x11=f00b8000                            # lui     a1, 0xf00b8
00000000 00000508 0000 80001578  x11:f00b8000 x10:00000072 WA:f00b8000   # sw      a0, 0(a1)
00000000 00000509 0000 8000157c  x1:80000a28                             # ret
00000000 00000510 0000 80000a28  x8:80002bb9 x8=80002bba                 # addi    s0, s0, 1
00000000 00000511 0000 80000a2c  x26:80002bbb x26=80002bbc               # addi    s10, s10, 1
00000000 00000512 0000 80000a30  x9:00000005 x25=00000005                # mv      s9, s1
00000000 00000513 0000 80000a34  x8:80002bba RA:80002bba x10=00000020    # lbu     a0, 0(s0)
00000000 00000514 0000 80000a38  x10:00000020                            # bnez    a0, pc - 40
00000000 00000515 0000 80000a10  x10:00000020 x22:00000025               # beq     a0, s6, pc + 48
00000000 00000516 0000 80000a14  x25:00000005 x9=00000006                # addi    s1, s9, 1
00000000 00000517 0000 80000a18  x20:0011ff17 x11=0011ff17               # mv      a1, s4
00000000 00000518 0000 80000a1c  x25:00000005 x12=00000005               # mv      a2, s9
00000000 00000519 0000 80000a20  x21:ffffffff x13=ffffffff               # mv      a3, s5
00000000 00000520 0000 80000a24  x18:80001570 x1=80000a28                # jalr    s2
00000000 00000521 0000 80001570  x10:00000020                            # beqz    a0, pc + 12
00000000 00000522 0000 80001574  x11=f00b8000                            # lui     a1, 0xf00b8
00000000 00000523 0000 80001578  x11:f00b8000 x10:00000020 WA:f00b8000   # sw      a0, 0(a1)
00000000 00000524 0000 8000157c  x1:80000a28                             # ret
00000000 00000525 0000 80000a28  x8:80002bba x8=80002bbb                 # addi    s0, s0, 1
00000000 00000526 0000 80000a2c  x26:80002bbc x26=80002bbd               # addi    s10, s10, 1
00000000 00000527 0000 80000a30  x9:00000006 x25=00000006                # mv      s9, s1
00000000 00000528 0000 80000a34  x8:80002bbb RA:80002bbb x10=0000003d    # lbu     a0, 0(s0)
00000000 00000529 0000 80000a38  x10:0000003d                            # bnez    a0, pc - 40
00000000 00000530 0000 80000a10  x10:0000003d x22:00000025               # beq     a0, s6, pc + 48
00000000 00000531 0000 80000a14  x25:00000006 x9=00000007                # addi    s1, s9, 1
00000000 00000532 0000 80000a18  x20:0011ff17 x11=0011ff17               # mv      a1, s4
00000000 00000533 0000 80000a1c  x25:00000006 x12=00000006               # mv      a2, s9
00000000 00000534 0000 80000a20  x21:ffffffff x13=ffffffff               # mv      a3, s5
00000000 00000535 0000 80000a24  x18:80001570 x1=80000a28                # jalr    s2
00000000 00000536 0000 80001570  x10:0000003d                            # beqz    a0, pc + 12
00000000 00000537 0000 80001574  x11=f00b8000                            # lui     a1, 0xf00b8
00000000 00000538 0000 80001578  x11:f00b8000 x10:0000003d WA:f00b8000   # sw      a0, 0(a1)
00000000 00000539 0000 8000157c  x1:80000a28                             # ret
00000000 00000540 0000 80000a28  x8:80002bbb x8=80002bbc                 # addi    s0, s0, 1
00000000 00000541 0000 80000a2c  x26:80002bbd x26=80002bbe               # addi    s10, s10, 1
00000000 00000542 0000 80000a30  x9:00000007 x25=00000007                # mv      s9, s1
00000000 00000543 0000 80000a34  x8:80002bbc RA:80002bbc x10=00000020    # lbu     a0, 0(s0)
00000000 00000544 0000 80000a38  x10:00000020                            # bnez    a0, pc - 40
00000000 00000545 0000 80000a10  x10:00000020 x22:00000025               # beq     a0, s6, pc + 48
00000000 00000546 0000 80000a14  x25:00000007 x9=00000008                # addi    s1, s9, 1
00000000 00000547 0000 80000a18  x20:0011ff17 x11=0011ff17               # mv      a1, s4
00000000 00000548 0000 80000a1c  x25:00000007 x12=00000007               # mv      a2, s9
00000000 00000549 0000 80000a20  x21:ffffffff x13=ffffffff               # mv      a3, s5
00000000 00000550 0000 80000a24  x18:80001570 x1=80000a28                # jalr    s2
00000000 00000551 0000 80001570  x10:00000020                            # beqz    a0, pc + 12
00000000 00000552 0000 80001574  x11=f00b8000                            # lui     a1, 0xf00b8
00000000 00000553 0000 80001578  x11:f00b8000 x10:00000020 WA:f00b8000   # sw      a0, 0(a1)
00000000 00000554 0000 8000157c  x1:80000a28                             # ret
00000000 00000555 0000 80000a28  x8:80002bbc x8=80002bbd                 # addi    s0, s0, 1
00000000 00000556 0000 80000a2c  x26:80002bbe x26=80002bbf               # addi    s10, s10, 1
00000000 00000557 0000 80000a30  x9:00000008 x25=00000008                # mv      s9, s1
00000000 00000558 0000 80000a34  x8:80002bbd RA:80002bbd x10=00000025    # lbu     a0, 0(s0)
00000000 00000559 0000 80000a38  x10:00000025                            # bnez    a0, pc - 40
00000000 00000560 0000 80000a10  x10:00000025 x22:00000025               # beq     a0, s6, pc + 48
00000000 00000561 0000 80000a40  x8=00000000                             # li      s0, 0
00000000 00000562 0000 80000a44                                          # j       pc + 0x10
00000000 00000563 0000 80000a54  x26:80002bbf RA:80002bbe x10=00000066   # lbu     a0, -1(s10)
00000000 00000564 0000 80000a58  x10:00000066 x11=00000046               # addi    a1, a0, -32
00000000 00000565 0000 80000a5c  x27:00000010 x11:00000046               # bltu    s11, a1, pc + 56
00000000 00000566 0000 80000a94  x10:00000066 x11=00000036               # addi    a1, a0, -48
00000000 00000567 0000 80000a98  x11:00000036 x12=00000036               # andi    a2, a1, 255
00000000 00000568 0000 80000a9c  x26:80002bbf x11=80002bbe               # addi    a1, s10, -1
00000000 00000569 0000 80000aa0  x13=00000009                            # li      a3, 9
00000000 00000570 0000 80000aa4  x13:00000009 x12:00000036               # bltu    a3, a2, pc + 124
00000000 00000571 0000 80000b20  x12=0000002a                            # li      a2, 42
00000000 00000572 0000 80000b24  x10:00000066 x12:0000002a               # bne     a0, a2, pc + 80
00000000 00000573 0000 80000b74  x22=00000000                            # li      s6, 0
00000000 00000574 0000 80000b78  x11:80002bbe x26=80002bbe               # mv      s10, a1
00000000 00000575 0000 80000b7c  x10:00000066 x23:0000002e               # beq     a0, s7, pc - 164
00000000 00000576 0000 80000b80  x23=00000000                            # li      s7, 0
00000000 00000577 0000 80000b84                                          # j       pc + 0xc
00000000 00000578 0000 80000b90  x10:00000066 x11=fffffffe               # addi    a1, a0, -104
00000000 00000579 0000 80000b94  x11:fffffffe x12=7fffffff               # srli    a2, a1, 1
00000000 00000580 0000 80000b98  x11:fffffffe x11=00000000               # slli    a1, a1, 31
00000000 00000581 0000 80000b9c  x11:00000000 x12:7fffffff x11=7fffffff  # or      a1, a1, a2
00000000 00000582 0000 80000ba0  x12=00000009                            # li      a2, 9
00000000 00000583 0000 80000ba4  x12:00000009 x11:7fffffff               # bltu    a2, a1, pc + 100
00000000 00000584 0000 80000c08  x10:00000066 x11=00000041               # addi    a1, a0, -37
00000000 00000585 0000 80000c0c  x12=00000053                            # li      a2, 83
00000000 00000586 0000 80000c10  x12:00000053 x11:00000041               # bltu    a2, a1, pc + 264
00000000 00000587 0000 80000c14  x11:00000041 x11=00000104               # slli    a1, a1, 2
00000000 00000588 0000 80000c18  x12=80002c18                            # auipc   a2, 0x2
00000000 00000589 0000 80000c1c  x12:80002c18 x12=80002c34               # addi    a2, a2, 28
00000000 00000590 0000 80000c20  x11:00000104 x12:80002c34 x11=80002d38  # add     a1, a1, a2
00000000 00000591 0000 80000c24  x11:80002d38 RA:80002d38 x12=80000c60   # lw      a2, 0(a1)
00000000 00000592 0000 80000c28  x11=00000008                            # li      a1, 8
00000000 00000593 0000 80000c2c  x24=00000010                            # li      s8, 16
00000000 00000594 0000 80000c30  x12:80000c60                            # jr      a2
00000000 00000595 0000 80000c60  x11=00000046                            # li      a1, 70
00000000 00000596 0000 80000c64  x10:00000066 x11:00000046               # bne     a0, a1, pc + 8
00000000 00000597 0000 80000c6c  x19:0011ff24 x10=0011ff2b               # addi    a0, s3, 7
00000000 00000598 0000 80000c70  x10:0011ff2b x10=0011ff28               # andi    a0, a0, -8
00000000 00000599 0000 80000c74  x10:0011ff28 RA:0011ff28 RA:0011ff2c f10=       16.000000  # fld     fa0, 0(a0)
00000000 00000600 0000 80000c78  x10:0011ff28 x19=0011ff30               # addi    s3, a0, 8
00000000 00000601 0000 80000c7c  x18:80001570 x10=80001570               # mv      a0, s2
00000000 00000602 0000 80000c80  x20:0011ff17 x11=0011ff17               # mv      a1, s4
00000000 00000603 0000 80000c84  x25:00000008 x12=00000008               # mv      a2, s9
00000000 00000604 0000 80000c88  x21:ffffffff x13=ffffffff               # mv      a3, s5
00000000 00000605 0000 80000c8c  x23:00000000 x14=00000000               # mv      a4, s7
00000000 00000606 0000 80000c90  x22:00000000 x15=00000000               # mv      a5, s6
00000000 00000607 0000 80000c94  x8:00000000 x16=00000000                # mv      a6, s0
00000000 00000608 0000 80000c98  x1=80001c98                             # auipc   ra, 0x1
00000000 00000609 0000 80000c9c  x1:80001c98 x1=80000ca0                 # jalr    ra, ra, -1812
00000000 00000610 0000 80001584  x2:0011fea0 x2=0011fe30                 # addi    sp, sp, -112
00000000 00000611 0000 80001588  x2:0011fe30 x1:80000ca0 WA:0011fe9c     # sw      ra, 108(sp)
00000000 00000612 0000 8000158c  x2:0011fe30 x8:00000000 WA:0011fe98     # sw      s0, 104(sp)
00000000 00000613 0000 80001590  x2:0011fe30 x9:00000008 WA:0011fe94     # sw      s1, 100(sp)
00000000 00000614 0000 80001594  x2:0011fe30 x18:80001570 WA:0011fe90    # sw      s2, 96(sp)
00000000 00000615 0000 80001598  x2:0011fe30 x19:0011ff30 WA:0011fe8c    # sw      s3, 92(sp)
00000000 00000616 0000 8000159c  x2:0011fe30 x20:0011ff17 WA:0011fe88    # sw      s4, 88(sp)
00000000 00000617 0000 800015a0  x2:0011fe30 x21:ffffffff WA:0011fe84    # sw      s5, 84(sp)
00000000 00000618 0000 800015a4  x2:0011fe30 x22:00000000 WA:0011fe80    # sw      s6, 80(sp)
00000000 00000619 0000 800015a8  x2:0011fe30 x23:00000000 WA:0011fe7c    # sw      s7, 76(sp)
00000000 00000620 0000 800015ac  x2:0011fe30 x24:00000010 WA:0011fe78    # sw      s8, 72(sp)
00000000 00000621 0000 800015b0  x2:0011fe30 x25:00000008 WA:0011fe74    # sw      s9, 68(sp)
00000000 00000622 0000 800015b4  x2:0011fe30 x26:80002bbe WA:0011fe70    # sw      s10, 64(sp)
00000000 00000623 0000 800015b8  x2:0011fe30 f08:       16.000000 WA:0011fe68 WA:0011fe6c  # fsd     fs0, 56(sp)
00000000 00000624 0000 800015bc  x2:0011fe30 f09:        0.000000 WA:0011fe60 WA:0011fe64  # fsd     fs1, 48(sp)
00000000 00000625 0000 800015c0  x2:0011fe30 f18:        0.000000 WA:0011fe58 WA:0011fe5c  # fsd     fs2, 40(sp)
00000000 00000626 0000 800015c4  x9=800035c4                             # auipc   s1, 0x2
00000000 00000627 0000 800015c8  x9:800035c4 x9=80002e28                 # addi    s1, s1, -1948
00000000 00000628 0000 800015cc  x9:80002e28 RA:80002e28 RA:80002e2c f00=-179769313486231570814527423731704356798070567525844996598917476803157260780028538760589558632766878171540458953514382464234321326889464182768467546703537516986049910576551282076245490090389328944075868508455133942304583236903222948165808559332123348274797826204144723168738177180919299881250404026184124858368.000000  # fld     ft0, 0(s1)
00000000 00000629 0000 800015d0  f00:-179769313486231570814527423731704356798070567525844996598917476803157260780028538760589558632766878171540458953514382464234321326889464182768467546703537516986049910576551282076245490090389328944075868508455133942304583236903222948165808559332123348274797826204144723168738177180919299881250404026184124858368.000000 f10:       16.000000 x9=00000001  # fle.d   s1, ft0, fa0
00000000 00000630 0000 800015d4  x16:00000000 x21=00000000               # mv      s5, a6
00000000 00000631 0000 800015d8  x15:00000000 x18=00000000               # mv      s2, a5
00000000 00000632 0000 800015dc  x13:ffffffff x19=ffffffff               # mv      s3, a3
00000000 00000633 0000 800015e0  x12:00000008 x20=00000008               # mv      s4, a2
00000000 00000634 0000 800015e4  x11:0011ff17 x22=0011ff17               # mv      s6, a1
00000000 00000635 0000 800015e8  x10:80001570 x23=80001570               # mv      s7, a0
00000000 00000636 0000 800015ec  x9:00000001                             # bnez    s1, pc + 240
00000000 00000637 0000 800016dc  f10:       16.000000 f10:       16.000000 f08=       16.000000  # fsgnj.d fs0, fa0, fa0
00000000 00000638 0000 800016e0  x10=800026e0                            # auipc   a0, 0x1
00000000 00000639 0000 800016e4  x10:800026e0 x10=80002e30               # addi    a0, a0, 1872
00000000 00000640 0000 800016e8  x10:80002e30 RA:80002e30 RA:80002e34 f00=179769313486231570814527423731704356798070567525844996598917476803157260780028538760589558632766878171540458953514382464234321326889464182768467546703537516986049910576551282076245490090389328944075868508455133942304583236903222948165808559332123348274797826204144723168738177180919299881250404026184124858368.000000  # fld     ft0, 0(a0)
00000000 00000641 0000 800016ec  f10:       16.000000 f00:179769313486231570814527423731704356798070567525844996598917476803157260780028538760589558632766878171540458953514382464234321326889464182768467546703537516986049910576551282076245490090389328944075868508455133942304583236903222948165808559332123348274797826204144723168738177180919299881250404026184124858368.000000 x10=00000001  # fle.d   a0, fa0, ft0
00000000 00000642 0000 800016f0  x10:00000001                            # bnez    a0, pc + 28
00000000 00000643 0000 8000170c  x10=8000270c                            # auipc   a0, 0x1
00000000 00000644 0000 80001710  x10:8000270c x10=80002e38               # addi    a0, a0, 1836
00000000 00000645 0000 80001714  x10:80002e38 RA:80002e38 RA:80002e3c f00=1000000000.000000  # fld     ft0, 0(a0)
00000000 00000646 0000 80001718  x10=80002718                            # auipc   a0, 0x1
00000000 00000647 0000 8000171c  x10:80002718 x10=80002e40               # addi    a0, a0, 1832
00000000 00000648 0000 80001720  x10:80002e40 RA:80002e40 RA:80002e44 f01=-1000000000.000000  # fld     ft1, 0(a0)
00000000 00000649 0000 80001724  f08:       16.000000 f00:1000000000.000000 x10=00000001  # fle.d   a0, fs0, ft0
00000000 00000650 0000 80001728  f01:-1000000000.000000 f08:       16.000000 x11=00000001  # fle.d   a1, ft1, fs0
00000000 00000651 0000 8000172c  x10:00000001 x11:00000001 x10=00000001  # and     a0, a0, a1
00000000 00000652 0000 80001730  x10:00000001                            # bnez    a0, pc + 252
00000000 00000653 0000 8000182c  x21:00000000 x10=00000000               # andi    a0, s5, 1024
00000000 00000654 0000 80001830  x24=00000006                            # li      s8, 6
00000000 00000655 0000 80001834  x10:00000000                            # beqz    a0, pc + 8
00000000 00000656 0000 8000183c  x10=0000000a                            # li      a0, 10
00000000 00000657 0000 80001840  f08:       16.000000 f08:       16.000000 f18=       16.000000  # fsgnjx.d fs2, fs0, fs0
00000000 00000658 0000 80001844  x24:00000006 x10:0000000a               # bltu    s8, a0, pc + 56
00000000 00000659 0000 8000187c  x8=00000000                             # li      s0, 0
00000000 00000660 0000 80001880  x24:00000006 x10=00000030               # slli    a0, s8, 3
00000000 00000661 0000 80001884  x11=80002884                            # auipc   a1, 0x1
00000000 00000662 0000 80001888  x11:80002884 x11=80002d88               # addi    a1, a1, 1284
00000000 00000663 0000 8000188c  x10:00000030 x11:80002d88 x10=80002db8  # add     a0, a0, a1
00000000 00000664 0000 80001890  x10:80002db8 RA:80002db8 RA:80002dbc f01=  1000000.000000  # fld     ft1, 0(a0)
00000000 00000665 0000 80001894  f18:       16.000000 x9=00000010        # fcvt.w.d s1, fs2
00000000 00000666 0000 80001898  x9:00000010 f00=       16.000000        # fcvt.d.w ft0, s1
00000000 00000667 0000 8000189c  f18:       16.000000 f00:       16.000000 f00=        0.000000  # fsub.d  ft0, fs2, ft0
00000000 00000668 0000 800018a0  f01:  1000000.000000 f00:        0.000000 f02=        0.000000  # fmul.d  ft2, ft1, ft0
00000000 00000669 0000 800018a4  x10=800028a4                            # auipc   a0, 0x1
00000000 00000670 0000 800018a8  x10:800028a4 x10=80002e48               # addi    a0, a0, 1444
00000000 00000671 0000 800018ac  x10:80002e48 RA:80002e48 RA:80002e4c f00=        0.500000  # fld     ft0, 0(a0)
00000000 00000672 0000 800018b0  f02:        0.000000 x10=00000000       # fcvt.wu.d a0, ft2
00000000 00000673 0000 800018b4  x10:00000000 f03=        0.000000       # fcvt.d.wu ft3, a0
00000000 00000674 0000 800018b8  f02:        0.000000 f03:        0.000000 f02=        0.000000  # fsub.d  ft2, ft2, ft3
00000000 00000675 0000 800018bc  f02:        0.000000 f00:        0.500000 x11=00000001  # fle.d   a1, ft2, ft0
00000000 00000676 0000 800018c0  x11:00000001                            # bnez    a1, pc + 32
00000000 00000677 0000 800018e0  f02:        0.000000 f00:        0.500000 x11=00000001  # flt.d   a1, ft2, ft0
00000000 00000678 0000 800018e4  x11:00000001                            # bnez    a1, pc + 20
00000000 00000679 0000 800018f8  f09=        0.000000                    # fcvt.d.w fs1, zero
00000000 00000680 0000 800018fc  x24:00000006                            # beqz    s8, pc + 216
00000000 00000681 0000 80001900  x12=00000000                            # li      a2, 0
00000000 00000682 0000 80001904  x2:0011fe30 x11=0011fe38                # addi    a1, sp, 8
00000000 00000683 0000 80001908  x11:0011fe38 x8:00000000 x6=0011fe38    # add     t1, a1, s0
00000000 00000684 0000 8000190c  x5=00000020                             # li      t0, 32
00000000 00000685 0000 80001910  x5:00000020 x8:00000000 x14=00000020    # sub     a4, t0, s0
00000000 00000686 0000 80001914  x11=ccccd000                            # lui     a1, 0xccccd
00000000 00000687 0000 80001918  x11:ccccd000 x7=cccccccd                # addi    t2, a1, -819
00000000 00000688 0000 8000191c  x16=0000000a                            # li      a6, 10
00000000 00000689 0000 80001920  x17=00000009                            # li      a7, 9
00000000 00000690 0000 80001924  x14:00000020 x12:00000000               # beq     a4, a2, pc + 200
00000000 00000691 0000 80001928  x10:00000000 x11=00000000               # mv      a1, a0
00000000 00000692 0000 8000192c  x10:00000000 x7:cccccccd x10=00000000   # mulhu   a0, a0, t2
00000000 00000693 0000 80001930  x10:00000000 x10=00000000               # srli    a0, a0, 3
00000000 00000694 0000 80001934  x10:00000000 x16:0000000a x13=00000000  # mul     a3, a0, a6
00000000 00000695 0000 80001938  x11:00000000 x13:00000000 x13=00000000  # sub     a3, a1, a3
00000000 00000696 0000 8000193c  x13:00000000 x13=00000030               # ori     a3, a3, 48
00000000 00000697 0000 80001940  x6:0011fe38 x12:00000000 x15=0011fe38   # add     a5, t1, a2
00000000 00000698 0000 80001944  x15:0011fe38 x13:00000030 WA:0011fe38   # sb      a3, 0(a5)
00000000 00000699 0000 80001948  x12:00000000 x12=00000001               # addi    a2, a2, 1
00000000 00000700 0000 8000194c  x17:00000009 x11:00000000               # bltu    a7, a1, pc - 40
00000000 00000701 0000 80001950  x8:00000000 x12:00000001 x10=00000001   # add     a0, s0, a2
00000000 00000702 0000 80001954  x10:00000001 x11=00000000               # addi    a1, a0, -1
00000000 00000703 0000 80001958  x13=0000001e                            # li      a3, 30
00000000 00000704 0000 8000195c  x13:0000001e x11:00000000 x13=00000000  # sltu    a3, a3, a1
00000000 00000705 0000 80001960  x24:00000006 x12:00000001 x14=00000007  # xor     a4, s8, a2
00000000 00000706 0000 80001964  x14:00000007 x14=00000000               # seqz    a4, a4
00000000 00000707 0000 80001968  x13:00000000 x14:00000000 x13=00000000  # or      a3, a3, a4
00000000 00000708 0000 8000196c  x13:00000000                            # bnez    a3, pc + 136
00000000 00000709 0000 80001970  x2:0011fe30 x10=0011fe38                # addi    a0, sp, 8
00000000 00000710 0000 80001974  x10:0011fe38 x8:00000000 x10=0011fe38   # add     a0, a0, s0
00000000 00000711 0000 80001978  x12:00000001 x11=fffffffe               # not     a1, a2
00000000 00000712 0000 8000197c  x11:fffffffe x24:00000006 x24=00000004  # add     s8, a1, s8
00000000 00000713 0000 80001980  x8:00000000 x12:00000001 x8=00000001    # add     s0, s0, a2
00000000 00000714 0000 80001984  x11=0000001f                            # li      a1, 31
00000000 00000715 0000 80001988  x11:0000001f x8:00000001 x13=0000001e   # sub     a3, a1, s0
00000000 00000716 0000 8000198c  x10:0011fe38 x12:00000001 x10=0011fe39  # add     a0, a0, a2
00000000 00000717 0000 80001990  x24:00000004 x11=00000004               # mv      a1, s8
00000000 00000718 0000 80001994  x24:00000004 x13:0000001e               # bltu    s8, a3, pc + 8
00000000 00000719 0000 8000199c  x11:00000004 x12=00000005               # addi    a2, a1, 1
00000000 00000720 0000 800019a0  x11=00000030                            # li      a1, 48
00000000 00000721 0000 800019a4  x1=800009a4                             # auipc   ra, 0xfffff
00000000 00000722 0000 800019a8  x1:800009a4 x1=800019ac                 # jalr    ra, ra, -1100
00000000 00000723 0000 80000558  x6=0000000f                             # li      t1, 15
00000000 00000724 0000 8000055c  x10:0011fe39 x14=0011fe39               # mv      a4, a0
00000000 00000725 0000 80000560  x6:0000000f x12:00000005                # bgeu    t1, a2, pc + 60
00000000 00000726 0000 8000059c  x6:0000000f x12:00000005 x13=0000000a   # sub     a3, t1, a2
00000000 00000727 0000 800005a0  x13:0000000a x13=00000028               # slli    a3, a3, 2
00000000 00000728 0000 800005a4  x5=800005a4                             # auipc   t0, 0x0
00000000 00000729 0000 800005a8  x13:00000028 x5:800005a4 x13=800005cc   # add     a3, a3, t0
00000000 00000730 0000 800005ac  x13:800005cc                            # jalr    zero, a3, 12
00000000 00000731 0000 800005d8  x14:0011fe39 x11:00000030 WA:0011fe3d   # sb      a1, 4(a4)
00000000 00000732 0000 800005dc  x14:0011fe39 x11:00000030 WA:0011fe3c   # sb      a1, 3(a4)
00000000 00000733 0000 800005e0  x14:0011fe39 x11:00000030 WA:0011fe3b   # sb      a1, 2(a4)
00000000 00000734 0000 800005e4  x14:0011fe39 x11:00000030 WA:0011fe3a   # sb      a1, 1(a4)
00000000 00000735 0000 800005e8  x14:0011fe39 x11:00000030 WA:0011fe39   # sb      a1, 0(a4)
00000000 00000736 0000 800005ec  x1:800019ac                             # ret
00000000 00000737 0000 800019ac  x10=00000000                            # li      a0, 0
00000000 00000738 0000 800019b0  x8:00000001 x10:00000000 x11=00000001   # add     a1, s0, a0
00000000 00000739 0000 800019b4  x11:00000001 x11=00000001               # sltiu   a1, a1, 31
00000000 00000740 0000 800019b8  x24:00000004 x10:00000000 x12=00000004  # xor     a2, s8, a0
00000000 00000741 0000 800019bc  x12:00000004 x12=00000001               # snez    a2, a2
00000000 00000742 0000 800019c0  x11:00000001 x12:00000001 x12=00000001  # and     a2, a1, a2
00000000 00000743 0000 800019c4  x10:00000000 x10=00000001               # addi    a0, a0, 1
00000000 00000744 0000 800019c8  x12:00000001                            # bnez    a2, pc - 24
00000000 00000745 0000 800019b0  x8:00000001 x10:00000001 x11=00000002   # add     a1, s0, a0
00000000 00000746 0000 800019b4  x11:00000002 x11=00000001               # sltiu   a1, a1, 31
00000000 00000747 0000 800019b8  x24:00000004 x10:00000001 x12=00000005  # xor     a2, s8, a0
00000000 00000748 0000 800019bc  x12:00000005 x12=00000001               # snez    a2, a2
00000000 00000749 0000 800019c0  x11:00000001 x12:00000001 x12=00000001  # and     a2, a1, a2
00000000 00000750 0000 800019c4  x10:00000001 x10=00000002               # addi    a0, a0, 1
00000000 00000751 0000 800019c8  x12:00000001                            # bnez    a2, pc - 24
00000000 00000752 0000 800019b0  x8:00000001 x10:00000002 x11=00000003   # add     a1, s0, a0
00000000 00000753 0000 800019b4  x11:00000003 x11=00000001               # sltiu   a1, a1, 31
00000000 00000754 0000 800019b8  x24:00000004 x10:00000002 x12=00000006  # xor     a2, s8, a0
00000000 00000755 0000 800019bc  x12:00000006 x12=00000001               # snez    a2, a2
00000000 00000756 0000 800019c0  x11:00000001 x12:00000001 x12=00000001  # and     a2, a1, a2
00000000 00000757 0000 800019c4  x10:00000002 x10=00000003               # addi    a0, a0, 1
00000000 00000758 0000 800019c8  x12:00000001                            # bnez    a2, pc - 24
00000000 00000759 0000 800019b0  x8:00000001 x10:00000003 x11=00000004   # add     a1, s0, a0
00000000 00000760 0000 800019b4  x11:00000004 x11=00000001               # sltiu   a1, a1, 31
00000000 00000761 0000 800019b8  x24:00000004 x10:00000003 x12=00000007  # xor     a2, s8, a0
00000000 00000762 0000 800019bc  x12:00000007 x12=00000001               # snez    a2, a2
00000000 00000763 0000 800019c0  x11:00000001 x12:00000001 x12=00000001  # and     a2, a1, a2
00000000 00000764 0000 800019c4  x10:00000003 x10=00000004               # addi    a0, a0, 1
00000000 00000765 0000 800019c8  x12:00000001                            # bnez    a2, pc - 24
00000000 00000766 0000 800019b0  x8:00000001 x10:00000004 x11=00000005   # add     a1, s0, a0
00000000 00000767 0000 800019b4  x11:00000005 x11=00000001               # sltiu   a1, a1, 31
00000000 00000768 0000 800019b8  x24:00000004 x10:00000004 x12=00000000  # xor     a2, s8, a0
00000000 00000769 0000 800019bc  x12:00000000 x12=00000000               # snez    a2, a2
00000000 00000770 0000 800019c0  x11:00000001 x12:00000000 x12=00000000  # and     a2, a1, a2
00000000 00000771 0000 800019c4  x10:00000004 x10=00000005               # addi    a0, a0, 1
00000000 00000772 0000 800019c8  x12:00000000                            # bnez    a2, pc - 24
00000000 00000773 0000 800019cc  x8:00000001 x10:00000005 x10=00000006   # add     a0, s0, a0
00000000 00000774 0000 800019d0                                          # j       pc + 0x28
00000000 00000775 0000 800019f8  x11:00000001                            # beqz    a1, pc + 28
00000000 00000776 0000 800019fc  x10:00000006 x8=00000007                # addi    s0, a0, 1
00000000 00000777 0000 80001a00  x2:0011fe30 x11=0011fe38                # addi    a1, sp, 8
00000000 00000778 0000 80001a04  x11:0011fe38 x10:00000006 x10=0011fe3e  # add     a0, a1, a0
00000000 00000779 0000 80001a08  x11=0000002e                            # li      a1, 46
00000000 00000780 0000 80001a0c  x10:0011fe3e x11:0000002e WA:0011fe3e   # sb      a1, 0(a0)
00000000 00000781 0000 80001a10                                          # j       pc + 0x8
00000000 00000782 0000 80001a18  x10=00000020                            # li      a0, 32
00000000 00000783 0000 80001a1c  x8:00000007 x5=00000007                 # mv      t0, s0
00000000 00000784 0000 80001a20  x10:00000020 x8:00000007                # bltu    a0, s0, pc + 8
00000000 00000785 0000 80001a24  x5=00000020                             # li      t0, 32
00000000 00000786 0000 80001a28  f08:       16.000000 f09:        0.000000 x25=00000000  # flt.d   s9, fs0, fs1
00000000 00000787 0000 80001a2c  x10=66666000                            # lui     a0, 0x66666
00000000 00000788 0000 80001a30  x10:66666000 x11=66666667               # addi    a1, a0, 1639
00000000 00000789 0000 80001a34  x16=0000000a                            # li      a6, 10
00000000 00000790 0000 80001a38  x2:0011fe30 x13=0011fe38                # addi    a3, sp, 8
00000000 00000791 0000 80001a3c  x14=00000012                            # li      a4, 18
00000000 00000792 0000 80001a40  x5:00000020 x8:00000007                 # beq     t0, s0, pc + 64
00000000 00000793 0000 80001a44  x9:00000010 x11:66666667 x10=00000006   # mulh    a0, s1, a1
00000000 00000794 0000 80001a48  x10:00000006 x15=00000000               # srli    a5, a0, 31
00000000 00000795 0000 80001a4c  x10:00000006 x10=00000001               # srai    a0, a0, 2
00000000 00000796 0000 80001a50  x10:00000001 x15:00000000 x10=00000001  # add     a0, a0, a5
00000000 00000797 0000 80001a54  x10:00000001 x16:0000000a x15=0000000a  # mul     a5, a0, a6
00000000 00000798 0000 80001a58  x9:00000010 x15:0000000a x15=00000006   # sub     a5, s1, a5
00000000 00000799 0000 80001a5c  x15:00000006 x15=00000036               # addi    a5, a5, 48
00000000 00000800 0000 80001a60  x8:00000007 x24=00000008                # addi    s8, s0, 1
00000000 00000801 0000 80001a64  x13:0011fe38 x8:00000007 x8=0011fe3f    # add     s0, a3, s0
00000000 00000802 0000 80001a68  x9:00000010 x12=00000019                # addi    a2, s1, 9
00000000 00000803 0000 80001a6c  x8:0011fe3f x15:00000036 WA:0011fe3f    # sb      a5, 0(s0)
00000000 00000804 0000 80001a70  x24:00000008 x8=00000008                # mv      s0, s8
00000000 00000805 0000 80001a74  x10:00000001 x9=00000001                # mv      s1, a0
00000000 00000806 0000 80001a78  x14:00000012 x12:00000019               # bltu    a4, a2, pc - 56
00000000 00000807 0000 80001a40  x5:00000020 x8:00000008                 # beq     t0, s0, pc + 64
00000000 00000808 0000 80001a44  x9:00000001 x11:66666667 x10=00000000   # mulh    a0, s1, a1
00000000 00000809 0000 80001a48  x10:00000000 x15=00000000               # srli    a5, a0, 31
00000000 00000810 0000 80001a4c  x10:00000000 x10=00000000               # srai    a0, a0, 2
00000000 00000811 0000 80001a50  x10:00000000 x15:00000000 x10=00000000  # add     a0, a0, a5
00000000 00000812 0000 80001a54  x10:00000000 x16:0000000a x15=00000000  # mul     a5, a0, a6
00000000 00000813 0000 80001a58  x9:00000001 x15:00000000 x15=00000001   # sub     a5, s1, a5
00000000 00000814 0000 80001a5c  x15:00000001 x15=00000031               # addi    a5, a5, 48
00000000 00000815 0000 80001a60  x8:00000008 x24=00000009                # addi    s8, s0, 1
00000000 00000816 0000 80001a64  x13:0011fe38 x8:00000008 x8=0011fe40    # add     s0, a3, s0
00000000 00000817 0000 80001a68  x9:00000001 x12=0000000a                # addi    a2, s1, 9
00000000 00000818 0000 80001a6c  x8:0011fe40 x15:00000031 WA:0011fe40    # sb      a5, 0(s0)
00000000 00000819 0000 80001a70  x24:00000009 x8=00000009                # mv      s0, s8
00000000 00000820 0000 80001a74  x10:00000000 x9=00000000                # mv      s1, a0
00000000 00000821 0000 80001a78  x14:00000012 x12:0000000a               # bltu    a4, a2, pc - 56
00000000 00000822 0000 80001a7c                                          # j       pc + 0x8
00000000 00000823 0000 80001a84  x21:00000000 x9=00000000                # andi    s1, s5, 3
00000000 00000824 0000 80001a88  x10=00000001                            # li      a0, 1
00000000 00000825 0000 80001a8c  x9:00000000 x10:00000001                # bne     s1, a0, pc + 108
00000000 00000826 0000 80001af8  x10=0000001f                            # li      a0, 31
00000000 00000827 0000 80001afc  x10:0000001f x24:00000009               # bltu    a0, s8, pc + 84
00000000 00000828 0000 80001b00  x25:00000000                            # beqz    s9, pc + 24
00000000 00000829 0000 80001b18  x21:00000000 x10=00000000               # andi    a0, s5, 4
00000000 00000830 0000 80001b1c  x10:00000000                            # bnez    a0, pc + 32
00000000 00000831 0000 80001b20  x21:00000000 x10=00000000               # andi    a0, s5, 8
00000000 00000832 0000 80001b24  x10:00000000                            # beqz    a0, pc + 44
00000000 00000833 0000 80001b50  x9:00000000 x10=00000000                # snez    a0, s1
00000000 00000834 0000 80001b54  x24:00000009 x18:00000000 x11=00000000  # sltu    a1, s8, s2
00000000 00000835 0000 80001b58  x11:00000000 x11=00000001               # xori    a1, a1, 1
00000000 00000836 0000 80001b5c  x10:00000000 x11:00000001 x10=00000001  # or      a0, a0, a1
00000000 00000837 0000 80001b60  x21:00000000 x21=00000000               # andi    s5, s5, 2
00000000 00000838 0000 80001b64  x20:00000008 x8=00000008                # mv      s0, s4
00000000 00000839 0000 80001b68  x10:00000001                            # bnez    a0, pc + 44
00000000 00000840 0000 80001b94  x21:00000000 x21=00000000               # srli    s5, s5, 1
00000000 00000841 0000 80001b98  x24:00000009                            # beqz    s8, pc + 56
00000000 00000842 0000 80001b9c  x2:0011fe30 x25=0011fe37                # addi    s9, sp, 7
00000000 00000843 0000 80001ba0  x25:0011fe37 x24:00000009 x10=0011fe40  # add     a0, s9, s8
00000000 00000844 0000 80001ba4  x10:0011fe40 RA:0011fe40 x10=00000031   # lbu     a0, 0(a0)
00000000 00000845 0000 80001ba8  x24:00000009 x26=00000008               # addi    s10, s8, -1
00000000 00000846 0000 80001bac  x8:00000008 x9=00000009                 # addi    s1, s0, 1
00000000 00000847 0000 80001bb0  x22:0011ff17 x11=0011ff17               # mv      a1, s6
00000000 00000848 0000 80001bb4  x8:00000008 x12=00000008                # mv      a2, s0
00000000 00000849 0000 80001bb8  x19:ffffffff x13=ffffffff               # mv      a3, s3
00000000 00000850 0000 80001bbc  x23:80001570 x1=80001bc0                # jalr    s7
00000000 00000851 0000 80001570  x10:00000031                            # beqz    a0, pc + 12
00000000 00000852 0000 80001574  x11=f00b8000                            # lui     a1, 0xf00b8
00000000 00000853 0000 80001578  x11:f00b8000 x10:00000031 WA:f00b8000   # sw      a0, 0(a1)
00000000 00000854 0000 8000157c  x1:80001bc0                             # ret
00000000 00000855 0000 80001bc0  x9:00000009 x8=00000009                 # mv      s0, s1
00000000 00000856 0000 80001bc4  x26:00000008 x24=00000008               # mv      s8, s10
00000000 00000857 0000 80001bc8  x26:00000008                            # bnez    s10, pc - 40
00000000 00000858 0000 80001ba0  x25:0011fe37 x24:00000008 x10=0011fe3f  # add     a0, s9, s8
00000000 00000859 0000 80001ba4  x10:0011fe3f RA:0011fe3f x10=00000036   # lbu     a0, 0(a0)
00000000 00000860 0000 80001ba8  x24:00000008 x26=00000007               # addi    s10, s8, -1
00000000 00000861 0000 80001bac  x8:00000009 x9=0000000a                 # addi    s1, s0, 1
00000000 00000862 0000 80001bb0  x22:0011ff17 x11=0011ff17               # mv      a1, s6
00000000 00000863 0000 80001bb4  x8:00000009 x12=00000009                # mv      a2, s0
00000000 00000864 0000 80001bb8  x19:ffffffff x13=ffffffff               # mv      a3, s3
00000000 00000865 0000 80001bbc  x23:80001570 x1=80001bc0                # jalr    s7
00000000 00000866 0000 80001570  x10:00000036                            # beqz    a0, pc + 12
00000000 00000867 0000 80001574  x11=f00b8000                            # lui     a1, 0xf00b8
00000000 00000868 0000 80001578  x11:f00b8000 x10:00000036 WA:f00b8000   # sw      a0, 0(a1)
00000000 00000869 0000 8000157c  x1:80001bc0                             # ret
00000000 00000870 0000 80001bc0  x9:0000000a x8=0000000a                 # mv      s0, s1
00000000 00000871 0000 80001bc4  x26:00000007 x24=00000007               # mv      s8, s10
00000000 00000872 0000 80001bc8  x26:00000007                            # bnez    s10, pc - 40
00000000 00000873 0000 80001ba0  x25:0011fe37 x24:00000007 x10=0011fe3e  # add     a0, s9, s8
00000000 00000874 0000 80001ba4  x10:0011fe3e RA:0011fe3e x10=0000002e   # lbu     a0, 0(a0)
00000000 00000875 0000 80001ba8  x24:00000007 x26=00000006               # addi    s10, s8, -1
00000000 00000876 0000 80001bac  x8:0000000a x9=0000000b                 # addi    s1, s0, 1
00000000 00000877 0000 80001bb0  x22:0011ff17 x11=0011ff17               # mv      a1, s6
00000000 00000878 0000 80001bb4  x8:0000000a x12=0000000a                # mv      a2, s0
00000000 00000879 0000 80001bb8  x19:ffffffff x13=ffffffff               # mv      a3, s3
00000000 00000880 0000 80001bbc  x23:80001570 x1=80001bc0                # jalr    s7
00000000 00000881 0000 80001570  x10:0000002e                            # beqz    a0, pc + 12
00000000 00000882 0000 80001574  x11=f00b8000                            # lui     a1, 0xf00b8
00000000 00000883 0000 80001578  x11:f00b8000 x10:0000002e WA:f00b8000   # sw      a0, 0(a1)
00000000 00000884 0000 8000157c  x1:80001bc0                             # ret
00000000 00000885 0000 80001bc0  x9:0000000b x8=0000000b                 # mv      s0, s1
00000000 00000886 0000 80001bc4  x26:00000006 x24=00000006               # mv      s8, s10
00000000 00000887 0000 80001bc8  x26:00000006                            # bnez    s10, pc - 40
00000000 00000888 0000 80001ba0  x25:0011fe37 x24:00000006 x10=0011fe3d  # add     a0, s9, s8
00000000 00000889 0000 80001ba4  x10:0011fe3d RA:0011fe3d x10=00000030   # lbu     a0, 0(a0)
00000000 00000890 0000 80001ba8  x24:00000006 x26=00000005               # addi    s10, s8, -1
00000000 00000891 0000 80001bac  x8:0000000b x9=0000000c                 # addi    s1, s0, 1
00000000 00000892 0000 80001bb0  x22:0011ff17 x11=0011ff17               # mv      a1, s6
00000000 00000893 0000 80001bb4  x8:0000000b x12=0000000b                # mv      a2, s0
00000000 00000894 0000 80001bb8  x19:ffffffff x13=ffffffff               # mv      a3, s3
00000000 00000895 0000 80001bbc  x23:80001570 x1=80001bc0                # jalr    s7
00000000 00000896 0000 80001570  x10:00000030                            # beqz    a0, pc + 12
00000000 00000897 0000 80001574  x11=f00b8000                            # lui     a1, 0xf00b8
00000000 00000898 0000 80001578  x11:f00b8000 x10:00000030 WA:f00b8000   # sw      a0, 0(a1)
00000000 00000899 0000 8000157c  x1:80001bc0                             # ret
00000000 00000900 0000 80001bc0  x9:0000000c x8=0000000c                 # mv      s0, s1
00000000 00000901 0000 80001bc4  x26:00000005 x24=00000005               # mv      s8, s10
00000000 00000902 0000 80001bc8  x26:00000005                            # bnez    s10, pc - 40
00000000 00000903 0000 80001ba0  x25:0011fe37 x24:00000005 x10=0011fe3c  # add     a0, s9, s8
00000000 00000904 0000 80001ba4  x10:0011fe3c RA:0011fe3c x10=00000030   # lbu     a0, 0(a0)
00000000 00000905 0000 80001ba8  x24:00000005 x26=00000004               # addi    s10, s8, -1
00000000 00000906 0000 80001bac  x8:0000000c x9=0000000d                 # addi    s1, s0, 1
00000000 00000907 0000 80001bb0  x22:0011ff17 x11=0011ff17               # mv      a1, s6
00000000 00000908 0000 80001bb4  x8:0000000c x12=0000000c                # mv      a2, s0
00000000 00000909 0000 80001bb8  x19:ffffffff x13=ffffffff               # mv      a3, s3
00000000 00000910 0000 80001bbc  x23:80001570 x1=80001bc0                # jalr    s7
00000000 00000911 0000 80001570  x10:00000030                            # beqz    a0, pc + 12
00000000 00000912 0000 80001574  x11=f00b8000                            # lui     a1, 0xf00b8
00000000 00000913 0000 80001578  x11:f00b8000 x10:00000030 WA:f00b8000   # sw      a0, 0(a1)
00000000 00000914 0000 8000157c  x1:80001bc0                             # ret
00000000 00000915 0000 80001bc0  x9:0000000d x8=0000000d                 # mv      s0, s1
00000000 00000916 0000 80001bc4  x26:00000004 x24=00000004               # mv      s8, s10
00000000 00000917 0000 80001bc8  x26:00000004                            # bnez    s10, pc - 40
00000000 00000918 0000 80001ba0  x25:0011fe37 x24:00000004 x10=0011fe3b  # add     a0, s9, s8
00000000 00000919 0000 80001ba4  x10:0011fe3b RA:0011fe3b x10=00000030   # lbu     a0, 0(a0)
00000000 00000920 0000 80001ba8  x24:00000004 x26=00000003               # addi    s10, s8, -1
00000000 00000921 0000 80001bac  x8:0000000d x9=0000000e                 # addi    s1, s0, 1
00000000 00000922 0000 80001bb0  x22:0011ff17 x11=0011ff17               # mv      a1, s6
00000000 00000923 0000 80001bb4  x8:0000000d x12=0000000d                # mv      a2, s0
00000000 00000924 0000 80001bb8  x19:ffffffff x13=ffffffff               # mv      a3, s3
00000000 00000925 0000 80001bbc  x23:80001570 x1=80001bc0                # jalr    s7
00000000 00000926 0000 80001570  x10:00000030                            # beqz    a0, pc + 12
00000000 00000927 0000 80001574  x11=f00b8000                            # lui     a1, 0xf00b8
00000000 00000928 0000 80001578  x11:f00b8000 x10:00000030 WA:f00b8000   # sw      a0, 0(a1)
00000000 00000929 0000 8000157c  x1:80001bc0                             # ret
00000000 00000930 0000 80001bc0  x9:0000000e x8=0000000e                 # mv      s0, s1
00000000 00000931 0000 80001bc4  x26:00000003 x24=00000003               # mv      s8, s10
00000000 00000932 0000 80001bc8  x26:00000003                            # bnez    s10, pc - 40
00000000 00000933 0000 80001ba0  x25:0011fe37 x24:00000003 x10=0011fe3a  # add     a0, s9, s8
00000000 00000934 0000 80001ba4  x10:0011fe3a RA:0011fe3a x10=00000030   # lbu     a0, 0(a0)
00000000 00000935 0000 80001ba8  x24:00000003 x26=00000002               # addi    s10, s8, -1
00000000 00000936 0000 80001bac  x8:0000000e x9=0000000f                 # addi    s1, s0, 1
00000000 00000937 0000 80001bb0  x22:0011ff17 x11=0011ff17               # mv      a1, s6
00000000 00000938 0000 80001bb4  x8:0000000e x12=0000000e                # mv      a2, s0
00000000 00000939 0000 80001bb8  x19:ffffffff x13=ffffffff               # mv      a3, s3
00000000 00000940 0000 80001bbc  x23:80001570 x1=80001bc0                # jalr    s7
00000000 00000941 0000 80001570  x10:00000030                            # beqz    a0, pc + 12
00000000 00000942 0000 80001574  x11=f00b8000                            # lui     a1, 0xf00b8
00000000 00000943 0000 80001578  x11:f00b8000 x10:00000030 WA:f00b8000   # sw      a0, 0(a1)
00000000 00000944 0000 8000157c  x1:80001bc0                             # ret
00000000 00000945 0000 80001bc0  x9:0000000f x8=0000000f                 # mv      s0, s1
00000000 00000946 0000 80001bc4  x26:00000002 x24=00000002               # mv      s8, s10
00000000 00000947 0000 80001bc8  x26:00000002                            # bnez    s10, pc - 40
00000000 00000948 0000 80001ba0  x25:0011fe37 x24:00000002 x10=0011fe39  # add     a0, s9, s8
00000000 00000949 0000 80001ba4  x10:0011fe39 RA:0011fe39 x10=00000030   # lbu     a0, 0(a0)
00000000 00000950 0000 80001ba8  x24:00000002 x26=00000001               # addi    s10, s8, -1
00000000 00000951 0000 80001bac  x8:0000000f x9=00000010                 # addi    s1, s0, 1
00000000 00000952 0000 80001bb0  x22:0011ff17 x11=0011ff17               # mv      a1, s6
00000000 00000953 0000 80001bb4  x8:0000000f x12=0000000f                # mv      a2, s0
00000000 00000954 0000 80001bb8  x19:ffffffff x13=ffffffff               # mv      a3, s3
00000000 00000955 0000 80001bbc  x23:80001570 x1=80001bc0                # jalr    s7
00000000 00000956 0000 80001570  x10:00000030                            # beqz    a0, pc + 12
00000000 00000957 0000 80001574  x11=f00b8000                            # lui     a1, 0xf00b8
00000000 00000958 0000 80001578  x11:f00b8000 x10:00000030 WA:f00b8000   # sw      a0, 0(a1)
00000000 00000959 0000 8000157c  x1:80001bc0                             # ret
00000000 00000960 0000 80001bc0  x9:00000010 x8=00000010                 # mv      s0, s1
00000000 00000961 0000 80001bc4  x26:00000001 x24=00000001               # mv      s8, s10
00000000 00000962 0000 80001bc8  x26:00000001                            # bnez    s10, pc - 40
00000000 00000963 0000 80001ba0  x25:0011fe37 x24:00000001 x10=0011fe38  # add     a0, s9, s8
00000000 00000964 0000 80001ba4  x10:0011fe38 RA:0011fe38 x10=00000030   # lbu     a0, 0(a0)
00000000 00000965 0000 80001ba8  x24:00000001 x26=00000000               # addi    s10, s8, -1
00000000 00000966 0000 80001bac  x8:00000010 x9=00000011                 # addi    s1, s0, 1
00000000 00000967 0000 80001bb0  x22:0011ff17 x11=0011ff17               # mv      a1, s6
00000000 00000968 0000 80001bb4  x8:00000010 x12=00000010                # mv      a2, s0
00000000 00000969 0000 80001bb8  x19:ffffffff x13=ffffffff               # mv      a3, s3
00000000 00000970 0000 80001bbc  x23:80001570 x1=80001bc0                # jalr    s7
00000000 00000971 0000 80001570  x10:00000030                            # beqz    a0, pc + 12
00000000 00000972 0000 80001574  x11=f00b8000                            # lui     a1, 0xf00b8
00000000 00000973 0000 80001578  x11:f00b8000 x10:00000030 WA:f00b8000   # sw      a0, 0(a1)
00000000 00000974 0000 8000157c  x1:80001bc0                             # ret
00000000 00000975 0000 80001bc0  x9:00000011 x8=00000011                 # mv      s0, s1
00000000 00000976 0000 80001bc4  x26:00000000 x24=00000000               # mv      s8, s10
00000000 00000977 0000 80001bc8  x26:00000000                            # bnez    s10, pc - 40
00000000 00000978 0000 80001bcc                                          # j       pc + 0x8
00000000 00000979 0000 80001bd4  x9:00000011 x20:00000008 x10=00000009   # sub     a0, s1, s4
00000000 00000980 0000 80001bd8  x10:00000009 x18:00000000 x10=00000000  # sltu    a0, a0, s2
00000000 00000981 0000 80001bdc  x10:00000000 x10=00000001               # xori    a0, a0, 1
00000000 00000982 0000 80001be0  x21:00000000 x11=00000001               # xori    a1, s5, 1
00000000 00000983 0000 80001be4  x11:00000001 x10:00000001 x10=00000001  # or      a0, a1, a0
00000000 00000984 0000 80001be8  x10:00000001                            # bnez    a0, pc + 48
00000000 00000985 0000 80001c18  x9:00000011 x8=00000011                 # mv      s0, s1
00000000 00000986 0000 80001c1c  x8:00000011 x10=00000011                # mv      a0, s0
00000000 00000987 0000 80001c20  x2:0011fe30 RA:0011fe58 RA:0011fe5c f18=        0.000000  # fld     fs2, 40(sp)
00000000 00000988 0000 80001c24  x2:0011fe30 RA:0011fe60 RA:0011fe64 f09=        0.000000  # fld     fs1, 48(sp)
00000000 00000989 0000 80001c28  x2:0011fe30 RA:0011fe68 RA:0011fe6c f08=       16.000000  # fld     fs0, 56(sp)
00000000 00000990 0000 80001c2c  x2:0011fe30 RA:0011fe70 x26=80002bbe    # lw      s10, 64(sp)
00000000 00000991 0000 80001c30  x2:0011fe30 RA:0011fe74 x25=00000008    # lw      s9, 68(sp)
00000000 00000992 0000 80001c34  x2:0011fe30 RA:0011fe78 x24=00000010    # lw      s8, 72(sp)
00000000 00000993 0000 80001c38  x2:0011fe30 RA:0011fe7c x23=00000000    # lw      s7, 76(sp)
00000000 00000994 0000 80001c3c  x2:0011fe30 RA:0011fe80 x22=00000000    # lw      s6, 80(sp)
00000000 00000995 0000 80001c40  x2:0011fe30 RA:0011fe84 x21=ffffffff    # lw      s5, 84(sp)
00000000 00000996 0000 80001c44  x2:0011fe30 RA:0011fe88 x20=0011ff17    # lw      s4, 88(sp)
00000000 00000997 0000 80001c48  x2:0011fe30 RA:0011fe8c x19=0011ff30    # lw      s3, 92(sp)
00000000 00000998 0000 80001c4c  x2:0011fe30 RA:0011fe90 x18=80001570    # lw      s2, 96(sp)
00000000 00000999 0000 80001c50  x2:0011fe30 RA:0011fe94 x9=00000008     # lw      s1, 100(sp)
00000000 00001000 0000 80001c54  x2:0011fe30 RA:0011fe98 x8=00000000     # lw      s0, 104(sp)
00000000 00001001 0000 80001c58  x2:0011fe30 RA:0011fe9c x1=80000ca0     # lw      ra, 108(sp)
00000000 00001002 0000 80001c5c  x2:0011fe30 x2=0011fea0                 # addi    sp, sp, 112
00000000 00001003 0000 80001c60  x1:80000ca0                             # ret
00000000 00001004 0000 80000ca0                                          # j       pc + 0x7c0
00000000 00001005 0000 80001460  x10:00000011 x24=00000011               # mv      s8, a0
00000000 00001006 0000 80001464  x22=00000025                            # li      s6, 37
00000000 00001007 0000 80001468  x23=0000002e                            # li      s7, 46
00000000 00001008 0000 8000146c  x26:80002bbe x8=80002bbf                # addi    s0, s10, 1
00000000 00001009 0000 80001470                                          # j       pc - 0xa74
00000000 00001010 0000 800009fc  x8:80002bbf x26=80002bc1                # addi    s10, s0, 2
00000000 00001011 0000 80000a00  x24:00000011 x25=00000011               # mv      s9, s8
00000000 00001012 0000 80000a04  x24=0000000a                            # li      s8, 10
00000000 00001013 0000 80000a08  x8:80002bbf RA:80002bbf x10=0000000a    # lbu     a0, 0(s0)
00000000 00001014 0000 80000a0c  x10:0000000a                            # beqz    a0, pc + 2824
00000000 00001015 0000 80000a10  x10:0000000a x22:00000025               # beq     a0, s6, pc + 48
00000000 00001016 0000 80000a14  x25:00000011 x9=00000012                # addi    s1, s9, 1
00000000 00001017 0000 80000a18  x20:0011ff17 x11=0011ff17               # mv      a1, s4
00000000 00001018 0000 80000a1c  x25:00000011 x12=00000011               # mv      a2, s9
00000000 00001019 0000 80000a20  x21:ffffffff x13=ffffffff               # mv      a3, s5
00000000 00001020 0000 80000a24  x18:80001570 x1=80000a28                # jalr    s2
00000000 00001021 0000 80001570  x10:0000000a                            # beqz    a0, pc + 12
00000000 00001022 0000 80001574  x11=f00b8000                            # lui     a1, 0xf00b8
00000000 00000251 0005 80002b48  x1=80002b48                             # auipc   ra, 0x0
00000000 00000246 0004 80002930  x10:00000000 x8=00000000                # mv      s0, a0
00000000 00000247 0004 80002934  x1=80002934                             # auipc   ra, 0x0
00000000 00000248 0004 80002938  x1:80002934 x1=8000293c                 # jalr    ra, ra, 524
00000000 00000257 0001 80002504  x10:0011ff70 RA:0011ffe0 x10=00120190   # lw      a0, 112(a0)
00000000 00000258 0001 80002508  x1:80002b50                             # ret
00000000 00000249 0004 80002b40  x2:0011ef40 x2=0011ef3c                 # addi    sp, sp, -4
00000000 00000250 0004 80002b44  x2:0011ef3c x1:8000293c WA:0011ef3c     # sw      ra, 0(sp)
00000000 00000252 0005 80002b4c  x1:80002b48 x1=80002b50                 # jalr    ra, ra, -1620
00000000 00000251 0004 80002b48  x1=80002b48                             # auipc   ra, 0x0
00000000 00000252 0004 80002b4c  x1:80002b48 x1=80002b50                 # jalr    ra, ra, -1620
00000000 00000253 0004 800024f4  x10=00000000                            # lui     a0, 0x0
00000000 00001023 0000 80001578  x11:f00b8000 x10:0000000a WA:f00b8000   # sw      a0, 0(a1)
00000000 00000253 0005 800024f4  x10=00000000                            # lui     a0, 0x0
00000000 00000254 0004 800024f8  x10:00000000 x4:0011ef40 x10=0011ef40   # add     a0, a0, tp
00000000 00000254 0005 800024f8  x10:00000000 x4:0011eb38 x10=0011eb38   # add     a0, a0, tp
00000000 00000255 0004 800024fc  x10:0011ef40 RA:0011ef40 x10=0011ff70   # lw      a0, 0(a0)
00000000 00000256 0004 80002500  x10:0011ff70 RA:0011ff70 x10=0011ff70   # lw      a0, 0(a0)
00000000 00000255 0005 800024fc  x10:0011eb38 RA:0011eb38 x10=0011ff70   # lw      a0, 0(a0)
00000000 00000257 0004 80002504  x10:0011ff70 RA:0011ffe0 x10=00120190   # lw      a0, 112(a0)
00000000 00000258 0004 80002508  x1:80002b50                             # ret
00000000 00001024 0000 8000157c  x1:80000a28                             # ret
00000000 00000256 0005 80002500  x10:0011ff70 RA:0011ff70 x10=0011ff70   # lw      a0, 0(a0)
00000000 00000257 0005 80002504  x10:0011ff70 RA:0011ffe0 x10=00120190   # lw      a0, 112(a0)
00000000 00000258 0005 80002508  x1:80002b50                             # ret
00000000 00001025 0000 80000a28  x8:80002bbf x8=80002bc0                 # addi    s0, s0, 1
00000000 00001026 0000 80000a2c  x26:80002bc1 x26=80002bc2               # addi    s10, s10, 1
00000000 00001027 0000 80000a30  x9:00000012 x25=00000012                # mv      s9, s1
00000000 00001028 0000 80000a34  x8:80002bc0 RA:80002bc0 x10=00000000    # lbu     a0, 0(s0)
00000000 00001029 0000 80000a38  x10:00000000                            # bnez    a0, pc - 40
00000000 00001030 0000 80000a3c                                          # j       pc + 0xad8
00000000 00001031 0000 80001514  x25:00000012 x12=00000012               # mv      a2, s9
00000000 00001032 0000 80001518  x25:00000012 x21:ffffffff               # bltu    s9, s5, pc + 8
00000000 00001033 0000 80001520  x10=00000000                            # li      a0, 0
00000000 00001034 0000 80001524  x20:0011ff17 x11=0011ff17               # mv      a1, s4
00000000 00001035 0000 80001528  x21:ffffffff x13=ffffffff               # mv      a3, s5
00000000 00001036 0000 8000152c  x18:80001570 x1=80001530                # jalr    s2
00000000 00001037 0000 80001570  x10:00000000                            # beqz    a0, pc + 12
00000000 00001038 0000 8000157c  x1:80001530                             # ret
00000000 00001039 0000 80001530  x25:00000012 x10=00000012               # mv      a0, s9
00000000 00001040 0000 80001534  x2:0011fea0 RA:0011fedc x27=00000000    # lw      s11, 60(sp)
00000000 00001041 0000 80001538  x2:0011fea0 RA:0011fee0 x26=00000000    # lw      s10, 64(sp)
00000000 00001042 0000 8000153c  x2:0011fea0 RA:0011fee4 x25=00000000    # lw      s9, 68(sp)
00000000 00001043 0000 80001540  x2:0011fea0 RA:0011fee8 x24=00000000    # lw      s8, 72(sp)
00000000 00001044 0000 80001544  x2:0011fea0 RA:0011feec x23=00000000    # lw      s7, 76(sp)
00000000 00001045 0000 80001548  x2:0011fea0 RA:0011fef0 x22=00000000    # lw      s6, 80(sp)
00000000 00001046 0000 8000154c  x2:0011fea0 RA:0011fef4 x21=00000000    # lw      s5, 84(sp)
00000000 00001047 0000 80001550  x2:0011fea0 RA:0011fef8 x20=00000000    # lw      s4, 88(sp)
00000000 00001048 0000 80001554  x2:0011fea0 RA:0011fefc x19=00000000    # lw      s3, 92(sp)
00000000 00001049 0000 80001558  x2:0011fea0 RA:0011ff00 x18=00000000    # lw      s2, 96(sp)
00000000 00001050 0000 8000155c  x2:0011fea0 RA:0011ff04 x9=00000000     # lw      s1, 100(sp)
00000000 00001051 0000 80001560  x2:0011fea0 RA:0011ff08 x8=00100000     # lw      s0, 104(sp)
00000000 00001052 0000 80001564  x2:0011fea0 RA:0011ff0c x1=8000096c     # lw      ra, 108(sp)
00000000 00001053 0000 80001568  x2:0011fea0 x2=0011ff10                 # addi    sp, sp, 112
00000000 00001054 0000 8000156c  x1:8000096c                             # ret
00000000 00001055 0000 8000096c  x2:0011ff10 RA:0011ff1c x1=800008f8     # lw      ra, 12(sp)
00000000 00001056 0000 80000970  x2:0011ff10 x2=0011ff40                 # addi    sp, sp, 48
00000000 00001057 0000 80000974  x1:800008f8                             # ret
00000000 00001058 0000 800008f8  x10=800028f8                            # auipc   a0, 0x2
00000000 00001059 0000 800008fc  x10:800028f8 x10=80002e20               # addi    a0, a0, 1320
00000000 00001060 0000 80000900  x10:80002e20 RA:80002e20 RA:80002e24 f03=        0.000100  # fld     ft3, 0(a0)
00000000 00001061 0000 80000904  f03:        0.000100 f08:       16.000000 x10=00000001  # flt.d   a0, ft3, fs0
00000000 00001062 0000 80000908  x2:0011ff40 RA:0011ff50 RA:0011ff54 f08=        0.000000  # fld     fs0, 16(sp)
00000000 00001063 0000 8000090c  x2:0011ff40 RA:0011ff58 x8=00000000     # lw      s0, 24(sp)
00000000 00001064 0000 80000910  x2:0011ff40 RA:0011ff5c x1=80002930     # lw      ra, 28(sp)
00000000 00001065 0000 80000914  x2:0011ff40 x2=0011ff60                 # addi    sp, sp, 32
00000000 00001066 0000 80000918  x1:80002930                             # ret
00000000 00001067 0000 80002930  x10:00000001 x8=00000001                # mv      s0, a0
00000000 00001068 0000 80002934  x1=80002934                             # auipc   ra, 0x0
00000000 00001069 0000 80002938  x1:80002934 x1=8000293c                 # jalr    ra, ra, 524
00000000 00001070 0000 80002b40  x2:0011ff60 x2=0011ff5c                 # addi    sp, sp, -4
00000000 00001071 0000 80002b44  x2:0011ff5c x1:8000293c WA:0011ff5c     # sw      ra, 0(sp)
00000000 00001072 0000 80002b48  x1=80002b48                             # auipc   ra, 0x0
00000000 00001073 0000 80002b4c  x1:80002b48 x1=80002b50                 # jalr    ra, ra, -1620
00000000 00001074 0000 800024f4  x10=00000000                            # lui     a0, 0x0
00000000 00001075 0000 800024f8  x10:00000000 x4:0011ff60 x10=0011ff60   # add     a0, a0, tp
00000000 00001076 0000 800024fc  x10:0011ff60 RA:0011ff60 x10=0011ff70   # lw      a0, 0(a0)
00000000 00001077 0000 80002500  x10:0011ff70 RA:0011ff70 x10=0011ff70   # lw      a0, 0(a0)
00000000 00001078 0000 80002504  x10:0011ff70 RA:0011ffe0 x10=00120190   # lw      a0, 112(a0)
00000000 00001079 0000 80002508  x1:80002b50                             # ret
00000000 00000259 0001 80002b50  x10:00120190 RA:00120190 x10=00000000   # lw      a0, 0(a0)
00000000 00000260 0001 80002b54  x10:00000000                            # mv      zero, a0
00000000 00000261 0001 80002b58  x2:0011fb54 RA:0011fb54 x1=8000293c     # lw      ra, 0(sp)
00000000 00000262 0001 80002b5c  x2:0011fb54 x2=0011fb58                 # addi    sp, sp, 4
00000000 00000263 0001 80002b60  x1:8000293c                             # ret
00000000 00000264 0001 8000293c  x8:00000000 x10=00000000                # mv      a0, s0
00000000 00000259 0002 80002b50  x10:00120190 RA:00120190 x10=00000000   # lw      a0, 0(a0)
00000000 00001080 0000 80002b50  x10:00120190 RA:00120190 x10=00000000   # lw      a0, 0(a0)
00000000 00001081 0000 80002b54  x10:00000000                            # mv      zero, a0
00000000 00000259 0005 80002b50  x10:00120190 RA:00120190 x10=00000000   # lw      a0, 0(a0)
00000000 00000259 0003 80002b50  x10:00120190 RA:00120190 x10=00000000   # lw      a0, 0(a0)
00000000 00000259 0004 80002b50  x10:00120190 RA:00120190 x10=00000000   # lw      a0, 0(a0)
00000000 00000265 0001 80002940  x1=80002940                             # auipc   ra, 0x0
00000000 00000259 0007 80002b50  x10:00120190 RA:00120190 x10=00000000   # lw      a0, 0(a0)
00000000 00000259 0008 80002b50  x10:00120190 RA:00120190 x10=00000000   # lw      a0, 0(a0)
00000000 00000260 0008 80002b54  x10:00000000                            # mv      zero, a0
00000000 00000259 0006 80002b50  x10:00120190 RA:00120190 x10=00000000   # lw      a0, 0(a0)
00000000 00000260 0006 80002b54  x10:00000000                            # mv      zero, a0
00000000 00000260 0005 80002b54  x10:00000000                            # mv      zero, a0
00000000 00000260 0003 80002b54  x10:00000000                            # mv      zero, a0
00000000 00000260 0004 80002b54  x10:00000000                            # mv      zero, a0
00000000 00000266 0001 80002944  x1:80002940 x1=80002948                 # jalr    ra, ra, 556
00000000 00000260 0007 80002b54  x10:00000000                            # mv      zero, a0
00000000 00000260 0002 80002b54  x10:00000000                            # mv      zero, a0
00000000 00000261 0002 80002b58  x2:0011f74c RA:0011f74c x1=8000293c     # lw      ra, 0(sp)
00000000 00000262 0002 80002b5c  x2:0011f74c x2=0011f750                 # addi    sp, sp, 4
00000000 00001082 0000 80002b58  x2:0011ff5c RA:0011ff5c x1=8000293c     # lw      ra, 0(sp)
00000000 00000261 0006 80002b58  x2:0011e72c RA:0011e72c x1=8000293c     # lw      ra, 0(sp)
00000000 00000261 0005 80002b58  x2:0011eb34 RA:0011eb34 x1=8000293c     # lw      ra, 0(sp)
00000000 00000261 0003 80002b58  x2:0011f344 RA:0011f344 x1=8000293c     # lw      ra, 0(sp)
00000000 00000261 0004 80002b58  x2:0011ef3c RA:0011ef3c x1=8000293c     # lw      ra, 0(sp)
00000000 00000262 0004 80002b5c  x2:0011ef3c x2=0011ef40                 # addi    sp, sp, 4
00000000 00000263 0004 80002b60  x1:8000293c                             # ret
00000000 00000261 0008 80002b58  x2:0011df1c RA:0011df1c x1=8000293c     # lw      ra, 0(sp)
00000000 00000262 0008 80002b5c  x2:0011df1c x2=0011df20                 # addi    sp, sp, 4
00000000 00000263 0002 80002b60  x1:8000293c                             # ret
00000000 00001083 0000 80002b5c  x2:0011ff5c x2=0011ff60                 # addi    sp, sp, 4
00000000 00000262 0005 80002b5c  x2:0011eb34 x2=0011eb38                 # addi    sp, sp, 4
00000000 00000262 0003 80002b5c  x2:0011f344 x2=0011f348                 # addi    sp, sp, 4
00000000 00000263 0003 80002b60  x1:8000293c                             # ret
00000000 00000261 0007 80002b58  x2:0011e324 RA:0011e324 x1=8000293c     # lw      ra, 0(sp)
00000000 00000264 0004 8000293c  x8:00000000 x10=00000000                # mv      a0, s0
00000000 00000263 0008 80002b60  x1:8000293c                             # ret
00000000 00000262 0006 80002b5c  x2:0011e72c x2=0011e730                 # addi    sp, sp, 4
00000000 00000263 0006 80002b60  x1:8000293c                             # ret
00000000 00000264 0006 8000293c  x8:00000000 x10=00000000                # mv      a0, s0
00000000 00000265 0006 80002940  x1=80002940                             # auipc   ra, 0x0
00000000 00000266 0006 80002944  x1:80002940 x1=80002948                 # jalr    ra, ra, 556
00000000 00000264 0003 8000293c  x8:00000000 x10=00000000                # mv      a0, s0
00000000 00000265 0003 80002940  x1=80002940                             # auipc   ra, 0x0
00000000 00000265 0004 80002940  x1=80002940                             # auipc   ra, 0x0
00000000 00000264 0008 8000293c  x8:00000000 x10=00000000                # mv      a0, s0
00000000 00000265 0008 80002940  x1=80002940                             # auipc   ra, 0x0
00000000 00000266 0008 80002944  x1:80002940 x1=80002948                 # jalr    ra, ra, 556
00000000 00000267 0008 80002b6c  x2:0011df20 x2=0011df18                 # addi    sp, sp, -8
00000000 00000268 0008 80002b70  x2:0011df18 x10:00000000 WA:0011df18    # sw      a0, 0(sp)
00000000 00000267 0006 80002b6c  x2:0011e730 x2=0011e728                 # addi    sp, sp, -8
00000000 00000262 0007 80002b5c  x2:0011e324 x2=0011e328                 # addi    sp, sp, 4
00000000 00000266 0003 80002944  x1:80002940 x1=80002948                 # jalr    ra, ra, 556
00000000 00000266 0004 80002944  x1:80002940 x1=80002948                 # jalr    ra, ra, 556
00000000 00000264 0002 8000293c  x8:00000000 x10=00000000                # mv      a0, s0
00000000 00001084 0000 80002b60  x1:8000293c                             # ret
00000000 00000263 0005 80002b60  x1:8000293c                             # ret
00000000 00001085 0000 8000293c  x8:00000001 x10=00000001                # mv      a0, s0
00000000 00000267 0001 80002b6c  x2:0011fb58 x2=0011fb50                 # addi    sp, sp, -8
00000000 00001086 0000 80002940  x1=80002940                             # auipc   ra, 0x0
00000000 00000268 0001 80002b70  x2:0011fb50 x10:00000000 WA:0011fb50    # sw      a0, 0(sp)
00000000 00000263 0007 80002b60  x1:8000293c                             # ret
00000000 00000267 0004 80002b6c  x2:0011ef40 x2=0011ef38                 # addi    sp, sp, -8
00000000 00000268 0004 80002b70  x2:0011ef38 x10:00000000 WA:0011ef38    # sw      a0, 0(sp)
00000000 00000264 0005 8000293c  x8:00000000 x10=00000000                # mv      a0, s0
00000000 00000269 0008 80002b74  x2:0011df18 x1:80002948 WA:0011df1c     # sw      ra, 4(sp)
00000000 00000268 0006 80002b70  x2:0011e728 x10:00000000 WA:0011e728    # sw      a0, 0(sp)
00000000 00000269 0006 80002b74  x2:0011e728 x1:80002948 WA:0011e72c     # sw      ra, 4(sp)
00000000 00000270 0006 80002b78  x1=80002b78                             # auipc   ra, 0x0
00000000 00000267 0003 80002b6c  x2:0011f348 x2=0011f340                 # addi    sp, sp, -8
00000000 00000264 0007 8000293c  x8:00000000 x10=00000000                # mv      a0, s0
00000000 00000265 0007 80002940  x1=80002940                             # auipc   ra, 0x0
00000000 00000269 0004 80002b74  x2:0011ef38 x1:80002948 WA:0011ef3c     # sw      ra, 4(sp)
00000000 00000265 0005 80002940  x1=80002940                             # auipc   ra, 0x0
00000000 00000270 0008 80002b78  x1=80002b78                             # auipc   ra, 0x0
00000000 00000271 0008 80002b7c  x1:80002b78 x1=80002b80                 # jalr    ra, ra, -1700
00000000 00000272 0008 800024d4  x10=00000000                            # lui     a0, 0x0
00000000 00000271 0006 80002b7c  x1:80002b78 x1=80002b80                 # jalr    ra, ra, -1700
00000000 00000268 0003 80002b70  x2:0011f340 x10:00000000 WA:0011f340    # sw      a0, 0(sp)
00000000 00000269 0003 80002b74  x2:0011f340 x1:80002948 WA:0011f344     # sw      ra, 4(sp)
00000000 00000270 0003 80002b78  x1=80002b78                             # auipc   ra, 0x0
00000000 00000271 0003 80002b7c  x1:80002b78 x1=80002b80                 # jalr    ra, ra, -1700
00000000 00000272 0003 800024d4  x10=00000000                            # lui     a0, 0x0
00000000 00000273 0003 800024d8  x10:00000000 x4:0011f348 x10=0011f348   # add     a0, a0, tp
00000000 00000274 0003 800024dc  x10:0011f348 RA:0011f348 x10=0011ff70   # lw      a0, 0(a0)
00000000 00000275 0003 800024e0  x10:0011ff70 RA:0011ff70 x10=0011ff70   # lw      a0, 0(a0)
00000000 00000272 0006 800024d4  x10=00000000                            # lui     a0, 0x0
00000000 00000265 0002 80002940  x1=80002940                             # auipc   ra, 0x0
00000000 00000266 0007 80002944  x1:80002940 x1=80002948                 # jalr    ra, ra, 556
00000000 00000270 0004 80002b78  x1=80002b78                             # auipc   ra, 0x0
00000000 00000266 0005 80002944  x1:80002940 x1=80002948                 # jalr    ra, ra, 556
00000000 00000267 0005 80002b6c  x2:0011eb38 x2=0011eb30                 # addi    sp, sp, -8
00000000 00000268 0005 80002b70  x2:0011eb30 x10:00000000 WA:0011eb30    # sw      a0, 0(sp)
00000000 00000269 0005 80002b74  x2:0011eb30 x1:80002948 WA:0011eb34     # sw      ra, 4(sp)
00000000 00000270 0005 80002b78  x1=80002b78                             # auipc   ra, 0x0
00000000 00000271 0005 80002b7c  x1:80002b78 x1=80002b80                 # jalr    ra, ra, -1700
00000000 00000272 0005 800024d4  x10=00000000                            # lui     a0, 0x0
00000000 00000273 0005 800024d8  x10:00000000 x4:0011eb38 x10=0011eb38   # add     a0, a0, tp
00000000 00000274 0005 800024dc  x10:0011eb38 RA:0011eb38 x10=0011ff70   # lw      a0, 0(a0)
00000000 00000275 0005 800024e0  x10:0011ff70 RA:0011ff70 x10=0011ff70   # lw      a0, 0(a0)
00000000 00000276 0005 800024e4  x10:0011ff70 RA:0011ff78 x10=00000000   # lw      a0, 8(a0)
00000000 00000277 0005 800024e8  x11=00000005                            # csrr    a1, mhartid
00000000 00000276 0003 800024e4  x10:0011ff70 RA:0011ff78 x10=00000000   # lw      a0, 8(a0)
00000000 00000273 0006 800024d8  x10:00000000 x4:0011e730 x10=0011e730   # add     a0, a0, tp
00000000 00000266 0002 80002944  x1:80002940 x1=80002948                 # jalr    ra, ra, 556
00000000 00000267 0007 80002b6c  x2:0011e328 x2=0011e320                 # addi    sp, sp, -8
00000000 00000271 0004 80002b7c  x1:80002b78 x1=80002b80                 # jalr    ra, ra, -1700
00000000 00000272 0004 800024d4  x10=00000000                            # lui     a0, 0x0
00000000 00000273 0004 800024d8  x10:00000000 x4:0011ef40 x10=0011ef40   # add     a0, a0, tp
00000000 00000274 0004 800024dc  x10:0011ef40 RA:0011ef40 x10=0011ff70   # lw      a0, 0(a0)
00000000 00000273 0008 800024d8  x10:00000000 x4:0011df20 x10=0011df20   # add     a0, a0, tp
00000000 00000278 0005 800024ec  x11:00000005 x10:00000000 x10=00000005  # sub     a0, a1, a0
00000000 00000277 0003 800024e8  x11=00000003                            # csrr    a1, mhartid
00000000 00000274 0006 800024dc  x10:0011e730 RA:0011e730 x10=0011ff70   # lw      a0, 0(a0)
00000000 00000267 0002 80002b6c  x2:0011f750 x2=0011f748                 # addi    sp, sp, -8
00000000 00000268 0007 80002b70  x2:0011e320 x10:00000000 WA:0011e320    # sw      a0, 0(sp)
00000000 00000269 0007 80002b74  x2:0011e320 x1:80002948 WA:0011e324     # sw      ra, 4(sp)
00000000 00000270 0007 80002b78  x1=80002b78                             # auipc   ra, 0x0
00000000 00000275 0004 800024e0  x10:0011ff70 RA:0011ff70 x10=0011ff70   # lw      a0, 0(a0)
00000000 00000274 0008 800024dc  x10:0011df20 RA:0011df20 x10=0011ff70   # lw      a0, 0(a0)
00000000 00000279 0005 800024f0  x1:80002b80                             # ret
00000000 00000278 0003 800024ec  x11:00000003 x10:00000000 x10=00000003  # sub     a0, a1, a0
00000000 00000279 0003 800024f0  x1:80002b80                             # ret
00000000 00000280 0003 80002b80  x2:0011f340 RA:0011f340 x5=00000000     # lw      t0, 0(sp)
00000000 00000281 0003 80002b84  x2:0011f340 RA:0011f344 x1=80002948     # lw      ra, 4(sp)
00000000 00000282 0003 80002b88  x2:0011f340 x2=0011f348                 # addi    sp, sp, 8
00000000 00000271 0007 80002b7c  x1:80002b78 x1=80002b80                 # jalr    ra, ra, -1700
00000000 00000276 0004 800024e4  x10:0011ff70 RA:0011ff78 x10=00000000   # lw      a0, 8(a0)
00000000 00000277 0004 800024e8  x11=00000004                            # csrr    a1, mhartid
00000000 00000278 0004 800024ec  x11:00000004 x10:00000000 x10=00000004  # sub     a0, a1, a0
00000000 00000279 0004 800024f0  x1:80002b80                             # ret
00000000 00000280 0004 80002b80  x2:0011ef38 RA:0011ef38 x5=00000000     # lw      t0, 0(sp)
00000000 00000281 0004 80002b84  x2:0011ef38 RA:0011ef3c x1=80002948     # lw      ra, 4(sp)
00000000 00000282 0004 80002b88  x2:0011ef38 x2=0011ef40                 # addi    sp, sp, 8
00000000 00000283 0003 80002b8c  x10:00000003                            # bnez    a0, pc + 24
00000000 00000284 0003 80002ba4  x1:80002948                             # ret
00000000 00000285 0003 80002948                                          # wfi
00000000 00000280 0005 80002b80  x2:0011eb30 RA:0011eb30 x5=00000000     # lw      t0, 0(sp)
00000000 00000275 0006 800024e0  x10:0011ff70 RA:0011ff70 x10=0011ff70   # lw      a0, 0(a0)
00000000 00000268 0002 80002b70  x2:0011f748 x10:00000000 WA:0011f748    # sw      a0, 0(sp)
00000000 00001087 0000 80002944  x1:80002940 x1=80002948                 # jalr    ra, ra, 556
00000000 00000269 0001 80002b74  x2:0011fb50 x1:80002948 WA:0011fb54     # sw      ra, 4(sp)
00000000 00000270 0001 80002b78  x1=80002b78                             # auipc   ra, 0x0
00000000 00000271 0001 80002b7c  x1:80002b78 x1=80002b80                 # jalr    ra, ra, -1700
00000000 00000272 0007 800024d4  x10=00000000                            # lui     a0, 0x0
00000000 00000275 0008 800024e0  x10:0011ff70 RA:0011ff70 x10=0011ff70   # lw      a0, 0(a0)
00000000 00000281 0005 80002b84  x2:0011eb30 RA:0011eb34 x1=80002948     # lw      ra, 4(sp)
00000000 00000282 0005 80002b88  x2:0011eb30 x2=0011eb38                 # addi    sp, sp, 8
00000000 00000283 0005 80002b8c  x10:00000005                            # bnez    a0, pc + 24
00000000 00000284 0005 80002ba4  x1:80002948                             # ret
00000000 00000285 0005 80002948                                          # wfi
00000000 00000283 0004 80002b8c  x10:00000004                            # bnez    a0, pc + 24
00000000 00000273 0007 800024d8  x10:00000000 x4:0011e328 x10=0011e328   # add     a0, a0, tp
00000000 00000274 0007 800024dc  x10:0011e328 RA:0011e328 x10=0011ff70   # lw      a0, 0(a0)
00000000 00000275 0007 800024e0  x10:0011ff70 RA:0011ff70 x10=0011ff70   # lw      a0, 0(a0)
00000000 00000276 0007 800024e4  x10:0011ff70 RA:0011ff78 x10=00000000   # lw      a0, 8(a0)
00000000 00000277 0007 800024e8  x11=00000007                            # csrr    a1, mhartid
00000000 00000278 0007 800024ec  x11:00000007 x10:00000000 x10=00000007  # sub     a0, a1, a0
00000000 00000279 0007 800024f0  x1:80002b80                             # ret
00000000 00000280 0007 80002b80  x2:0011e320 RA:0011e320 x5=00000000     # lw      t0, 0(sp)
00000000 00000281 0007 80002b84  x2:0011e320 RA:0011e324 x1=80002948     # lw      ra, 4(sp)
00000000 00000282 0007 80002b88  x2:0011e320 x2=0011e328                 # addi    sp, sp, 8
00000000 00000283 0007 80002b8c  x10:00000007                            # bnez    a0, pc + 24
00000000 00000284 0007 80002ba4  x1:80002948                             # ret
00000000 00000285 0007 80002948                                          # wfi
00000000 00000276 0008 800024e4  x10:0011ff70 RA:0011ff78 x10=00000000   # lw      a0, 8(a0)
00000000 00000277 0008 800024e8  x11=00000008                            # csrr    a1, mhartid
00000000 00000278 0008 800024ec  x11:00000008 x10:00000000 x10=00000008  # sub     a0, a1, a0
00000000 00000279 0008 800024f0  x1:80002b80                             # ret
00000000 00000280 0008 80002b80  x2:0011df18 RA:0011df18 x5=00000000     # lw      t0, 0(sp)
00000000 00000281 0008 80002b84  x2:0011df18 RA:0011df1c x1=80002948     # lw      ra, 4(sp)
00000000 00000282 0008 80002b88  x2:0011df18 x2=0011df20                 # addi    sp, sp, 8
00000000 00000283 0008 80002b8c  x10:00000008                            # bnez    a0, pc + 24
00000000 00000284 0008 80002ba4  x1:80002948                             # ret
00000000 00000285 0008 80002948                                          # wfi
00000000 00000269 0002 80002b74  x2:0011f748 x1:80002948 WA:0011f74c     # sw      ra, 4(sp)
00000000 00000270 0002 80002b78  x1=80002b78                             # auipc   ra, 0x0
00000000 00001088 0000 80002b6c  x2:0011ff60 x2=0011ff58                 # addi    sp, sp, -8
00000000 00000272 0001 800024d4  x10=00000000                            # lui     a0, 0x0
00000000 00000273 0001 800024d8  x10:00000000 x4:0011fb58 x10=0011fb58   # add     a0, a0, tp
00000000 00000274 0001 800024dc  x10:0011fb58 RA:0011fb58 x10=0011ff70   # lw      a0, 0(a0)
00000000 00000275 0001 800024e0  x10:0011ff70 RA:0011ff70 x10=0011ff70   # lw      a0, 0(a0)
00000000 00000276 0001 800024e4  x10:0011ff70 RA:0011ff78 x10=00000000   # lw      a0, 8(a0)
00000000 00000277 0001 800024e8  x11=00000001                            # csrr    a1, mhartid
00000000 00000278 0001 800024ec  x11:00000001 x10:00000000 x10=00000001  # sub     a0, a1, a0
00000000 00000279 0001 800024f0  x1:80002b80                             # ret
00000000 00000280 0001 80002b80  x2:0011fb50 RA:0011fb50 x5=00000000     # lw      t0, 0(sp)
00000000 00000281 0001 80002b84  x2:0011fb50 RA:0011fb54 x1=80002948     # lw      ra, 4(sp)
00000000 00000282 0001 80002b88  x2:0011fb50 x2=0011fb58                 # addi    sp, sp, 8
00000000 00000283 0001 80002b8c  x10:00000001                            # bnez    a0, pc + 24
00000000 00000284 0001 80002ba4  x1:80002948                             # ret
00000000 00000285 0001 80002948                                          # wfi
00000000 00000284 0004 80002ba4  x1:80002948                             # ret
00000000 00000285 0004 80002948                                          # wfi
00000000 00000276 0006 800024e4  x10:0011ff70 RA:0011ff78 x10=00000000   # lw      a0, 8(a0)
00000000 00000277 0006 800024e8  x11=00000006                            # csrr    a1, mhartid
00000000 00000278 0006 800024ec  x11:00000006 x10:00000000 x10=00000006  # sub     a0, a1, a0
00000000 00000279 0006 800024f0  x1:80002b80                             # ret
00000000 00000280 0006 80002b80  x2:0011e728 RA:0011e728 x5=00000000     # lw      t0, 0(sp)
00000000 00000281 0006 80002b84  x2:0011e728 RA:0011e72c x1=80002948     # lw      ra, 4(sp)
00000000 00000282 0006 80002b88  x2:0011e728 x2=0011e730                 # addi    sp, sp, 8
00000000 00000283 0006 80002b8c  x10:00000006                            # bnez    a0, pc + 24
00000000 00000284 0006 80002ba4  x1:80002948                             # ret
00000000 00000285 0006 80002948                                          # wfi
00000000 00000271 0002 80002b7c  x1:80002b78 x1=80002b80                 # jalr    ra, ra, -1700
00000000 00000272 0002 800024d4  x10=00000000                            # lui     a0, 0x0
00000000 00000273 0002 800024d8  x10:00000000 x4:0011f750 x10=0011f750   # add     a0, a0, tp
00000000 00000274 0002 800024dc  x10:0011f750 RA:0011f750 x10=0011ff70   # lw      a0, 0(a0)
00000000 00000275 0002 800024e0  x10:0011ff70 RA:0011ff70 x10=0011ff70   # lw      a0, 0(a0)
00000000 00000276 0002 800024e4  x10:0011ff70 RA:0011ff78 x10=00000000   # lw      a0, 8(a0)
00000000 00000277 0002 800024e8  x11=00000002                            # csrr    a1, mhartid
00000000 00000278 0002 800024ec  x11:00000002 x10:00000000 x10=00000002  # sub     a0, a1, a0
00000000 00000279 0002 800024f0  x1:80002b80                             # ret
00000000 00000280 0002 80002b80  x2:0011f748 RA:0011f748 x5=00000000     # lw      t0, 0(sp)
00000000 00000281 0002 80002b84  x2:0011f748 RA:0011f74c x1=80002948     # lw      ra, 4(sp)
00000000 00000282 0002 80002b88  x2:0011f748 x2=0011f750                 # addi    sp, sp, 8
00000000 00000283 0002 80002b8c  x10:00000002                            # bnez    a0, pc + 24
00000000 00000284 0002 80002ba4  x1:80002948                             # ret
00000000 00000285 0002 80002948                                          # wfi
00000000 00001089 0000 80002b70  x2:0011ff58 x10:00000001 WA:0011ff58    # sw      a0, 0(sp)
00000000 00001090 0000 80002b74  x2:0011ff58 x1:80002948 WA:0011ff5c     # sw      ra, 4(sp)
00000000 00001091 0000 80002b78  x1=80002b78                             # auipc   ra, 0x0
00000000 00001092 0000 80002b7c  x1:80002b78 x1=80002b80                 # jalr    ra, ra, -1700
00000000 00001093 0000 800024d4  x10=00000000                            # lui     a0, 0x0
00000000 00001094 0000 800024d8  x10:00000000 x4:0011ff60 x10=0011ff60   # add     a0, a0, tp
00000000 00001095 0000 800024dc  x10:0011ff60 RA:0011ff60 x10=0011ff70   # lw      a0, 0(a0)
00000000 00001096 0000 800024e0  x10:0011ff70 RA:0011ff70 x10=0011ff70   # lw      a0, 0(a0)
00000000 00001097 0000 800024e4  x10:0011ff70 RA:0011ff78 x10=00000000   # lw      a0, 8(a0)
00000000 00001098 0000 800024e8  x11=00000000                            # csrr    a1, mhartid
00000000 00001099 0000 800024ec  x11:00000000 x10:00000000 x10=00000000  # sub     a0, a1, a0
00000000 00001100 0000 800024f0  x1:80002b80                             # ret
00000000 00001101 0000 80002b80  x2:0011ff58 RA:0011ff58 x5=00000001     # lw      t0, 0(sp)
00000000 00001102 0000 80002b84  x2:0011ff58 RA:0011ff5c x1=80002948     # lw      ra, 4(sp)
00000000 00001103 0000 80002b88  x2:0011ff58 x2=0011ff60                 # addi    sp, sp, 8
00000000 00001104 0000 80002b8c  x10:00000000                            # bnez    a0, pc + 24
00000000 00001105 0000 80002b90  x5:00000001 x5=00000002                 # slli    t0, t0, 1
00000000 00001106 0000 80002b94  x5:00000002 x5=00000003                 # ori     t0, t0, 1
00000000 00001107 0000 80002b98  x6=01fffb98                             # auipc   t1, 0x81ffd
00000000 00001108 0000 80002b9c  x6:01fffb98 x6=02000014                 # addi    t1, t1, 1148
00000000 00001109 0000 80002ba0  x6:02000014 x5:00000003 WA:02000014     # sw      t0, 0(t1)
00000000 00001110 0000 80002ba4  x1:80002948                             # ret
00000000 00001111 0000 80002948                                          # wfi
